
AVRASM ver. 2.1.30  F:\Lain-lain\EWS-Bascorro\00000000000000000000000000\Mega2560 - 2019\New folder (2)\List\l.asm Thu Apr 25 01:18:36 2019

F:\Lain-lain\EWS-Bascorro\00000000000000000000000000\Mega2560 - 2019\New folder (2)\List\l.asm(1078): warning: Register r4 already defined by the .DEF directive
F:\Lain-lain\EWS-Bascorro\00000000000000000000000000\Mega2560 - 2019\New folder (2)\List\l.asm(1079): warning: Register r5 already defined by the .DEF directive
F:\Lain-lain\EWS-Bascorro\00000000000000000000000000\Mega2560 - 2019\New folder (2)\List\l.asm(1080): warning: Register r7 already defined by the .DEF directive
F:\Lain-lain\EWS-Bascorro\00000000000000000000000000\Mega2560 - 2019\New folder (2)\List\l.asm(1081): warning: Register r9 already defined by the .DEF directive
F:\Lain-lain\EWS-Bascorro\00000000000000000000000000\Mega2560 - 2019\New folder (2)\List\l.asm(1082): warning: Register r11 already defined by the .DEF directive
F:\Lain-lain\EWS-Bascorro\00000000000000000000000000\Mega2560 - 2019\New folder (2)\List\l.asm(1083): warning: Register r13 already defined by the .DEF directive
F:\Lain-lain\EWS-Bascorro\00000000000000000000000000\Mega2560 - 2019\New folder (2)\List\l.asm(1084): warning: Register r3 already defined by the .DEF directive
                 
                 
                 ;CodeVisionAVR C Compiler V2.05.3 Standard
                 ;(C) Copyright 1998-2011 Pavel Haiduc, HP InfoTech s.r.l.
                 ;http://www.hpinfotech.com
                 
                 ;Chip type                : ATmega2560
                 ;Program type             : Application
                 ;Clock frequency          : 16.000000 MHz
                 ;Memory model             : Small
                 ;Optimize for             : Size
                 ;(s)printf features       : float, width, precision
                 ;(s)scanf features        : int, width
                 ;External RAM size        : 0
                 ;Data Stack size          : 2048 byte(s)
                 ;Heap size                : 0 byte(s)
                 ;Promote 'char' to 'int'  : Yes
                 ;'char' is unsigned       : Yes
                 ;8 bit enums              : Yes
                 ;Global 'const' stored in FLASH     : No
                 ;Enhanced function parameter passing: Yes
                 ;Enhanced core instructions         : On
                 ;Smart register allocation          : On
                 ;Automatic register allocation      : On
                 
                 	#pragma AVRPART ADMIN PART_NAME ATmega2560
                 	#pragma AVRPART MEMORY PROG_FLASH 262144
                 	#pragma AVRPART MEMORY EEPROM 4096
                 	#pragma AVRPART MEMORY INT_SRAM SIZE 8703
                 	#pragma AVRPART MEMORY INT_SRAM START_ADDR 0x200
                 
                 	#define CALL_SUPPORTED 1
                 
                 	.LISTMAC
                 	.EQU EERE=0x0
                 	.EQU EEWE=0x1
                 	.EQU EEMWE=0x2
                 	.EQU UDRE=0x5
                 	.EQU RXC=0x7
                 	.EQU EECR=0x1F
                 	.EQU EEDR=0x20
                 	.EQU EEARL=0x21
                 	.EQU EEARH=0x22
                 	.EQU SPSR=0x2D
                 	.EQU SPDR=0x2E
                 	.EQU SMCR=0x33
                 	.EQU MCUSR=0x34
                 	.EQU MCUCR=0x35
                 	.EQU WDTCSR=0x60
                 	.EQU UCSR0A=0xC0
                 	.EQU UDR0=0xC6
                 	.EQU RAMPZ=0x3B
                 	.EQU EIND=0x3C
                 	.EQU SPL=0x3D
                 	.EQU SPH=0x3E
                 	.EQU SREG=0x3F
                 	.EQU XMCRA=0x74
                 	.EQU XMCRB=0x75
                 	.EQU GPIOR0=0x1E
                 
                 	.DEF R0X0=R0
                 	.DEF R0X1=R1
                 	.DEF R0X2=R2
                 	.DEF R0X3=R3
                 	.DEF R0X4=R4
                 	.DEF R0X5=R5
                 	.DEF R0X6=R6
                 	.DEF R0X7=R7
                 	.DEF R0X8=R8
                 	.DEF R0X9=R9
                 	.DEF R0XA=R10
                 	.DEF R0XB=R11
                 	.DEF R0XC=R12
                 	.DEF R0XD=R13
                 	.DEF R0XE=R14
                 	.DEF R0XF=R15
                 	.DEF R0X10=R16
                 	.DEF R0X11=R17
                 	.DEF R0X12=R18
                 	.DEF R0X13=R19
                 	.DEF R0X14=R20
                 	.DEF R0X15=R21
                 	.DEF R0X16=R22
                 	.DEF R0X17=R23
                 	.DEF R0X18=R24
                 	.DEF R0X19=R25
                 	.DEF R0X1A=R26
                 	.DEF R0X1B=R27
                 	.DEF R0X1C=R28
                 	.DEF R0X1D=R29
                 	.DEF R0X1E=R30
                 	.DEF R0X1F=R31
                 
                 	.EQU __SRAM_START=0x0200
                 	.EQU __SRAM_END=0x21FF
                 	.EQU __DSTACK_SIZE=0x0800
                 	.EQU __HEAP_SIZE=0x0000
                 	.EQU __CLEAR_SRAM_SIZE=__SRAM_END-__SRAM_START+1
                 
                 	.MACRO __CPD1N
                 	CPI  R30,LOW(@0)
                 	LDI  R26,HIGH(@0)
                 	CPC  R31,R26
                 	LDI  R26,BYTE3(@0)
                 	CPC  R22,R26
                 	LDI  R26,BYTE4(@0)
                 	CPC  R23,R26
                 	.ENDM
                 
                 	.MACRO __CPD2N
                 	CPI  R26,LOW(@0)
                 	LDI  R30,HIGH(@0)
                 	CPC  R27,R30
                 	LDI  R30,BYTE3(@0)
                 	CPC  R24,R30
                 	LDI  R30,BYTE4(@0)
                 	CPC  R25,R30
                 	.ENDM
                 
                 	.MACRO __CPWRR
                 	CP   R@0,R@2
                 	CPC  R@1,R@3
                 	.ENDM
                 
                 	.MACRO __CPWRN
                 	CPI  R@0,LOW(@2)
                 	LDI  R30,HIGH(@2)
                 	CPC  R@1,R30
                 	.ENDM
                 
                 	.MACRO __ADDB1MN
                 	SUBI R30,LOW(-@0-(@1))
                 	.ENDM
                 
                 	.MACRO __ADDB2MN
                 	SUBI R26,LOW(-@0-(@1))
                 	.ENDM
                 
                 	.MACRO __ADDW1MN
                 	SUBI R30,LOW(-@0-(@1))
                 	SBCI R31,HIGH(-@0-(@1))
                 	.ENDM
                 
                 	.MACRO __ADDW2MN
                 	SUBI R26,LOW(-@0-(@1))
                 	SBCI R27,HIGH(-@0-(@1))
                 	.ENDM
                 
                 	.MACRO __ADDW1FN
                 	SUBI R30,LOW(-2*@0-(@1))
                 	SBCI R31,HIGH(-2*@0-(@1))
                 	.ENDM
                 
                 	.MACRO __ADDD1FN
                 	SUBI R30,LOW(-2*@0-(@1))
                 	SBCI R31,HIGH(-2*@0-(@1))
                 	SBCI R22,BYTE3(-2*@0-(@1))
                 	.ENDM
                 
                 	.MACRO __ADDD1N
                 	SUBI R30,LOW(-@0)
                 	SBCI R31,HIGH(-@0)
                 	SBCI R22,BYTE3(-@0)
                 	SBCI R23,BYTE4(-@0)
                 	.ENDM
                 
                 	.MACRO __ADDD2N
                 	SUBI R26,LOW(-@0)
                 	SBCI R27,HIGH(-@0)
                 	SBCI R24,BYTE3(-@0)
                 	SBCI R25,BYTE4(-@0)
                 	.ENDM
                 
                 	.MACRO __SUBD1N
                 	SUBI R30,LOW(@0)
                 	SBCI R31,HIGH(@0)
                 	SBCI R22,BYTE3(@0)
                 	SBCI R23,BYTE4(@0)
                 	.ENDM
                 
                 	.MACRO __SUBD2N
                 	SUBI R26,LOW(@0)
                 	SBCI R27,HIGH(@0)
                 	SBCI R24,BYTE3(@0)
                 	SBCI R25,BYTE4(@0)
                 	.ENDM
                 
                 	.MACRO __ANDBMNN
                 	LDS  R30,@0+(@1)
                 	ANDI R30,LOW(@2)
                 	STS  @0+(@1),R30
                 	.ENDM
                 
                 	.MACRO __ANDWMNN
                 	LDS  R30,@0+(@1)
                 	ANDI R30,LOW(@2)
                 	STS  @0+(@1),R30
                 	LDS  R30,@0+(@1)+1
                 	ANDI R30,HIGH(@2)
                 	STS  @0+(@1)+1,R30
                 	.ENDM
                 
                 	.MACRO __ANDD1N
                 	ANDI R30,LOW(@0)
                 	ANDI R31,HIGH(@0)
                 	ANDI R22,BYTE3(@0)
                 	ANDI R23,BYTE4(@0)
                 	.ENDM
                 
                 	.MACRO __ANDD2N
                 	ANDI R26,LOW(@0)
                 	ANDI R27,HIGH(@0)
                 	ANDI R24,BYTE3(@0)
                 	ANDI R25,BYTE4(@0)
                 	.ENDM
                 
                 	.MACRO __ORBMNN
                 	LDS  R30,@0+(@1)
                 	ORI  R30,LOW(@2)
                 	STS  @0+(@1),R30
                 	.ENDM
                 
                 	.MACRO __ORWMNN
                 	LDS  R30,@0+(@1)
                 	ORI  R30,LOW(@2)
                 	STS  @0+(@1),R30
                 	LDS  R30,@0+(@1)+1
                 	ORI  R30,HIGH(@2)
                 	STS  @0+(@1)+1,R30
                 	.ENDM
                 
                 	.MACRO __ORD1N
                 	ORI  R30,LOW(@0)
                 	ORI  R31,HIGH(@0)
                 	ORI  R22,BYTE3(@0)
                 	ORI  R23,BYTE4(@0)
                 	.ENDM
                 
                 	.MACRO __ORD2N
                 	ORI  R26,LOW(@0)
                 	ORI  R27,HIGH(@0)
                 	ORI  R24,BYTE3(@0)
                 	ORI  R25,BYTE4(@0)
                 	.ENDM
                 
                 	.MACRO __DELAY_USB
                 	LDI  R24,LOW(@0)
                 __DELAY_USB_LOOP:
                 	DEC  R24
                 	BRNE __DELAY_USB_LOOP
                 	.ENDM
                 
                 	.MACRO __DELAY_USW
                 	LDI  R24,LOW(@0)
                 	LDI  R25,HIGH(@0)
                 __DELAY_USW_LOOP:
                 	SBIW R24,1
                 	BRNE __DELAY_USW_LOOP
                 	.ENDM
                 
                 	.MACRO __GETD1S
                 	LDD  R30,Y+@0
                 	LDD  R31,Y+@0+1
                 	LDD  R22,Y+@0+2
                 	LDD  R23,Y+@0+3
                 	.ENDM
                 
                 	.MACRO __GETD2S
                 	LDD  R26,Y+@0
                 	LDD  R27,Y+@0+1
                 	LDD  R24,Y+@0+2
                 	LDD  R25,Y+@0+3
                 	.ENDM
                 
                 	.MACRO __PUTD1S
                 	STD  Y+@0,R30
                 	STD  Y+@0+1,R31
                 	STD  Y+@0+2,R22
                 	STD  Y+@0+3,R23
                 	.ENDM
                 
                 	.MACRO __PUTD2S
                 	STD  Y+@0,R26
                 	STD  Y+@0+1,R27
                 	STD  Y+@0+2,R24
                 	STD  Y+@0+3,R25
                 	.ENDM
                 
                 	.MACRO __PUTDZ2
                 	STD  Z+@0,R26
                 	STD  Z+@0+1,R27
                 	STD  Z+@0+2,R24
                 	STD  Z+@0+3,R25
                 	.ENDM
                 
                 	.MACRO __CLRD1S
                 	STD  Y+@0,R30
                 	STD  Y+@0+1,R30
                 	STD  Y+@0+2,R30
                 	STD  Y+@0+3,R30
                 	.ENDM
                 
                 	.MACRO __POINTB1MN
                 	LDI  R30,LOW(@0+(@1))
                 	.ENDM
                 
                 	.MACRO __POINTW1MN
                 	LDI  R30,LOW(@0+(@1))
                 	LDI  R31,HIGH(@0+(@1))
                 	.ENDM
                 
                 	.MACRO __POINTD1M
                 	LDI  R30,LOW(@0)
                 	LDI  R31,HIGH(@0)
                 	LDI  R22,BYTE3(@0)
                 	LDI  R23,BYTE4(@0)
                 	.ENDM
                 
                 	.MACRO __POINTW1FN
                 	LDI  R30,LOW(2*@0+(@1))
                 	LDI  R31,HIGH(2*@0+(@1))
                 	.ENDM
                 
                 	.MACRO __POINTD1FN
                 	LDI  R30,LOW(2*@0+(@1))
                 	LDI  R31,HIGH(2*@0+(@1))
                 	LDI  R22,BYTE3(2*@0+(@1))
                 	LDI  R23,BYTE4(2*@0+(@1))
                 	.ENDM
                 
                 	.MACRO __POINTB2MN
                 	LDI  R26,LOW(@0+(@1))
                 	.ENDM
                 
                 	.MACRO __POINTW2MN
                 	LDI  R26,LOW(@0+(@1))
                 	LDI  R27,HIGH(@0+(@1))
                 	.ENDM
                 
                 	.MACRO __POINTW2FN
                 	LDI  R26,LOW(2*@0+(@1))
                 	LDI  R27,HIGH(2*@0+(@1))
                 	.ENDM
                 
                 	.MACRO __POINTD2FN
                 	LDI  R26,LOW(2*@0+(@1))
                 	LDI  R27,HIGH(2*@0+(@1))
                 	LDI  R24,BYTE3(2*@0+(@1))
                 	LDI  R25,BYTE4(2*@0+(@1))
                 	.ENDM
                 
                 	.MACRO __POINTBRM
                 	LDI  R@0,LOW(@1)
                 	.ENDM
                 
                 	.MACRO __POINTWRM
                 	LDI  R@0,LOW(@2)
                 	LDI  R@1,HIGH(@2)
                 	.ENDM
                 
                 	.MACRO __POINTBRMN
                 	LDI  R@0,LOW(@1+(@2))
                 	.ENDM
                 
                 	.MACRO __POINTWRMN
                 	LDI  R@0,LOW(@2+(@3))
                 	LDI  R@1,HIGH(@2+(@3))
                 	.ENDM
                 
                 	.MACRO __POINTWRFN
                 	LDI  R@0,LOW(@2*2+(@3))
                 	LDI  R@1,HIGH(@2*2+(@3))
                 	.ENDM
                 
                 	.MACRO __GETD1N
                 	LDI  R30,LOW(@0)
                 	LDI  R31,HIGH(@0)
                 	LDI  R22,BYTE3(@0)
                 	LDI  R23,BYTE4(@0)
                 	.ENDM
                 
                 	.MACRO __GETD2N
                 	LDI  R26,LOW(@0)
                 	LDI  R27,HIGH(@0)
                 	LDI  R24,BYTE3(@0)
                 	LDI  R25,BYTE4(@0)
                 	.ENDM
                 
                 	.MACRO __GETB1MN
                 	LDS  R30,@0+(@1)
                 	.ENDM
                 
                 	.MACRO __GETB1HMN
                 	LDS  R31,@0+(@1)
                 	.ENDM
                 
                 	.MACRO __GETW1MN
                 	LDS  R30,@0+(@1)
                 	LDS  R31,@0+(@1)+1
                 	.ENDM
                 
                 	.MACRO __GETD1MN
                 	LDS  R30,@0+(@1)
                 	LDS  R31,@0+(@1)+1
                 	LDS  R22,@0+(@1)+2
                 	LDS  R23,@0+(@1)+3
                 	.ENDM
                 
                 	.MACRO __GETBRMN
                 	LDS  R@0,@1+(@2)
                 	.ENDM
                 
                 	.MACRO __GETWRMN
                 	LDS  R@0,@2+(@3)
                 	LDS  R@1,@2+(@3)+1
                 	.ENDM
                 
                 	.MACRO __GETWRZ
                 	LDD  R@0,Z+@2
                 	LDD  R@1,Z+@2+1
                 	.ENDM
                 
                 	.MACRO __GETD2Z
                 	LDD  R26,Z+@0
                 	LDD  R27,Z+@0+1
                 	LDD  R24,Z+@0+2
                 	LDD  R25,Z+@0+3
                 	.ENDM
                 
                 	.MACRO __GETB2MN
                 	LDS  R26,@0+(@1)
                 	.ENDM
                 
                 	.MACRO __GETW2MN
                 	LDS  R26,@0+(@1)
                 	LDS  R27,@0+(@1)+1
                 	.ENDM
                 
                 	.MACRO __GETD2MN
                 	LDS  R26,@0+(@1)
                 	LDS  R27,@0+(@1)+1
                 	LDS  R24,@0+(@1)+2
                 	LDS  R25,@0+(@1)+3
                 	.ENDM
                 
                 	.MACRO __PUTB1MN
                 	STS  @0+(@1),R30
                 	.ENDM
                 
                 	.MACRO __PUTW1MN
                 	STS  @0+(@1),R30
                 	STS  @0+(@1)+1,R31
                 	.ENDM
                 
                 	.MACRO __PUTD1MN
                 	STS  @0+(@1),R30
                 	STS  @0+(@1)+1,R31
                 	STS  @0+(@1)+2,R22
                 	STS  @0+(@1)+3,R23
                 	.ENDM
                 
                 	.MACRO __PUTB1EN
                 	LDI  R26,LOW(@0+(@1))
                 	LDI  R27,HIGH(@0+(@1))
                 	CALL __EEPROMWRB
                 	.ENDM
                 
                 	.MACRO __PUTW1EN
                 	LDI  R26,LOW(@0+(@1))
                 	LDI  R27,HIGH(@0+(@1))
                 	CALL __EEPROMWRW
                 	.ENDM
                 
                 	.MACRO __PUTD1EN
                 	LDI  R26,LOW(@0+(@1))
                 	LDI  R27,HIGH(@0+(@1))
                 	CALL __EEPROMWRD
                 	.ENDM
                 
                 	.MACRO __PUTBR0MN
                 	STS  @0+(@1),R0
                 	.ENDM
                 
                 	.MACRO __PUTBMRN
                 	STS  @0+(@1),R@2
                 	.ENDM
                 
                 	.MACRO __PUTWMRN
                 	STS  @0+(@1),R@2
                 	STS  @0+(@1)+1,R@3
                 	.ENDM
                 
                 	.MACRO __PUTBZR
                 	STD  Z+@1,R@0
                 	.ENDM
                 
                 	.MACRO __PUTWZR
                 	STD  Z+@2,R@0
                 	STD  Z+@2+1,R@1
                 	.ENDM
                 
                 	.MACRO __GETW1R
                 	MOV  R30,R@0
                 	MOV  R31,R@1
                 	.ENDM
                 
                 	.MACRO __GETW2R
                 	MOV  R26,R@0
                 	MOV  R27,R@1
                 	.ENDM
                 
                 	.MACRO __GETWRN
                 	LDI  R@0,LOW(@2)
                 	LDI  R@1,HIGH(@2)
                 	.ENDM
                 
                 	.MACRO __PUTW1R
                 	MOV  R@0,R30
                 	MOV  R@1,R31
                 	.ENDM
                 
                 	.MACRO __PUTW2R
                 	MOV  R@0,R26
                 	MOV  R@1,R27
                 	.ENDM
                 
                 	.MACRO __ADDWRN
                 	SUBI R@0,LOW(-@2)
                 	SBCI R@1,HIGH(-@2)
                 	.ENDM
                 
                 	.MACRO __ADDWRR
                 	ADD  R@0,R@2
                 	ADC  R@1,R@3
                 	.ENDM
                 
                 	.MACRO __SUBWRN
                 	SUBI R@0,LOW(@2)
                 	SBCI R@1,HIGH(@2)
                 	.ENDM
                 
                 	.MACRO __SUBWRR
                 	SUB  R@0,R@2
                 	SBC  R@1,R@3
                 	.ENDM
                 
                 	.MACRO __ANDWRN
                 	ANDI R@0,LOW(@2)
                 	ANDI R@1,HIGH(@2)
                 	.ENDM
                 
                 	.MACRO __ANDWRR
                 	AND  R@0,R@2
                 	AND  R@1,R@3
                 	.ENDM
                 
                 	.MACRO __ORWRN
                 	ORI  R@0,LOW(@2)
                 	ORI  R@1,HIGH(@2)
                 	.ENDM
                 
                 	.MACRO __ORWRR
                 	OR   R@0,R@2
                 	OR   R@1,R@3
                 	.ENDM
                 
                 	.MACRO __EORWRR
                 	EOR  R@0,R@2
                 	EOR  R@1,R@3
                 	.ENDM
                 
                 	.MACRO __GETWRS
                 	LDD  R@0,Y+@2
                 	LDD  R@1,Y+@2+1
                 	.ENDM
                 
                 	.MACRO __PUTBSR
                 	STD  Y+@1,R@0
                 	.ENDM
                 
                 	.MACRO __PUTWSR
                 	STD  Y+@2,R@0
                 	STD  Y+@2+1,R@1
                 	.ENDM
                 
                 	.MACRO __MOVEWRR
                 	MOV  R@0,R@2
                 	MOV  R@1,R@3
                 	.ENDM
                 
                 	.MACRO __INWR
                 	IN   R@0,@2
                 	IN   R@1,@2+1
                 	.ENDM
                 
                 	.MACRO __OUTWR
                 	OUT  @2+1,R@1
                 	OUT  @2,R@0
                 	.ENDM
                 
                 	.MACRO __CALL1MN
                 	LDS  R30,@0+(@1)
                 	LDS  R31,@0+(@1)+1
                 	ICALL
                 	.ENDM
                 
                 	.MACRO __CALL1FN
                 	LDI  R30,LOW(2*@0+(@1))
                 	LDI  R31,HIGH(2*@0+(@1))
                 	CALL __GETW1PF
                 	ICALL
                 	.ENDM
                 
                 	.MACRO __CALL2EN
                 	LDI  R26,LOW(@0+(@1))
                 	LDI  R27,HIGH(@0+(@1))
                 	CALL __EEPROMRDW
                 	ICALL
                 	.ENDM
                 
                 	.MACRO __GETW1STACK
                 	IN   R26,SPL
                 	IN   R27,SPH
                 	ADIW R26,@0+1
                 	LD   R30,X+
                 	LD   R31,X
                 	.ENDM
                 
                 	.MACRO __GETD1STACK
                 	IN   R26,SPL
                 	IN   R27,SPH
                 	ADIW R26,@0+1
                 	LD   R30,X+
                 	LD   R31,X+
                 	LD   R22,X
                 	.ENDM
                 
                 	.MACRO __NBST
                 	BST  R@0,@1
                 	IN   R30,SREG
                 	LDI  R31,0x40
                 	EOR  R30,R31
                 	OUT  SREG,R30
                 	.ENDM
                 
                 
                 	.MACRO __PUTB1SN
                 	LDD  R26,Y+@0
                 	LDD  R27,Y+@0+1
                 	SUBI R26,LOW(-@1)
                 	SBCI R27,HIGH(-@1)
                 	ST   X,R30
                 	.ENDM
                 
                 	.MACRO __PUTW1SN
                 	LDD  R26,Y+@0
                 	LDD  R27,Y+@0+1
                 	SUBI R26,LOW(-@1)
                 	SBCI R27,HIGH(-@1)
                 	ST   X+,R30
                 	ST   X,R31
                 	.ENDM
                 
                 	.MACRO __PUTD1SN
                 	LDD  R26,Y+@0
                 	LDD  R27,Y+@0+1
                 	SUBI R26,LOW(-@1)
                 	SBCI R27,HIGH(-@1)
                 	CALL __PUTDP1
                 	.ENDM
                 
                 	.MACRO __PUTB1SNS
                 	LDD  R26,Y+@0
                 	LDD  R27,Y+@0+1
                 	ADIW R26,@1
                 	ST   X,R30
                 	.ENDM
                 
                 	.MACRO __PUTW1SNS
                 	LDD  R26,Y+@0
                 	LDD  R27,Y+@0+1
                 	ADIW R26,@1
                 	ST   X+,R30
                 	ST   X,R31
                 	.ENDM
                 
                 	.MACRO __PUTD1SNS
                 	LDD  R26,Y+@0
                 	LDD  R27,Y+@0+1
                 	ADIW R26,@1
                 	CALL __PUTDP1
                 	.ENDM
                 
                 	.MACRO __PUTB1PMN
                 	LDS  R26,@0
                 	LDS  R27,@0+1
                 	SUBI R26,LOW(-@1)
                 	SBCI R27,HIGH(-@1)
                 	ST   X,R30
                 	.ENDM
                 
                 	.MACRO __PUTW1PMN
                 	LDS  R26,@0
                 	LDS  R27,@0+1
                 	SUBI R26,LOW(-@1)
                 	SBCI R27,HIGH(-@1)
                 	ST   X+,R30
                 	ST   X,R31
                 	.ENDM
                 
                 	.MACRO __PUTD1PMN
                 	LDS  R26,@0
                 	LDS  R27,@0+1
                 	SUBI R26,LOW(-@1)
                 	SBCI R27,HIGH(-@1)
                 	CALL __PUTDP1
                 	.ENDM
                 
                 	.MACRO __PUTB1PMNS
                 	LDS  R26,@0
                 	LDS  R27,@0+1
                 	ADIW R26,@1
                 	ST   X,R30
                 	.ENDM
                 
                 	.MACRO __PUTW1PMNS
                 	LDS  R26,@0
                 	LDS  R27,@0+1
                 	ADIW R26,@1
                 	ST   X+,R30
                 	ST   X,R31
                 	.ENDM
                 
                 	.MACRO __PUTD1PMNS
                 	LDS  R26,@0
                 	LDS  R27,@0+1
                 	ADIW R26,@1
                 	CALL __PUTDP1
                 	.ENDM
                 
                 	.MACRO __PUTB1RN
                 	MOVW R26,R@0
                 	SUBI R26,LOW(-@1)
                 	SBCI R27,HIGH(-@1)
                 	ST   X,R30
                 	.ENDM
                 
                 	.MACRO __PUTW1RN
                 	MOVW R26,R@0
                 	SUBI R26,LOW(-@1)
                 	SBCI R27,HIGH(-@1)
                 	ST   X+,R30
                 	ST   X,R31
                 	.ENDM
                 
                 	.MACRO __PUTD1RN
                 	MOVW R26,R@0
                 	SUBI R26,LOW(-@1)
                 	SBCI R27,HIGH(-@1)
                 	CALL __PUTDP1
                 	.ENDM
                 
                 	.MACRO __PUTB1RNS
                 	MOVW R26,R@0
                 	ADIW R26,@1
                 	ST   X,R30
                 	.ENDM
                 
                 	.MACRO __PUTW1RNS
                 	MOVW R26,R@0
                 	ADIW R26,@1
                 	ST   X+,R30
                 	ST   X,R31
                 	.ENDM
                 
                 	.MACRO __PUTD1RNS
                 	MOVW R26,R@0
                 	ADIW R26,@1
                 	CALL __PUTDP1
                 	.ENDM
                 
                 	.MACRO __PUTB1RON
                 	MOV  R26,R@0
                 	MOV  R27,R@1
                 	SUBI R26,LOW(-@2)
                 	SBCI R27,HIGH(-@2)
                 	ST   X,R30
                 	.ENDM
                 
                 	.MACRO __PUTW1RON
                 	MOV  R26,R@0
                 	MOV  R27,R@1
                 	SUBI R26,LOW(-@2)
                 	SBCI R27,HIGH(-@2)
                 	ST   X+,R30
                 	ST   X,R31
                 	.ENDM
                 
                 	.MACRO __PUTD1RON
                 	MOV  R26,R@0
                 	MOV  R27,R@1
                 	SUBI R26,LOW(-@2)
                 	SBCI R27,HIGH(-@2)
                 	CALL __PUTDP1
                 	.ENDM
                 
                 	.MACRO __PUTB1RONS
                 	MOV  R26,R@0
                 	MOV  R27,R@1
                 	ADIW R26,@2
                 	ST   X,R30
                 	.ENDM
                 
                 	.MACRO __PUTW1RONS
                 	MOV  R26,R@0
                 	MOV  R27,R@1
                 	ADIW R26,@2
                 	ST   X+,R30
                 	ST   X,R31
                 	.ENDM
                 
                 	.MACRO __PUTD1RONS
                 	MOV  R26,R@0
                 	MOV  R27,R@1
                 	ADIW R26,@2
                 	CALL __PUTDP1
                 	.ENDM
                 
                 
                 	.MACRO __GETB1SX
                 	MOVW R30,R28
                 	SUBI R30,LOW(-@0)
                 	SBCI R31,HIGH(-@0)
                 	LD   R30,Z
                 	.ENDM
                 
                 	.MACRO __GETB1HSX
                 	MOVW R30,R28
                 	SUBI R30,LOW(-@0)
                 	SBCI R31,HIGH(-@0)
                 	LD   R31,Z
                 	.ENDM
                 
                 	.MACRO __GETW1SX
                 	MOVW R30,R28
                 	SUBI R30,LOW(-@0)
                 	SBCI R31,HIGH(-@0)
                 	LD   R0,Z+
                 	LD   R31,Z
                 	MOV  R30,R0
                 	.ENDM
                 
                 	.MACRO __GETD1SX
                 	MOVW R30,R28
                 	SUBI R30,LOW(-@0)
                 	SBCI R31,HIGH(-@0)
                 	LD   R0,Z+
                 	LD   R1,Z+
                 	LD   R22,Z+
                 	LD   R23,Z
                 	MOVW R30,R0
                 	.ENDM
                 
                 	.MACRO __GETB2SX
                 	MOVW R26,R28
                 	SUBI R26,LOW(-@0)
                 	SBCI R27,HIGH(-@0)
                 	LD   R26,X
                 	.ENDM
                 
                 	.MACRO __GETW2SX
                 	MOVW R26,R28
                 	SUBI R26,LOW(-@0)
                 	SBCI R27,HIGH(-@0)
                 	LD   R0,X+
                 	LD   R27,X
                 	MOV  R26,R0
                 	.ENDM
                 
                 	.MACRO __GETD2SX
                 	MOVW R26,R28
                 	SUBI R26,LOW(-@0)
                 	SBCI R27,HIGH(-@0)
                 	LD   R0,X+
                 	LD   R1,X+
                 	LD   R24,X+
                 	LD   R25,X
                 	MOVW R26,R0
                 	.ENDM
                 
                 	.MACRO __GETBRSX
                 	MOVW R30,R28
                 	SUBI R30,LOW(-@1)
                 	SBCI R31,HIGH(-@1)
                 	LD   R@0,Z
                 	.ENDM
                 
                 	.MACRO __GETWRSX
                 	MOVW R30,R28
                 	SUBI R30,LOW(-@2)
                 	SBCI R31,HIGH(-@2)
                 	LD   R@0,Z+
                 	LD   R@1,Z
                 	.ENDM
                 
                 	.MACRO __GETBRSX2
                 	MOVW R26,R28
                 	SUBI R26,LOW(-@1)
                 	SBCI R27,HIGH(-@1)
                 	LD   R@0,X
                 	.ENDM
                 
                 	.MACRO __GETWRSX2
                 	MOVW R26,R28
                 	SUBI R26,LOW(-@2)
                 	SBCI R27,HIGH(-@2)
                 	LD   R@0,X+
                 	LD   R@1,X
                 	.ENDM
                 
                 	.MACRO __LSLW8SX
                 	MOVW R30,R28
                 	SUBI R30,LOW(-@0)
                 	SBCI R31,HIGH(-@0)
                 	LD   R31,Z
                 	CLR  R30
                 	.ENDM
                 
                 	.MACRO __PUTB1SX
                 	MOVW R26,R28
                 	SUBI R26,LOW(-@0)
                 	SBCI R27,HIGH(-@0)
                 	ST   X,R30
                 	.ENDM
                 
                 	.MACRO __PUTW1SX
                 	MOVW R26,R28
                 	SUBI R26,LOW(-@0)
                 	SBCI R27,HIGH(-@0)
                 	ST   X+,R30
                 	ST   X,R31
                 	.ENDM
                 
                 	.MACRO __PUTD1SX
                 	MOVW R26,R28
                 	SUBI R26,LOW(-@0)
                 	SBCI R27,HIGH(-@0)
                 	ST   X+,R30
                 	ST   X+,R31
                 	ST   X+,R22
                 	ST   X,R23
                 	.ENDM
                 
                 	.MACRO __CLRW1SX
                 	MOVW R26,R28
                 	SUBI R26,LOW(-@0)
                 	SBCI R27,HIGH(-@0)
                 	ST   X+,R30
                 	ST   X,R30
                 	.ENDM
                 
                 	.MACRO __CLRD1SX
                 	MOVW R26,R28
                 	SUBI R26,LOW(-@0)
                 	SBCI R27,HIGH(-@0)
                 	ST   X+,R30
                 	ST   X+,R30
                 	ST   X+,R30
                 	ST   X,R30
                 	.ENDM
                 
                 	.MACRO __PUTB2SX
                 	MOVW R30,R28
                 	SUBI R30,LOW(-@0)
                 	SBCI R31,HIGH(-@0)
                 	ST   Z,R26
                 	.ENDM
                 
                 	.MACRO __PUTW2SX
                 	MOVW R30,R28
                 	SUBI R30,LOW(-@0)
                 	SBCI R31,HIGH(-@0)
                 	ST   Z+,R26
                 	ST   Z,R27
                 	.ENDM
                 
                 	.MACRO __PUTD2SX
                 	MOVW R30,R28
                 	SUBI R30,LOW(-@0)
                 	SBCI R31,HIGH(-@0)
                 	ST   Z+,R26
                 	ST   Z+,R27
                 	ST   Z+,R24
                 	ST   Z,R25
                 	.ENDM
                 
                 	.MACRO __PUTBSRX
                 	MOVW R30,R28
                 	SUBI R30,LOW(-@1)
                 	SBCI R31,HIGH(-@1)
                 	ST   Z,R@0
                 	.ENDM
                 
                 	.MACRO __PUTWSRX
                 	MOVW R30,R28
                 	SUBI R30,LOW(-@2)
                 	SBCI R31,HIGH(-@2)
                 	ST   Z+,R@0
                 	ST   Z,R@1
                 	.ENDM
                 
                 	.MACRO __PUTB1SNX
                 	MOVW R26,R28
                 	SUBI R26,LOW(-@0)
                 	SBCI R27,HIGH(-@0)
                 	LD   R0,X+
                 	LD   R27,X
                 	MOV  R26,R0
                 	SUBI R26,LOW(-@1)
                 	SBCI R27,HIGH(-@1)
                 	ST   X,R30
                 	.ENDM
                 
                 	.MACRO __PUTW1SNX
                 	MOVW R26,R28
                 	SUBI R26,LOW(-@0)
                 	SBCI R27,HIGH(-@0)
                 	LD   R0,X+
                 	LD   R27,X
                 	MOV  R26,R0
                 	SUBI R26,LOW(-@1)
                 	SBCI R27,HIGH(-@1)
                 	ST   X+,R30
                 	ST   X,R31
                 	.ENDM
                 
                 	.MACRO __PUTD1SNX
                 	MOVW R26,R28
                 	SUBI R26,LOW(-@0)
                 	SBCI R27,HIGH(-@0)
                 	LD   R0,X+
                 	LD   R27,X
                 	MOV  R26,R0
                 	SUBI R26,LOW(-@1)
                 	SBCI R27,HIGH(-@1)
                 	ST   X+,R30
                 	ST   X+,R31
                 	ST   X+,R22
                 	ST   X,R23
                 	.ENDM
                 
                 	.MACRO __MULBRR
                 	MULS R@0,R@1
                 	MOVW R30,R0
                 	.ENDM
                 
                 	.MACRO __MULBRRU
                 	MUL  R@0,R@1
                 	MOVW R30,R0
                 	.ENDM
                 
                 	.MACRO __MULBRR0
                 	MULS R@0,R@1
                 	.ENDM
                 
                 	.MACRO __MULBRRU0
                 	MUL  R@0,R@1
                 	.ENDM
                 
                 	.MACRO __MULBNWRU
                 	LDI  R26,@2
                 	MUL  R26,R@0
                 	MOVW R30,R0
                 	MUL  R26,R@1
                 	ADD  R31,R0
                 	.ENDM
                 
                 ;NAME DEFINITIONS FOR GLOBAL VARIABLES ALLOCATED TO REGISTERS
                 	.DEF _countRxProtokol=R4
                 	.DEF _robot=R5
                 	.DEF _delay=R7
                 	.DEF _tango=R9
                 	.DEF _tangi=R11
                 	.DEF _countTick=R13
                 	.DEF _Timeslot=R3
                 
                 ;GPIOR0 INITIALIZATION VALUE
                 	.EQU __GPIOR0_INIT=0x00
                 
                 	.CSEG
                 	.ORG 0x00
                 
                 ;START OF CODE MARKER
                 __START_OF_CODE:
                 
                 ;INTERRUPT VECTORS
000000 940c 0189 	JMP  __RESET
000002 940c 0000 	JMP  0x00
000004 940c 0000 	JMP  0x00
000006 940c 0000 	JMP  0x00
000008 940c 030b 	JMP  _ext_int3_isr
00000a 940c 0000 	JMP  0x00
00000c 940c 0000 	JMP  0x00
00000e 940c 0000 	JMP  0x00
000010 940c 0000 	JMP  0x00
000012 940c 0000 	JMP  0x00
000014 940c 0000 	JMP  0x00
000016 940c 0000 	JMP  0x00
000018 940c 0000 	JMP  0x00
00001a 940c 0000 	JMP  0x00
00001c 940c 0000 	JMP  0x00
00001e 940c 01c7 	JMP  _timer2_ovf_isr
000020 940c 0000 	JMP  0x00
000022 940c 05cc 	JMP  _timer1_compa_isr
000024 940c 0604 	JMP  _timer1_compb_isr
000026 940c 0000 	JMP  0x00
000028 940c 0474 	JMP  _timer1_ovf_isr
00002a 940c 0000 	JMP  0x00
00002c 940c 0000 	JMP  0x00
00002e 940c 0000 	JMP  0x00
000030 940c 0000 	JMP  0x00
000032 940c 031c 	JMP  _usart0_rx_isr
000034 940c 0000 	JMP  0x00
000036 940c 0000 	JMP  0x00
000038 940c 0000 	JMP  0x00
00003a 940c 0000 	JMP  0x00
00003c 940c 0000 	JMP  0x00
00003e 940c 0000 	JMP  0x00
000040 940c 0752 	JMP  _timer3_compa_isr
000042 940c 076f 	JMP  _timer3_compb_isr
000044 940c 0000 	JMP  0x00
000046 940c 062e 	JMP  _timer3_ovf_isr
000048 940c 0000 	JMP  0x00
00004a 940c 0000 	JMP  0x00
00004c 940c 0000 	JMP  0x00
00004e 940c 0000 	JMP  0x00
000050 940c 0000 	JMP  0x00
000052 940c 0000 	JMP  0x00
000054 940c 0000 	JMP  0x00
000056 940c 0000 	JMP  0x00
000058 940c 0000 	JMP  0x00
00005a 940c 0000 	JMP  0x00
00005c 940c 0000 	JMP  0x00
00005e 940c 0000 	JMP  0x00
000060 940c 0000 	JMP  0x00
000062 940c 0000 	JMP  0x00
000064 940c 0000 	JMP  0x00
000066 940c 031d 	JMP  _usart2_rx_isr
000068 940c 0000 	JMP  0x00
00006a 940c 0000 	JMP  0x00
00006c 940c 0375 	JMP  _usart3_rx_isr
00006e 940c 0000 	JMP  0x00
000070 940c 0000 	JMP  0x00
                 
                 _0x3:
000072 05dc
000073 05dc
000074 05dc
000075 05dc      	.DB  0xDC,0x5,0xDC,0x5,0xDC,0x5,0xDC,0x5
000076 05dc
000077 05dc
000078 05dc
000079 05dc      	.DB  0xDC,0x5,0xDC,0x5,0xDC,0x5,0xDC,0x5
00007a 05dc
00007b 05dc
00007c 05dc
00007d 05dc      	.DB  0xDC,0x5,0xDC,0x5,0xDC,0x5,0xDC,0x5
00007e 05dc
00007f 05dc
000080 05dc
000081 05dc      	.DB  0xDC,0x5,0xDC,0x5,0xDC,0x5,0xDC,0x5
000082 05dc
000083 05dc
000084 05dc
000085 05dc      	.DB  0xDC,0x5,0xDC,0x5,0xDC,0x5,0xDC,0x5
                 _0x4:
000086 05dc
000087 05dc
000088 05dc
000089 05dc      	.DB  0xDC,0x5,0xDC,0x5,0xDC,0x5,0xDC,0x5
00008a 05dc
00008b 05dc
00008c 05dc
00008d 05dc      	.DB  0xDC,0x5,0xDC,0x5,0xDC,0x5,0xDC,0x5
00008e 05dc
00008f 05dc
000090 05dc
000091 05dc      	.DB  0xDC,0x5,0xDC,0x5,0xDC,0x5,0xDC,0x5
000092 05dc
000093 05dc
000094 05dc
000095 05dc      	.DB  0xDC,0x5,0xDC,0x5,0xDC,0x5,0xDC,0x5
000096 05dc
000097 05dc
000098 05dc
000099 05dc      	.DB  0xDC,0x5,0xDC,0x5,0xDC,0x5,0xDC,0x5
                 _0x5:
F:\Lain-lain\EWS-Bascorro\00000000000000000000000000\Mega2560 - 2019\New folder (2)\List\l.asm(1167): warning: .cseg .db misalignment - padding zero byte
00009a 0001      	.DB  0x1
                 _0x6:
00009b 03e8      	.DB  0xE8,0x3
                 _0x7:
00009c 0000
00009d 4344      	.DB  0x0,0x0,0x44,0x43
                 _0x8:
00009e 0000
00009f 41a8      	.DB  0x0,0x0,0xA8,0x41
                 _0x9:
0000a0 0000
0000a1 42a8      	.DB  0x0,0x0,0xA8,0x42
                 _0xA:
0000a2 0000
0000a3 42b2      	.DB  0x0,0x0,0xB2,0x42
                 _0xB:
0000a4 0000
0000a5 41a8      	.DB  0x0,0x0,0xA8,0x41
                 _0xC:
F:\Lain-lain\EWS-Bascorro\00000000000000000000000000\Mega2560 - 2019\New folder (2)\List\l.asm(1181): warning: .cseg .db misalignment - padding zero byte
0000a6 0001      	.DB  0x1
                 _0xD:
0000a7 03e8      	.DB  0xE8,0x3
                 _0xE:
0000a8 03e8      	.DB  0xE8,0x3
                 _0xF:
0000a9 0645      	.DB  0x45,0x6
                 _0x10:
0000aa 0645      	.DB  0x45,0x6
                 _0x11:
0000ab 0258      	.DB  0x58,0x2
                 _0x12:
F:\Lain-lain\EWS-Bascorro\00000000000000000000000000\Mega2560 - 2019\New folder (2)\List\l.asm(1193): warning: .cseg .db misalignment - padding zero byte
0000ac 00a0      	.DB  0xA0
                 _0x13:
F:\Lain-lain\EWS-Bascorro\00000000000000000000000000\Mega2560 - 2019\New folder (2)\List\l.asm(1195): warning: .cseg .db misalignment - padding zero byte
0000ad 0078      	.DB  0x78
                 _0x28D:
F:\Lain-lain\EWS-Bascorro\00000000000000000000000000\Mega2560 - 2019\New folder (2)\List\l.asm(1197): warning: .cseg .db misalignment - padding zero byte
0000ae 0000      	.DB  0x0
                 _0x0:
0000af 6152
0000b0 7073
0000b1 2069
0000b2 2059      	.DB  0x52,0x61,0x73,0x70,0x69,0x20,0x59,0x20
0000b3 2520
0000b4 0d64
0000b5 000a
0000b6 6970      	.DB  0x20,0x25,0x64,0xD,0xA,0x0,0x70,0x69
0000b7 2064
0000b8 6573
0000b9 7672
0000ba 0d6f      	.DB  0x64,0x20,0x73,0x65,0x72,0x76,0x6F,0xD
0000bb 000a
0000bc 6d41
0000bd 7262
0000be 6b75      	.DB  0xA,0x0,0x41,0x6D,0x62,0x72,0x75,0x6B
0000bf 6420
0000c0 7065
0000c1 6e61
0000c2 2020      	.DB  0x20,0x64,0x65,0x70,0x61,0x6E,0x20,0x20
0000c3 6425
0000c4 0a0d
0000c5 4100
0000c6 626d      	.DB  0x25,0x64,0xD,0xA,0x0,0x41,0x6D,0x62
0000c7 7572
0000c8 206b
0000c9 6562
0000ca 616c      	.DB  0x72,0x75,0x6B,0x20,0x62,0x65,0x6C,0x61
0000cb 616b
0000cc 676e
0000cd 2020
0000ce 6425      	.DB  0x6B,0x61,0x6E,0x67,0x20,0x20,0x25,0x64
0000cf 0a0d
0000d0 6300
0000d1 6b65
0000d2 4120      	.DB  0xD,0xA,0x0,0x63,0x65,0x6B,0x20,0x41
0000d3 626d
0000d4 7572
0000d5 206b
0000d6 6564      	.DB  0x6D,0x62,0x72,0x75,0x6B,0x20,0x64,0x65
0000d7 6170
0000d8 206e
0000d9 6425
0000da 0a0d      	.DB  0x70,0x61,0x6E,0x20,0x25,0x64,0xD,0xA
0000db 6300
0000dc 6b65
0000dd 4120
0000de 626d      	.DB  0x0,0x63,0x65,0x6B,0x20,0x41,0x6D,0x62
0000df 7572
0000e0 206b
0000e1 6562
0000e2 616c      	.DB  0x72,0x75,0x6B,0x20,0x62,0x65,0x6C,0x61
0000e3 616b
0000e4 676e
0000e5 2520
0000e6 0d64      	.DB  0x6B,0x61,0x6E,0x67,0x20,0x25,0x64,0xD
0000e7 000a
0000e8 7270
0000e9 736f
0000ea 7365      	.DB  0xA,0x0,0x70,0x72,0x6F,0x73,0x65,0x73
0000eb 6220
0000ec 6e61
0000ed 7567
0000ee 206e      	.DB  0x20,0x62,0x61,0x6E,0x67,0x75,0x6E,0x20
0000ef 6564
0000f0 6170
0000f1 206e
0000f2 6425      	.DB  0x64,0x65,0x70,0x61,0x6E,0x20,0x25,0x64
0000f3 0a0d
0000f4 7700
0000f5 7365
0000f6 0a0d      	.DB  0xD,0xA,0x0,0x77,0x65,0x73,0xD,0xA
0000f7 7000
0000f8 6f72
0000f9 6573
0000fa 2073      	.DB  0x0,0x70,0x72,0x6F,0x73,0x65,0x73,0x20
0000fb 6162
0000fc 676e
0000fd 6e75
0000fe 6220      	.DB  0x62,0x61,0x6E,0x67,0x75,0x6E,0x20,0x62
0000ff 6c65
000100 6b61
000101 6e61
000102 2067      	.DB  0x65,0x6C,0x61,0x6B,0x61,0x6E,0x67,0x20
000103 6425
000104 0a0d
000105 5700
000106 7365      	.DB  0x25,0x64,0xD,0xA,0x0,0x57,0x65,0x73
000107 6320
000108 6b6f
000109 0a0d
00010a 2500      	.DB  0x20,0x63,0x6F,0x6B,0xD,0xA,0x0,0x25
00010b 2064
00010c 6573
00010d 6f72
00010e 676e      	.DB  0x64,0x20,0x73,0x65,0x72,0x6F,0x6E,0x67
00010f 6b20
000110 7269
000111 2069
000112 6f62      	.DB  0x20,0x6B,0x69,0x72,0x69,0x20,0x62,0x6F
000113 0d73
000114 000a
000115 6425
000116 6d20      	.DB  0x73,0xD,0xA,0x0,0x25,0x64,0x20,0x6D
000117 6a61
000118 2075
000119 616a
00011a 616c      	.DB  0x61,0x6A,0x75,0x20,0x6A,0x61,0x6C,0x61
00011b 0d6e
00011c 000a
00011d 6425
00011e 7320      	.DB  0x6E,0xD,0xA,0x0,0x25,0x64,0x20,0x73
00011f 7265
000120 6e6f
000121 2067
000122 616b      	.DB  0x65,0x72,0x6F,0x6E,0x67,0x20,0x6B,0x61
000123 616e
000124 0d6e
000125 000a
000126 6163      	.DB  0x6E,0x61,0x6E,0xD,0xA,0x0,0x63,0x61
000127 6972
000128 6220
000129 6c6f
00012a 2061      	.DB  0x72,0x69,0x20,0x62,0x6F,0x6C,0x61,0x20
00012b 6425
00012c 2520
00012d 2064
00012e 3d3d      	.DB  0x25,0x64,0x20,0x25,0x64,0x20,0x3D,0x3D
00012f 2520
000130 2064
000131 0a0d
000132 6300      	.DB  0x20,0x25,0x64,0x20,0xD,0xA,0x0,0x63
000133 7261
000134 2069
000135 6f62
000136 616c      	.DB  0x61,0x72,0x69,0x20,0x62,0x6F,0x6C,0x61
000137 2520
000138 2064
000139 6425
00013a 3d20      	.DB  0x20,0x25,0x64,0x20,0x25,0x64,0x20,0x3D
00013b 203d
00013c 6425
00013d 0a0d
00013e 4100      	.DB  0x3D,0x20,0x25,0x64,0xD,0xA,0x0,0x41
00013f 756b
000140 4e20
000141 6167
000142 7577      	.DB  0x6B,0x75,0x20,0x4E,0x67,0x61,0x77,0x75
000143 2072
000144 6425
000145 2d20
000146 2520      	.DB  0x72,0x20,0x25,0x64,0x20,0x2D,0x20,0x25
000147 0d64
000148 000a      	.DB  0x64,0xD,0xA,0x0
                 _0x2000000:
000149 4e2d
00014a 4e41
F:\Lain-lain\EWS-Bascorro\00000000000000000000000000\Mega2560 - 2019\New folder (2)\List\l.asm(1239): warning: .cseg .db misalignment - padding zero byte
00014b 0000      	.DB  0x2D,0x4E,0x41,0x4E,0x0
                 _0x2020060:
F:\Lain-lain\EWS-Bascorro\00000000000000000000000000\Mega2560 - 2019\New folder (2)\List\l.asm(1241): warning: .cseg .db misalignment - padding zero byte
00014c 0001      	.DB  0x1
                 _0x2020000:
00014d 4e2d
00014e 4e41
00014f 4900
000150 464e      	.DB  0x2D,0x4E,0x41,0x4E,0x0,0x49,0x4E,0x46
F:\Lain-lain\EWS-Bascorro\00000000000000000000000000\Mega2560 - 2019\New folder (2)\List\l.asm(1244): warning: .cseg .db misalignment - padding zero byte
000151 0000      	.DB  0x0
                 
                 __GLOBAL_INI_TBL:
000152 0028      	.DW  0x28
000153 0a28      	.DW  _servo
000154 00e4      	.DW  _0x3*2
                 
000155 0028      	.DW  0x28
000156 0a50      	.DW  _servoSet
000157 010c      	.DW  _0x4*2
                 
000158 0001      	.DW  0x01
000159 0a84      	.DW  _langkahMax
00015a 0134      	.DW  _0x5*2
                 
00015b 0004      	.DW  0x04
00015c 0aa4      	.DW  _initPositionZ
00015d 0138      	.DW  _0x7*2
                 
00015e 0004      	.DW  0x04
00015f 0aa8      	.DW  _L1
000160 013c      	.DW  _0x8*2
                 
000161 0004      	.DW  0x04
000162 0aac      	.DW  _L2
000163 0140      	.DW  _0x9*2
                 
000164 0004      	.DW  0x04
000165 0ab0      	.DW  _L3
000166 0144      	.DW  _0xA*2
                 
000167 0004      	.DW  0x04
000168 0ab4      	.DW  _L4
000169 0148      	.DW  _0xB*2
                 
00016a 0001      	.DW  0x01
00016b 0bb4      	.DW  _state
00016c 014c      	.DW  _0xC*2
                 
00016d 0002      	.DW  0x02
00016e 0bc0      	.DW  _hitungNgawur
00016f 014e      	.DW  _0xD*2
                 
000170 0002      	.DW  0x02
000171 0bc2      	.DW  _delayNgawur
000172 0150      	.DW  _0xE*2
                 
000173 0002      	.DW  0x02
000174 0bc4      	.DW  _hitungWaras
000175 0152      	.DW  _0xF*2
                 
000176 0002      	.DW  0x02
000177 0bc6      	.DW  _delayWaras
000178 0154      	.DW  _0x10*2
                 
000179 0002      	.DW  0x02
00017a 0bc8      	.DW  _hitungTendang
00017b 0156      	.DW  _0x11*2
                 
00017c 0001      	.DW  0x01
00017d 0bca      	.DW  _spx
00017e 0158      	.DW  _0x12*2
                 
00017f 0001      	.DW  0x01
000180 0bcc      	.DW  _spy
000181 015a      	.DW  _0x13*2
                 
000182 0001      	.DW  0x01
000183 0004      	.DW  0x04
000184 015c      	.DW  _0x28D*2
                 
000185 0001      	.DW  0x01
000186 0c0a      	.DW  __seed_G101
000187 0298      	.DW  _0x2020060*2
                 
                 _0xFFFFFFFF:
000188 0000      	.DW  0
                 
                 __RESET:
000189 94f8      	CLI
00018a 27ee      	CLR  R30
00018b bbef      	OUT  EECR,R30
                 
                 ;INTERRUPT VECTORS ARE PLACED
                 ;AT THE START OF FLASH
00018c e0f1      	LDI  R31,1
00018d bff5      	OUT  MCUCR,R31
00018e bfe5      	OUT  MCUCR,R30
00018f 93e0 0074 	STS  XMCRA,R30
000191 93e0 0075 	STS  XMCRB,R30
                 
                 ;DISABLE WATCHDOG
000193 e1f8      	LDI  R31,0x18
000194 95a8      	WDR
000195 b7a4      	IN   R26,MCUSR
000196 7fa7      	CBR  R26,8
000197 bfa4      	OUT  MCUSR,R26
000198 93f0 0060 	STS  WDTCSR,R31
00019a 93e0 0060 	STS  WDTCSR,R30
                 
                 ;CLEAR R2-R14
00019c e08d      	LDI  R24,(14-2)+1
00019d e0a2      	LDI  R26,2
00019e 27bb      	CLR  R27
                 __CLEAR_REG:
00019f 93ed      	ST   X+,R30
0001a0 958a      	DEC  R24
0001a1 f7e9      	BRNE __CLEAR_REG
                 
                 ;CLEAR SRAM
0001a2 e080      	LDI  R24,LOW(__CLEAR_SRAM_SIZE)
0001a3 e290      	LDI  R25,HIGH(__CLEAR_SRAM_SIZE)
0001a4 e0a0      	LDI  R26,LOW(__SRAM_START)
0001a5 e0b2      	LDI  R27,HIGH(__SRAM_START)
                 __CLEAR_SRAM:
0001a6 93ed      	ST   X+,R30
0001a7 9701      	SBIW R24,1
0001a8 f7e9      	BRNE __CLEAR_SRAM
                 
                 ;GLOBAL VARIABLES INITIALIZATION
0001a9 eae4      	LDI  R30,LOW(__GLOBAL_INI_TBL*2)
0001aa e0f2      	LDI  R31,HIGH(__GLOBAL_INI_TBL*2)
                 __GLOBAL_INI_NEXT:
0001ab 9185      	LPM  R24,Z+
0001ac 9195      	LPM  R25,Z+
0001ad 9700      	SBIW R24,0
0001ae f061      	BREQ __GLOBAL_INI_END
0001af 91a5      	LPM  R26,Z+
0001b0 91b5      	LPM  R27,Z+
0001b1 9005      	LPM  R0,Z+
0001b2 9015      	LPM  R1,Z+
0001b3 01bf      	MOVW R22,R30
0001b4 01f0      	MOVW R30,R0
                 __GLOBAL_INI_LOOP:
0001b5 9005      	LPM  R0,Z+
0001b6 920d      	ST   X+,R0
0001b7 9701      	SBIW R24,1
0001b8 f7e1      	BRNE __GLOBAL_INI_LOOP
0001b9 01fb      	MOVW R30,R22
0001ba cff0      	RJMP __GLOBAL_INI_NEXT
                 __GLOBAL_INI_END:
                 
0001bb bf8b      	OUT  RAMPZ,R24
                 
0001bc bf8c      	OUT  EIND,R24
                 
                 ;GPIOR0 INITIALIZATION
0001bd e0e0      	LDI  R30,__GPIOR0_INIT
0001be bbee      	OUT  GPIOR0,R30
                 
                 ;HARDWARE STACK POINTER INITIALIZATION
0001bf efef      	LDI  R30,LOW(__SRAM_END-__HEAP_SIZE)
0001c0 bfed      	OUT  SPL,R30
0001c1 e2e1      	LDI  R30,HIGH(__SRAM_END-__HEAP_SIZE)
0001c2 bfee      	OUT  SPH,R30
                 
                 ;DATA STACK POINTER INITIALIZATION
0001c3 e0c0      	LDI  R28,LOW(__SRAM_START+__DSTACK_SIZE)
0001c4 e0da      	LDI  R29,HIGH(__SRAM_START+__DSTACK_SIZE)
                 
0001c5 940c 0bc2 	JMP  _main
                 
                 	.ESEG
                 	.ORG 0
                 
                 	.DSEG
                 	.ORG 0xA00
                 
                 	.CSEG
                 ;#include <mega2560.h>
                 	#ifndef __SLEEP_DEFINED__
                 	#define __SLEEP_DEFINED__
                 	.EQU __se_bit=0x01
                 	.EQU __sm_mask=0x0E
                 	.EQU __sm_powerdown=0x04
                 	.EQU __sm_powersave=0x06
                 	.EQU __sm_standby=0x0C
                 	.EQU __sm_ext_standby=0x0E
                 	.EQU __sm_adc_noise_red=0x02
                 	.SET power_ctrl_reg=smcr
                 	#endif
                 ;#include <stdio.h>
                 ;#include <stdlib.h>
                 ;#include <math.h>
                 ;#include <delay.h>
                 ;void taskGerakan();
                 ;void inversKinematic();
                 ;void InputXYZ();
                 ;void maju();
                 ;void rotasi_kanan();
                 ;void rotasi_kiri();
                 ;void bangun_telentang();
                 ;void bangun_tengkurap();
                 ;void bangkit();
                 ;void siap();
                 ;void serong_kanan();
                 ;void serong_kiri();
                 ;void geser_kanan();
                 ;void geser_kiri();
                 ;void tendang();
                 ;void dor();
                 ;void konversi_ardu();
                 ;
                 ;
                 ;int servoInitError[20]={
                 ;0,0,0,0,0,0,
                 ;0,0,0,0,0,0,
                 ;0,0,0,
                 ;0,0,0,
                 ;0,0
                 ;};
                 ;
                 ;eeprom int eServoInitError[20]={
                 ;-35,23,-11,-23,-45,0,      //-35,23,-11,-23,-45,0,
                 ;47,-16,25,-71,50,0,       //47,-16,25,-71,30,0,
                 ;0,0,0,
                 ;0,0,0,
                 ;0,0
                 ;};
                 ;
                 ;int servo[20]={
                 ;1500,1500,1500,1500,1500,1500,
                 ;1500,1500,1500,1500,1500,1500,
                 ;1500,1500,1500,
                 ;1500,1500,1500,
                 ;1500,1500
                 ;};
                 
                 	.DSEG
                 ;int servoSet[20]={
                 ;1500,1500,1500,1500,1500,1500,
                 ;1500,1500,1500,1500,1500,1500,
                 ;1500,1500,1500,
                 ;1500,1500,1500,
                 ;1500,1500
                 ;};
                 ;
                 ;int
                 ;dataInt[4]={0,0,0,0}, data[4]={0,0,0,0};
                 ;unsigned char
                 ;countRxProtokol = 0,
                 ;dataMasuk[8]
                 ; 0000 003D ;
                 ;
                 ;
                 ;int
                 ;robot,
                 ;delay,
                 ;tango,
                 ;tangi,
                 ;countTick,
                 ;counterTG,
                 ;counterDelay,
                 ;countGerakan,
                 ;I,
                 ;index,
                 ;langkah,
                 ;langkahMax=1,  //15
                 ;jumlahGerak,
                 ;speed,
                 ;delay_gait = 1000,
                 ;countNo
                 ; 0000 0051 ;
                 ;
                 ;double
                 ;VX,VY,VZ,W,
                 ;initPositionX=0,
                 ;initPositionY=0,
                 ;initPositionZ=196,             //196 216
                 ;L1=21,
                 ;L2=84,
                 ;L3=89,
                 ;L4=21,
                 ;X[2],Y[2],Z[2],
                 ;Xin=0,Yin=0,Zin=0,
                 ;Xset[2],Yset[2],Zset[2],
                 ;Xlast[2],Ylast[2],Zlast[2],
                 ;Xerror[2],Yerror[2],Zerror[2],
                 ;L1Kuadrat,L2Kuadrat,L3Kuadrat,L4Kuadrat,
                 ;XiKuadrat,YiKuadrat,ZiKuadrat,
                 ;bi,biKuadrat,ai,aiKuadrat,ci,gamai,betai,alphai[2],
                 ;A1[2],A2[2],A3[2],A4[2],A5[2],
                 ;rad,
                 ;sudutSet[20]
                 ; 0000 0067 ;
                 ;// ---------------- Variabel case case an ----------------//
                 ;int state = 1;
                 ;int cariBola = 0;
                 ;int jalan;
                 ;int de;
                 ;int ndingkluk = 0;
                 ;int kondisiAmbrukDepan,kondisiAmbrukBelakang;
                 ;int hitungNgawur = 1000;
                 ;int delayNgawur = 1000;
                 ;int hitungWaras = 1605;
                 ;int delayWaras = 1605;
                 ;int hitungTendang = 600;
                 ;
                 ;// ---------------- End of variabel case -----------------//
                 ;
                 ;int spx = 160,spy = 120,errorx,errory,px,py,mvx,mvy;
                 ;int sudah = 0;
                 ;void cari_bola();
                 ;void pid_servo();
                 ;void berjalan();
                 ;void pid_servo_mon();
                 ;void nek_ambruk();
                 ;void cek_ambruk();
                 ;void ngawur();
                 ;
                 ;void bangun_depan();
                 ;void bangun_belakang();
                 ;#include <lib.c>
                 ;
                 ;#define timer3ms 59536
                 ;#define timer2ms 63536
                 ;unsigned char Timeslot;
                 ;unsigned char Timeslot2;
                 ;
                 ;#define kaka1_1   PORTL |= (1 << 2) //PORTL.2 logika 1(HIGH)
                 ;#define kaka2_1   PORTL |= (1 << 3) //PORTL.3 logika 1(HIGH)
                 ;#define kaka3_1   PORTL |= (1 << 4)
                 ;#define kaka4_1   PORTL |= (1 << 5)
                 ;#define kaka5_1   PORTL |= (1 << 6)
                 ;#define kaka6_1   PORTL |= (1 << 7)
                 ;#define buzzon    PORTG |= (1 << 7)
                 ;
                 ;#define kaka1_0   PORTL &= ~(1 << 2) //PORTL.2 logika 0(LOW)
                 ;#define kaka2_0   PORTL &= ~(1 << 3) //PORTL.3 logika 0(LOW)
                 ;#define kaka3_0   PORTL &= ~(1 << 4)
                 ;#define kaka4_0   PORTL &= ~(1 << 5)
                 ;#define kaka5_0   PORTL &= ~(1 << 6)
                 ;#define kaka6_0   PORTL &= ~(1 << 7)
                 ;#define buzzoff   PORTG &= ~(1 << 7)
                 ;
                 ;#define taka1   PORTF.0
                 ;#define taka2   PORTF.1
                 ;#define taka3   PORTF.2
                 ;#define pala1   PORTF.3
                 ;
                 ;#define taki1   PORTF.7
                 ;#define taki2   PORTF.6
                 ;#define taki3   PORTF.5
                 ;#define pala2   PORTF.4
                 ;
                 ;#define kaki1   PORTC.7
                 ;#define kaki2   PORTC.6
                 ;#define kaki3   PORTA.6
                 ;#define kaki4   PORTA.7
                 ;#define kaki5   PORTA.4
                 ;#define kaki6   PORTA.5
                 ;
                 ;//==================VARIABEL SERIAL=================//
                 ;int miringDepan,miringSamping,kompas;
                 ;
                 ;int pos_x,pos_y;
                 ;unsigned char DataMasuk[10],DataRx,CountRx;
                 ;unsigned char DataMasukR[10],DataRxR,CountRxR;
                 ;//----------------END VARIABEL SERIAL-----------------//
                 ;
                 ;//==================Variabel mbuh=================//
                 ;int
                 ;count,hitung,
                 ;countBall,nilai,
                 ;countGawang,Gawang,
                 ;Ball
                 ; 0000 0083 ;
                 ;//----------------END VARIABEL mbuh-----------------//
                 ;
                 ;#define kaki servo[19]
                 ;#define aba  servo[18]
                 ;//==================VARIABEL SERIAL=================//
                 ;int mx,my,kompas;
                 ;char Data1[4],Data2[4],Data3[4];
                 ;unsigned char Count2,Count1,Count0,DataRx,CountRx = 0;
                 ;
                 ;int xx,yy;
                 ;char DataR1[4],DataR2[4],DataR3[4];
                 ;unsigned char CountR2,CountR1,CountR0,DataRRx;
                 ;
                 ;interrupt [TIM1_OVF] void timer1_ovf_isr(void);
                 ;interrupt [TIM1_COMPA] void timer1_compa_isr(void);
                 ;interrupt [TIM1_COMPB] void timer1_compb_isr(void);
                 ;interrupt [TIM3_OVF] void timer3_ovf_isr(void);
                 ;interrupt [TIM3_COMPA] void timer3_compa_isr(void);
                 ;interrupt [TIM3_COMPB] void timer3_compb_isr(void);
                 ;interrupt [USART0_RXC] void usart0_rx_isr(void);
                 ;interrupt [USART2_RXC] void usart2_rx_isr(void);
                 ;interrupt [USART3_RXC] void usart3_rx_isr(void);
                 ;interrupt [TIM2_OVF] void timer2_ovf_isr(void);
                 ;void init();
                 ;void konversi_raspi();
                 ;void konversi_ardu();
                 ;
                 ;
                 ;
                 ;
                 ;interrupt [TIM2_OVF] void timer2_ovf_isr(void)
                 ;{
                 
                 	.CSEG
                 _timer2_ovf_isr:
0001c7 940e 1bdd 	CALL SUBOPT_0x0
                 ;    TCNT2=240;
0001c9 efe0      	LDI  R30,LOW(240)
0001ca 93e0 00b2 	STS  178,R30
                 ;    counterTG++;
0001cc e7a8      	LDI  R26,LOW(_counterTG)
0001cd e0ba      	LDI  R27,HIGH(_counterTG)
0001ce 940e 1be5 	CALL SUBOPT_0x1
                 ;    if(counterDelay>0)
0001d0 940e 1beb 	CALL SUBOPT_0x2
0001d2 f424      	BRGE _0x14
                 ;        counterDelay--;
0001d3 e7aa      	LDI  R26,LOW(_counterDelay)
0001d4 e0ba      	LDI  R27,HIGH(_counterDelay)
0001d5 940e 1bf2 	CALL SUBOPT_0x3
                 ;}
                 _0x14:
0001d7 940e 1bf8 	CALL SUBOPT_0x4
0001d9 9518      	RETI
                 ;
                 ;void init()
                 ;{
                 _init:
                 ;    PORTA=0x00;
0001da e0e0      	LDI  R30,LOW(0)
0001db b9e2      	OUT  0x2,R30
                 ;    DDRA=0xFF;
0001dc efef      	LDI  R30,LOW(255)
0001dd b9e1      	OUT  0x1,R30
                 ;
                 ;    PORTB=0x00;
0001de e0e0      	LDI  R30,LOW(0)
0001df b9e5      	OUT  0x5,R30
                 ;    DDRB=0xFF;
0001e0 efef      	LDI  R30,LOW(255)
0001e1 b9e4      	OUT  0x4,R30
                 ;
                 ;    PORTC=0x00;
0001e2 e0e0      	LDI  R30,LOW(0)
0001e3 b9e8      	OUT  0x8,R30
                 ;    DDRC=0xFF;
0001e4 efef      	LDI  R30,LOW(255)
0001e5 b9e7      	OUT  0x7,R30
                 ;
                 ;    PORTD=0x00;
0001e6 e0e0      	LDI  R30,LOW(0)
0001e7 b9eb      	OUT  0xB,R30
                 ;    DDRD=0xF0;
0001e8 efe0      	LDI  R30,LOW(240)
0001e9 b9ea      	OUT  0xA,R30
                 ;
                 ;    PORTE=0x00;
0001ea e0e0      	LDI  R30,LOW(0)
0001eb b9ee      	OUT  0xE,R30
                 ;    DDRE=0xFF;
0001ec efef      	LDI  R30,LOW(255)
0001ed b9ed      	OUT  0xD,R30
                 ;
                 ;    PORTF=0x00;
0001ee e0e0      	LDI  R30,LOW(0)
0001ef bbe1      	OUT  0x11,R30
                 ;    DDRF=0b11111111;
0001f0 efef      	LDI  R30,LOW(255)
0001f1 bbe0      	OUT  0x10,R30
                 ;
                 ;    PORTG=0x00;
0001f2 e0e0      	LDI  R30,LOW(0)
0001f3 bbe4      	OUT  0x14,R30
                 ;    DDRG=0xFF;
0001f4 efef      	LDI  R30,LOW(255)
0001f5 bbe3      	OUT  0x13,R30
                 ;
                 ;    PORTH=0x00;
0001f6 e0e0      	LDI  R30,LOW(0)
0001f7 93e0 0102 	STS  258,R30
                 ;    DDRH=0xFF;
0001f9 efef      	LDI  R30,LOW(255)
0001fa 93e0 0101 	STS  257,R30
                 ;
                 ;    PORTJ=0x00;
0001fc e0e0      	LDI  R30,LOW(0)
0001fd 93e0 0105 	STS  261,R30
                 ;    DDRJ=0xFF;
0001ff efef      	LDI  R30,LOW(255)
000200 93e0 0104 	STS  260,R30
                 ;
                 ;    PORTK=0x00;
000202 e0e0      	LDI  R30,LOW(0)
000203 93e0 0108 	STS  264,R30
                 ;    DDRK=0xFF;
000205 efef      	LDI  R30,LOW(255)
000206 93e0 0107 	STS  263,R30
                 ;
                 ;    PORTL=0x00;
000208 e0e0      	LDI  R30,LOW(0)
000209 93e0 010b 	STS  267,R30
                 ;    DDRL=0b11111111;
00020b efef      	LDI  R30,LOW(255)
00020c 93e0 010a 	STS  266,R30
                 ;
                 ;    EICRA=0xC0;
00020e ece0      	LDI  R30,LOW(192)
00020f 93e0 0069 	STS  105,R30
                 ;    EICRB=0x00;
000211 e0e0      	LDI  R30,LOW(0)
000212 93e0 006a 	STS  106,R30
                 ;    EIMSK=0x08;
000214 e0e8      	LDI  R30,LOW(8)
000215 bbed      	OUT  0x1D,R30
                 ;    EIFR=0x08;
000216 bbec      	OUT  0x1C,R30
                 ;
                 ;    TCCR1A=0x00;
000217 e0e0      	LDI  R30,LOW(0)
000218 93e0 0080 	STS  128,R30
                 ;    TCCR1B=0x02;
00021a e0e2      	LDI  R30,LOW(2)
00021b 93e0 0081 	STS  129,R30
                 ;    TCCR2A=0x00;
00021d e0e0      	LDI  R30,LOW(0)
00021e 93e0 00b0 	STS  176,R30
                 ;    TCCR2B=0x07;
000220 e0e7      	LDI  R30,LOW(7)
000221 93e0 00b1 	STS  177,R30
                 ;    TCCR3A=0x00;
000223 e0e0      	LDI  R30,LOW(0)
000224 93e0 0090 	STS  144,R30
                 ;    TCCR3B=0x02;
000226 e0e2      	LDI  R30,LOW(2)
000227 93e0 0091 	STS  145,R30
                 ;
                 ;
                 ;    UCSR0A=0x00;
000229 e0e0      	LDI  R30,LOW(0)
00022a 93e0 00c0 	STS  192,R30
                 ;    UCSR0B=0x08;
00022c e0e8      	LDI  R30,LOW(8)
00022d 93e0 00c1 	STS  193,R30
                 ;    UCSR0C=0x06;
00022f e0e6      	LDI  R30,LOW(6)
000230 93e0 00c2 	STS  194,R30
                 ;    UBRR0H=0x00;
000232 e0e0      	LDI  R30,LOW(0)
000233 93e0 00c5 	STS  197,R30
                 ;    UBRR0L=0x08;
000235 e0e8      	LDI  R30,LOW(8)
000236 93e0 00c4 	STS  196,R30
                 ;    /*
                 ;    UCSR2A=0x00;
                 ;    UCSR2B=0x90;
                 ;    UCSR2C=0x06;
                 ;    UBRR2H=0x00;
                 ;    UBRR2L=0x08;
                 ;    */
                 ;    // USART2 initialization
                 ;// Communication Parameters: 8 Data, 1 Stop, No Parity
                 ;// USART2 Receiver: On
                 ;// USART2 Transmitter: On
                 ;// USART2 Mode: Asynchronous
                 ;// USART2 Baud Rate: 9600
                 ;UCSR2A=0x00;
000238 e0e0      	LDI  R30,LOW(0)
000239 93e0 00d0 	STS  208,R30
                 ;UCSR2B=0x18;
00023b e1e8      	LDI  R30,LOW(24)
00023c 93e0 00d1 	STS  209,R30
                 ;UCSR2C=0x06;
00023e e0e6      	LDI  R30,LOW(6)
00023f 93e0 00d2 	STS  210,R30
                 ;UBRR2H=0x00;
000241 e0e0      	LDI  R30,LOW(0)
000242 93e0 00d5 	STS  213,R30
                 ;UBRR2L=0x67;
000244 e6e7      	LDI  R30,LOW(103)
000245 93e0 00d4 	STS  212,R30
                 ;
                 ;    UCSR3A=0x00;
000247 e0e0      	LDI  R30,LOW(0)
000248 93e0 0130 	STS  304,R30
                 ;    UCSR3B=0x90;
00024a e9e0      	LDI  R30,LOW(144)
00024b 93e0 0131 	STS  305,R30
                 ;    UCSR3C=0x06;
00024d e0e6      	LDI  R30,LOW(6)
00024e 93e0 0132 	STS  306,R30
                 ;    UBRR3H=0x00;
000250 e0e0      	LDI  R30,LOW(0)
000251 93e0 0135 	STS  309,R30
                 ;    UBRR3L=0x08;
000253 e0e8      	LDI  R30,LOW(8)
000254 93e0 0134 	STS  308,R30
                 ;
                 ;    ACSR=0x80;
000256 e8e0      	LDI  R30,LOW(128)
000257 bfe0      	OUT  0x30,R30
                 ;    ADCSRB=0x00;
000258 e0e0      	LDI  R30,LOW(0)
000259 93e0 007b 	STS  123,R30
                 ;    DIDR1=0x00;
00025b 93e0 007f 	STS  127,R30
                 ;
                 ;    TIMSK1=0x07;
00025d e0e7      	LDI  R30,LOW(7)
00025e 93e0 006f 	STS  111,R30
                 ;    TIMSK2=0x01;
000260 e0e1      	LDI  R30,LOW(1)
000261 93e0 0070 	STS  112,R30
                 ;    TIMSK3=0x07;
000263 e0e7      	LDI  R30,LOW(7)
000264 93e0 0071 	STS  113,R30
                 ;
                 ;    rad=57.272727;
                +
000266 e4e6     +LDI R30 , LOW ( 0x42651746 )
000267 e1f7     +LDI R31 , HIGH ( 0x42651746 )
000268 e665     +LDI R22 , BYTE3 ( 0x42651746 )
000269 e472     +LDI R23 , BYTE4 ( 0x42651746 )
                 	__GETD1N 0x42651746
00026a 93e0 0b60 	STS  _rad,R30
00026c 93f0 0b61 	STS  _rad+1,R31
00026e 9360 0b62 	STS  _rad+2,R22
000270 9370 0b63 	STS  _rad+3,R23
                 ;    L1Kuadrat = L1 * L1;
000272 91e0 0aa8 	LDS  R30,_L1
000274 91f0 0aa9 	LDS  R31,_L1+1
000276 9160 0aaa 	LDS  R22,_L1+2
000278 9170 0aab 	LDS  R23,_L1+3
00027a 940e 1c00 	CALL SUBOPT_0x5
00027c 940e 251f 	CALL __MULF12
00027e 93e0 0b00 	STS  _L1Kuadrat,R30
000280 93f0 0b01 	STS  _L1Kuadrat+1,R31
000282 9360 0b02 	STS  _L1Kuadrat+2,R22
000284 9370 0b03 	STS  _L1Kuadrat+3,R23
                 ;    L2Kuadrat = L2 * L2;
000286 940e 1c09 	CALL SUBOPT_0x6
000288 940e 1c12 	CALL SUBOPT_0x7
00028a 940e 251f 	CALL __MULF12
00028c 93e0 0b04 	STS  _L2Kuadrat,R30
00028e 93f0 0b05 	STS  _L2Kuadrat+1,R31
000290 9360 0b06 	STS  _L2Kuadrat+2,R22
000292 9370 0b07 	STS  _L2Kuadrat+3,R23
                 ;    L3Kuadrat = L3 * L3;
000294 91e0 0ab0 	LDS  R30,_L3
000296 91f0 0ab1 	LDS  R31,_L3+1
000298 9160 0ab2 	LDS  R22,_L3+2
00029a 9170 0ab3 	LDS  R23,_L3+3
00029c 940e 1c1b 	CALL SUBOPT_0x8
00029e 93e0 0b08 	STS  _L3Kuadrat,R30
0002a0 93f0 0b09 	STS  _L3Kuadrat+1,R31
0002a2 9360 0b0a 	STS  _L3Kuadrat+2,R22
0002a4 9370 0b0b 	STS  _L3Kuadrat+3,R23
                 ;    L4Kuadrat = L4 * L4;
0002a6 91e0 0ab4 	LDS  R30,_L4
0002a8 91f0 0ab5 	LDS  R31,_L4+1
0002aa 9160 0ab6 	LDS  R22,_L4+2
0002ac 9170 0ab7 	LDS  R23,_L4+3
0002ae 940e 1c26 	CALL SUBOPT_0x9
0002b0 940e 251f 	CALL __MULF12
0002b2 93e0 0b0c 	STS  _L4Kuadrat,R30
0002b4 93f0 0b0d 	STS  _L4Kuadrat+1,R31
0002b6 9360 0b0e 	STS  _L4Kuadrat+2,R22
0002b8 9370 0b0f 	STS  _L4Kuadrat+3,R23
                 ;
                 ;    for (countNo = 0; countNo < 2; countNo++) {
0002ba 940e 1c2f 	CALL SUBOPT_0xA
                 _0x16:
0002bc 940e 1c35 	CALL SUBOPT_0xB
0002be f4ec      	BRGE _0x17
                 ;      Xset[countNo] = initPositionX; Yset[countNo] = initPositionY; Zset[countNo] = initPositionZ;
0002bf 940e 1c3b 	CALL SUBOPT_0xC
0002c1 940e 1c40 	CALL SUBOPT_0xD
0002c3 0fea      	ADD  R30,R26
0002c4 1ffb      	ADC  R31,R27
0002c5 940e 1c45 	CALL SUBOPT_0xE
0002c7 940e 1c4e 	CALL SUBOPT_0xF
0002c9 940e 1c51 	CALL SUBOPT_0x10
0002cb 0fea      	ADD  R30,R26
0002cc 1ffb      	ADC  R31,R27
0002cd 940e 1c56 	CALL SUBOPT_0x11
0002cf 940e 1c4e 	CALL SUBOPT_0xF
0002d1 940e 1c5f 	CALL SUBOPT_0x12
0002d3 0fea      	ADD  R30,R26
0002d4 1ffb      	ADC  R31,R27
0002d5 940e 1c64 	CALL SUBOPT_0x13
0002d7 940e 1c6d 	CALL SUBOPT_0x14
                 ;    }
0002d9 940e 1c70 	CALL SUBOPT_0x15
0002db cfe0      	RJMP _0x16
                 _0x17:
                 ;
                 ;    X[0]=0; Y[0]=0; Z[0]=0;
0002dc 940e 1c73 	CALL SUBOPT_0x16
                 ;    X[1]=0; Y[1]=0; Z[1]=0;
                 ;
                 ;    for(index=0;index<20;index++)
0002de e0e0      	LDI  R30,LOW(0)
0002df 93e0 0a80 	STS  _index,R30
0002e1 93e0 0a81 	STS  _index+1,R30
                 _0x19:
0002e3 91a0 0a80 	LDS  R26,_index
0002e5 91b0 0a81 	LDS  R27,_index+1
0002e7 9754      	SBIW R26,20
0002e8 f50c      	BRGE _0x1A
                 ;    {
                 ;        servoInitError[index]=eServoInitError[index];
0002e9 91e0 0a80 	LDS  R30,_index
0002eb 91f0 0a81 	LDS  R31,_index+1
0002ed e0a0      	LDI  R26,LOW(_servoInitError)
0002ee e0ba      	LDI  R27,HIGH(_servoInitError)
0002ef 0fee      	LSL  R30
0002f0 1fff      	ROL  R31
0002f1 0fea      	ADD  R30,R26
0002f2 1ffb      	ADC  R31,R27
0002f3 010f      	MOVW R0,R30
0002f4 91e0 0a80 	LDS  R30,_index
0002f6 91f0 0a81 	LDS  R31,_index+1
0002f8 e0a0      	LDI  R26,LOW(_eServoInitError)
0002f9 e0b0      	LDI  R27,HIGH(_eServoInitError)
0002fa 940e 1ca1 	CALL SUBOPT_0x17
0002fc 940e 26f2 	CALL __EEPROMRDW
0002fe 01d0      	MOVW R26,R0
0002ff 93ed      	ST   X+,R30
000300 93fc      	ST   X,R31
                 ;//        printf("A%d\n",index);
                 ;//        printf("B%d\n",servoInitError[index]);
                 ;        delay_ms(50);
000301 e3a2      	LDI  R26,LOW(50)
000302 e0b0      	LDI  R27,0
000303 940e 241f 	CALL _delay_ms
                 ;    }
000305 e8a0      	LDI  R26,LOW(_index)
000306 e0ba      	LDI  R27,HIGH(_index)
000307 940e 1be5 	CALL SUBOPT_0x1
000309 cfd9      	RJMP _0x19
                 _0x1A:
                 ;
                 ;}
00030a 9508      	RET
                 ;
                 ;interrupt [EXT_INT3] void ext_int3_isr(void)
                 ;{
                 _ext_int3_isr:
00030b 93aa      	ST   -Y,R26
00030c 93ba      	ST   -Y,R27
00030d 93ea      	ST   -Y,R30
00030e 93fa      	ST   -Y,R31
00030f b7ef      	IN   R30,SREG
000310 93ea      	ST   -Y,R30
                 ;    countBall++;
000311 efa7      	LDI  R26,LOW(_countBall)
000312 e0bb      	LDI  R27,HIGH(_countBall)
000313 940e 1be5 	CALL SUBOPT_0x1
                 ;
                 ;}
000315 91e9      	LD   R30,Y+
000316 bfef      	OUT  SREG,R30
000317 91f9      	LD   R31,Y+
000318 91e9      	LD   R30,Y+
000319 91b9      	LD   R27,Y+
00031a 91a9      	LD   R26,Y+
00031b 9518      	RETI
                 ;
                 ;interrupt [USART0_RXC] void usart0_rx_isr(void)
                 ;{
                 _usart0_rx_isr:
                 ;}
00031c 9518      	RETI
                 ;
                 ;// Terima data dari Raspi
                 ;interrupt [USART2_RXC] void usart2_rx_isr(void) //TERIMA DATA DARI RASPI
                 ;{
                 _usart2_rx_isr:
00031d 940e 1ca6 	CALL SUBOPT_0x18
                 ;char data;
                 ;data=UDR2;
00031f 931a      	ST   -Y,R17
                 ;	data -> R17
000320 9110 00d6 	LDS  R17,214
                 ;switch(DataRRx)
000322 91e0 0c09 	LDS  R30,_DataRRx
000324 940e 1cac 	CALL SUBOPT_0x19
                 ;{
                 ;    case 0:
000326 f509      	BRNE _0x1E
                 ;                if(data=='!'){DataRRx=1; CountR0=0;DataR1[0]=NULL;DataR1[1]=NULL;DataR1[2]=NULL;DataR1[3]=NULL;}
000327 3211      	CPI  R17,33
000328 f471      	BRNE _0x1F
000329 e0e1      	LDI  R30,LOW(1)
00032a 93e0 0c09 	STS  _DataRRx,R30
00032c e0e0      	LDI  R30,LOW(0)
00032d 93e0 0c08 	STS  _CountR0,R30
00032f 93e0 0bff 	STS  _DataR1,R30
                +
000331 93e0 0c00+STS _DataR1 + ( 1 ) , R30
                 	__PUTB1MN _DataR1,1
                +
000333 93e0 0c01+STS _DataR1 + ( 2 ) , R30
                 	__PUTB1MN _DataR1,2
                +
000335 93e0 0c02+STS _DataR1 + ( 3 ) , R30
                 	__PUTB1MN _DataR1,3
                 ;                if(data=='@'){DataRRx=2; CountR1=0;DataR2[0]=NULL;DataR2[1]=NULL;DataR2[2]=NULL;DataR2[3]=NULL;}
                 _0x1F:
000337 3410      	CPI  R17,64
000338 f471      	BRNE _0x20
000339 e0e2      	LDI  R30,LOW(2)
00033a 93e0 0c09 	STS  _DataRRx,R30
00033c e0e0      	LDI  R30,LOW(0)
00033d 93e0 0c07 	STS  _CountR1,R30
00033f 93e0 0c03 	STS  _DataR2,R30
                +
000341 93e0 0c04+STS _DataR2 + ( 1 ) , R30
                 	__PUTB1MN _DataR2,1
                +
000343 93e0 0c05+STS _DataR2 + ( 2 ) , R30
                 	__PUTB1MN _DataR2,2
                +
000345 93e0 0c06+STS _DataR2 + ( 3 ) , R30
                 	__PUTB1MN _DataR2,3
                 ;
                 ;    break;
                 _0x20:
000347 c02b      	RJMP _0x1D
                 ;
                 ;    case 1:
                 _0x1E:
000348 30e1      	CPI  R30,LOW(0x1)
000349 e0a0      	LDI  R26,HIGH(0x1)
00034a 07fa      	CPC  R31,R26
00034b f491      	BRNE _0x21
                 ;        if(data=='|'){DataRRx=0; CountR0=0;}
00034c 371c      	CPI  R17,124
00034d f421      	BRNE _0x22
00034e e0e0      	LDI  R30,LOW(0)
00034f 93e0 0c09 	STS  _DataRRx,R30
000351 c009      	RJMP _0x258
                 ;        else {
                 _0x22:
                 ;        DataR1[CountR0] = data; CountR0++;}
000352 91e0 0c08 	LDS  R30,_CountR0
000354 e0f0      	LDI  R31,0
000355 50e1      	SUBI R30,LOW(-_DataR1)
000356 4ff4      	SBCI R31,HIGH(-_DataR1)
000357 8310      	ST   Z,R17
000358 91e0 0c08 	LDS  R30,_CountR0
00035a 5fef      	SUBI R30,-LOW(1)
                 _0x258:
00035b 93e0 0c08 	STS  _CountR0,R30
                 ;    break;
00035d c015      	RJMP _0x1D
                 ;
                 ;    case 2:
                 _0x21:
00035e 30e2      	CPI  R30,LOW(0x2)
00035f e0a0      	LDI  R26,HIGH(0x2)
000360 07fa      	CPC  R31,R26
000361 f489      	BRNE _0x1D
                 ;        if(data=='|'){DataRRx=0; CountR1=0;}
000362 371c      	CPI  R17,124
000363 f421      	BRNE _0x25
000364 e0e0      	LDI  R30,LOW(0)
000365 93e0 0c09 	STS  _DataRRx,R30
000367 c009      	RJMP _0x259
                 ;        else{
                 _0x25:
                 ;        DataR2[CountR1] = data; CountR1++;
000368 91e0 0c07 	LDS  R30,_CountR1
00036a e0f0      	LDI  R31,0
00036b 5fed      	SUBI R30,LOW(-_DataR2)
00036c 4ff3      	SBCI R31,HIGH(-_DataR2)
00036d 8310      	ST   Z,R17
00036e 91e0 0c07 	LDS  R30,_CountR1
000370 5fef      	SUBI R30,-LOW(1)
                 _0x259:
000371 93e0 0c07 	STS  _CountR1,R30
                 ;        }
                 ;    break;
                 ;  }
                 _0x1D:
                 ;}
000373 9119      	LD   R17,Y+
000374 c416      	RJMP _0x28C
                 ;
                 ;// Terima data IMU Arduino
                 ;interrupt [USART3_RXC] void usart3_rx_isr(void)
                 ;{
                 _usart3_rx_isr:
000375 920a      	ST   -Y,R0
000376 921a      	ST   -Y,R1
000377 93aa      	ST   -Y,R26
000378 93ba      	ST   -Y,R27
000379 93ea      	ST   -Y,R30
00037a 93fa      	ST   -Y,R31
00037b b7ef      	IN   R30,SREG
00037c 93ea      	ST   -Y,R30
                 ;DataRx=UDR3;
00037d 91e0 0136 	LDS  R30,310
00037f 93e0 0bf1 	STS  _DataRx,R30
                 ;switch (CountRx){
000381 91e0 0bf2 	LDS  R30,_CountRx
000383 940e 1cac 	CALL SUBOPT_0x19
                 ;case 0:
000385 f441      	BRNE _0x2A
                 ;if(DataRx==0xFF) {CountRx=1;}
000386 91a0 0bf1 	LDS  R26,_DataRx
000388 3faf      	CPI  R26,LOW(0xFF)
000389 f419      	BRNE _0x2B
00038a e0e1      	LDI  R30,LOW(1)
00038b 93e0 0bf2 	STS  _CountRx,R30
                 ;break;
                 _0x2B:
00038d c0cc      	RJMP _0x29
                 ;case 1:
                 _0x2A:
00038e 30e1      	CPI  R30,LOW(0x1)
00038f e0a0      	LDI  R26,HIGH(0x1)
000390 07fa      	CPC  R31,R26
000391 f4b1      	BRNE _0x2C
                 ;if(DataRx==0xFF) {CountRx=1;}
000392 91a0 0bf1 	LDS  R26,_DataRx
000394 3faf      	CPI  R26,LOW(0xFF)
000395 f411      	BRNE _0x2D
000396 e0e1      	LDI  R30,LOW(1)
000397 c00d      	RJMP _0x25A
                 ;else {DataMasuk[0]=DataRx; miringDepan = (int) -1 *((DataMasuk[0]*2)-180); CountRx=2;}
                 _0x2D:
000398 91e0 0bf1 	LDS  R30,_DataRx
00039a 93e0 0be7 	STS  _DataMasuk,R30
00039c 91a0 0be7 	LDS  R26,_DataMasuk
00039e 940e 1caf 	CALL SUBOPT_0x1A
0003a0 93e0 0bdd 	STS  _miringDepan,R30
0003a2 93f0 0bde 	STS  _miringDepan+1,R31
0003a4 e0e2      	LDI  R30,LOW(2)
                 _0x25A:
0003a5 93e0 0bf2 	STS  _CountRx,R30
                 ;break;
0003a7 c0b2      	RJMP _0x29
                 ;case 2:
                 _0x2C:
0003a8 30e2      	CPI  R30,LOW(0x2)
0003a9 e0a0      	LDI  R26,HIGH(0x2)
0003aa 07fa      	CPC  R31,R26
0003ab f4b1      	BRNE _0x2F
                 ;if(DataRx==0xFF) {CountRx=1;}
0003ac 91a0 0bf1 	LDS  R26,_DataRx
0003ae 3faf      	CPI  R26,LOW(0xFF)
0003af f411      	BRNE _0x30
0003b0 e0e1      	LDI  R30,LOW(1)
0003b1 c00d      	RJMP _0x25B
                 ;else {DataMasuk[1]=DataRx; miringSamping = (int) -1*((DataMasuk[1]*2)-180); CountRx=3;}
                 _0x30:
0003b2 91e0 0bf1 	LDS  R30,_DataRx
                +
0003b4 93e0 0be8+STS _DataMasuk + ( 1 ) , R30
                 	__PUTB1MN _DataMasuk,1
                +
0003b6 91a0 0be8+LDS R26 , _DataMasuk + ( 1 )
                 	__GETB2MN _DataMasuk,1
0003b8 940e 1caf 	CALL SUBOPT_0x1A
0003ba 93e0 0bdf 	STS  _miringSamping,R30
0003bc 93f0 0be0 	STS  _miringSamping+1,R31
0003be e0e3      	LDI  R30,LOW(3)
                 _0x25B:
0003bf 93e0 0bf2 	STS  _CountRx,R30
                 ;break;
0003c1 c098      	RJMP _0x29
                 ;case 3:
                 _0x2F:
0003c2 30e3      	CPI  R30,LOW(0x3)
0003c3 e0a0      	LDI  R26,HIGH(0x3)
0003c4 07fa      	CPC  R31,R26
0003c5 f4b9      	BRNE _0x32
                 ;if(DataRx==0xFF) {CountRx=1;}
0003c6 91a0 0bf1 	LDS  R26,_DataRx
0003c8 3faf      	CPI  R26,LOW(0xFF)
0003c9 f411      	BRNE _0x33
0003ca e0e1      	LDI  R30,LOW(1)
0003cb c00e      	RJMP _0x25C
                 ;else {DataMasuk[2]=DataRx; kompas = (int) (DataMasuk[2]*2); CountRx=4;}
                 _0x33:
0003cc 91e0 0bf1 	LDS  R30,_DataRx
                +
0003ce 93e0 0be9+STS _DataMasuk + ( 2 ) , R30
                 	__PUTB1MN _DataMasuk,2
                +
0003d0 91a0 0be9+LDS R26 , _DataMasuk + ( 2 )
                 	__GETB2MN _DataMasuk,2
0003d2 e0e2      	LDI  R30,LOW(2)
0003d3 9fea      	MUL  R30,R26
0003d4 01f0      	MOVW R30,R0
0003d5 93e0 0be1 	STS  _kompas,R30
0003d7 93f0 0be2 	STS  _kompas+1,R31
0003d9 e0e4      	LDI  R30,LOW(4)
                 _0x25C:
0003da 93e0 0bf2 	STS  _CountRx,R30
                 ;break;
0003dc c07d      	RJMP _0x29
                 ;case 4:
                 _0x32:
0003dd 30e4      	CPI  R30,LOW(0x4)
0003de e0a0      	LDI  R26,HIGH(0x4)
0003df 07fa      	CPC  R31,R26
0003e0 f471      	BRNE _0x35
                 ;if(DataRx==0xFF) {CountRx=1;}
0003e1 91a0 0bf1 	LDS  R26,_DataRx
0003e3 3faf      	CPI  R26,LOW(0xFF)
0003e4 f411      	BRNE _0x36
0003e5 e0e1      	LDI  R30,LOW(1)
0003e6 c005      	RJMP _0x25D
                 ;else {DataMasuk[3]=DataRx; CountRx=5;}
                 _0x36:
0003e7 91e0 0bf1 	LDS  R30,_DataRx
                +
0003e9 93e0 0bea+STS _DataMasuk + ( 3 ) , R30
                 	__PUTB1MN _DataMasuk,3
0003eb e0e5      	LDI  R30,LOW(5)
                 _0x25D:
0003ec 93e0 0bf2 	STS  _CountRx,R30
                 ;break;
0003ee c06b      	RJMP _0x29
                 ;case 5:
                 _0x35:
0003ef 30e5      	CPI  R30,LOW(0x5)
0003f0 e0a0      	LDI  R26,HIGH(0x5)
0003f1 07fa      	CPC  R31,R26
0003f2 f471      	BRNE _0x38
                 ;if(DataRx==0xFF) {CountRx=1;}
0003f3 91a0 0bf1 	LDS  R26,_DataRx
0003f5 3faf      	CPI  R26,LOW(0xFF)
0003f6 f411      	BRNE _0x39
0003f7 e0e1      	LDI  R30,LOW(1)
0003f8 c005      	RJMP _0x25E
                 ;else {DataMasuk[4]=DataRx; CountRx=6;}
                 _0x39:
0003f9 91e0 0bf1 	LDS  R30,_DataRx
                +
0003fb 93e0 0beb+STS _DataMasuk + ( 4 ) , R30
                 	__PUTB1MN _DataMasuk,4
0003fd e0e6      	LDI  R30,LOW(6)
                 _0x25E:
0003fe 93e0 0bf2 	STS  _CountRx,R30
                 ;break;
000400 c059      	RJMP _0x29
                 ;case 6:
                 _0x38:
000401 30e6      	CPI  R30,LOW(0x6)
000402 e0a0      	LDI  R26,HIGH(0x6)
000403 07fa      	CPC  R31,R26
000404 f471      	BRNE _0x3B
                 ;if(DataRx==0xFF) {CountRx=1;}
000405 91a0 0bf1 	LDS  R26,_DataRx
000407 3faf      	CPI  R26,LOW(0xFF)
000408 f411      	BRNE _0x3C
000409 e0e1      	LDI  R30,LOW(1)
00040a c005      	RJMP _0x25F
                 ;else {DataMasuk[5]=DataRx; CountRx=7;}
                 _0x3C:
00040b 91e0 0bf1 	LDS  R30,_DataRx
                +
00040d 93e0 0bec+STS _DataMasuk + ( 5 ) , R30
                 	__PUTB1MN _DataMasuk,5
00040f e0e7      	LDI  R30,LOW(7)
                 _0x25F:
000410 93e0 0bf2 	STS  _CountRx,R30
                 ;break;
000412 c047      	RJMP _0x29
                 ;case 7:
                 _0x3B:
000413 30e7      	CPI  R30,LOW(0x7)
000414 e0a0      	LDI  R26,HIGH(0x7)
000415 07fa      	CPC  R31,R26
000416 f471      	BRNE _0x3E
                 ;if(DataRx==0xFF) {CountRx=1;}
000417 91a0 0bf1 	LDS  R26,_DataRx
000419 3faf      	CPI  R26,LOW(0xFF)
00041a f411      	BRNE _0x3F
00041b e0e1      	LDI  R30,LOW(1)
00041c c005      	RJMP _0x260
                 ;else {DataMasuk[6]=DataRx; CountRx=8;}
                 _0x3F:
00041d 91e0 0bf1 	LDS  R30,_DataRx
                +
00041f 93e0 0bed+STS _DataMasuk + ( 6 ) , R30
                 	__PUTB1MN _DataMasuk,6
000421 e0e8      	LDI  R30,LOW(8)
                 _0x260:
000422 93e0 0bf2 	STS  _CountRx,R30
                 ;break;
000424 c035      	RJMP _0x29
                 ;case 8:
                 _0x3E:
000425 30e8      	CPI  R30,LOW(0x8)
000426 e0a0      	LDI  R26,HIGH(0x8)
000427 07fa      	CPC  R31,R26
000428 f471      	BRNE _0x41
                 ;if(DataRx==0xFF) {CountRx=1;}
000429 91a0 0bf1 	LDS  R26,_DataRx
00042b 3faf      	CPI  R26,LOW(0xFF)
00042c f411      	BRNE _0x42
00042d e0e1      	LDI  R30,LOW(1)
00042e c005      	RJMP _0x261
                 ;else {DataMasuk[7]=DataRx; CountRx=9;}
                 _0x42:
00042f 91e0 0bf1 	LDS  R30,_DataRx
                +
000431 93e0 0bee+STS _DataMasuk + ( 7 ) , R30
                 	__PUTB1MN _DataMasuk,7
000433 e0e9      	LDI  R30,LOW(9)
                 _0x261:
000434 93e0 0bf2 	STS  _CountRx,R30
                 ;break;
000436 c023      	RJMP _0x29
                 ;case 9:
                 _0x41:
000437 30e9      	CPI  R30,LOW(0x9)
000438 e0a0      	LDI  R26,HIGH(0x9)
000439 07fa      	CPC  R31,R26
00043a f471      	BRNE _0x44
                 ;if(DataRx==0xFF) {CountRx=1;}
00043b 91a0 0bf1 	LDS  R26,_DataRx
00043d 3faf      	CPI  R26,LOW(0xFF)
00043e f411      	BRNE _0x45
00043f e0e1      	LDI  R30,LOW(1)
000440 c005      	RJMP _0x262
                 ;else {DataMasuk[8]=DataRx; CountRx=10;}
                 _0x45:
000441 91e0 0bf1 	LDS  R30,_DataRx
                +
000443 93e0 0bef+STS _DataMasuk + ( 8 ) , R30
                 	__PUTB1MN _DataMasuk,8
000445 e0ea      	LDI  R30,LOW(10)
                 _0x262:
000446 93e0 0bf2 	STS  _CountRx,R30
                 ;break;
000448 c011      	RJMP _0x29
                 ;case 10:
                 _0x44:
000449 30ea      	CPI  R30,LOW(0xA)
00044a e0a0      	LDI  R26,HIGH(0xA)
00044b 07fa      	CPC  R31,R26
00044c f469      	BRNE _0x29
                 ;if(DataRx==0xFF) {CountRx=1;}
00044d 91a0 0bf1 	LDS  R26,_DataRx
00044f 3faf      	CPI  R26,LOW(0xFF)
000450 f411      	BRNE _0x48
000451 e0e1      	LDI  R30,LOW(1)
000452 c005      	RJMP _0x263
                 ;else {DataMasuk[9]=DataRx; CountRx=0;}
                 _0x48:
000453 91e0 0bf1 	LDS  R30,_DataRx
                +
000455 93e0 0bf0+STS _DataMasuk + ( 9 ) , R30
                 	__PUTB1MN _DataMasuk,9
000457 e0e0      	LDI  R30,LOW(0)
                 _0x263:
000458 93e0 0bf2 	STS  _CountRx,R30
                 ;break;
                 ;}
                 _0x29:
                 ;
                 ;}
00045a 91e9      	LD   R30,Y+
00045b bfef      	OUT  SREG,R30
00045c 91f9      	LD   R31,Y+
00045d 91e9      	LD   R30,Y+
00045e 91b9      	LD   R27,Y+
00045f 91a9      	LD   R26,Y+
000460 9019      	LD   R1,Y+
000461 9009      	LD   R0,Y+
000462 9518      	RETI
                 ;
                 ;void konversi_ardu(){
                 ;    miringDepan = (int) -1 *((DataMasuk[0]*2)-180);
                 ;    miringSamping = (int) -1*((DataMasuk[1]*2)-180);
                 ;    kompas = (int) (DataMasuk[2]*2);
                 ;}
                 ;
                 ;void konversi_raspi(){
                 _konversi_raspi:
                 ;    xx = atoi(DataR1);
000463 efaf      	LDI  R26,LOW(_DataR1)
000464 e0bb      	LDI  R27,HIGH(_DataR1)
000465 940e 18b3 	CALL _atoi
000467 93e0 0bfb 	STS  _xx,R30
000469 93f0 0bfc 	STS  _xx+1,R31
                 ;    yy = atoi(DataR2);
00046b e0a3      	LDI  R26,LOW(_DataR2)
00046c e0bc      	LDI  R27,HIGH(_DataR2)
00046d 940e 18b3 	CALL _atoi
00046f 93e0 0bfd 	STS  _yy,R30
000471 93f0 0bfe 	STS  _yy+1,R31
                 ;}
000473 9508      	RET
                 ;
                 ;
                 ;interrupt [TIM1_OVF] void timer1_ovf_isr(void)
                 ;{
                 _timer1_ovf_isr:
000474 921a      	ST   -Y,R1
000475 93aa      	ST   -Y,R26
000476 93ba      	ST   -Y,R27
000477 93ea      	ST   -Y,R30
000478 93fa      	ST   -Y,R31
000479 b7ef      	IN   R30,SREG
00047a 93ea      	ST   -Y,R30
                 ;  switch (Timeslot)
00047b 2de3      	MOV  R30,R3
00047c 940e 1cac 	CALL SUBOPT_0x19
                 ;  {
                 ;    case 0:
00047e f589      	BRNE _0x4D
                 ;      kaka1_1;
00047f 91e0 010b 	LDS  R30,267
000481 60e4      	ORI  R30,4
000482 93e0 010b 	STS  267,R30
                 ;      kaki1 = 1;
000484 9a47      	SBI  0x8,7
                 ;      OCR1AH = ((2 * (servoInitError[0] + servo[0])) + timer3ms) >> 8;
000485 91e0 0a28 	LDS  R30,_servo
000487 91f0 0a29 	LDS  R31,_servo+1
000489 91a0 0a00 	LDS  R26,_servoInitError
00048b 91b0 0a01 	LDS  R27,_servoInitError+1
00048d 940e 1cb9 	CALL SUBOPT_0x1B
00048f 940e 1cbe 	CALL SUBOPT_0x1C
000491 93e0 0089 	STS  137,R30
                 ;      OCR1AL = ((2 * (servoInitError[0] + servo[0])) + timer3ms) & 0xff;
000493 91e0 0a28 	LDS  R30,_servo
000495 91a0 0a00 	LDS  R26,_servoInitError
000497 940e 1cc3 	CALL SUBOPT_0x1D
                 ;      OCR1BH = ((6000-2 * (servoInitError[6] + servo[6])) + timer3ms) >> 8;
                +
000499 91a0 0a0c+LDS R26 , _servoInitError + ( 12 )
00049b 91b0 0a0d+LDS R27 , _servoInitError + ( 12 ) + 1
                 	__GETW2MN _servoInitError,12
                +
00049d 91e0 0a34+LDS R30 , _servo + ( 12 )
00049f 91f0 0a35+LDS R31 , _servo + ( 12 ) + 1
                 	__GETW1MN _servo,12
0004a1 940e 1cb9 	CALL SUBOPT_0x1B
0004a3 940e 1cc9 	CALL SUBOPT_0x1E
0004a5 93e0 008b 	STS  139,R30
                 ;      OCR1BL = ((6000-2 * (servoInitError[6] + servo[6])) + timer3ms) & 0xff;
                +
0004a7 91a0 0a0c+LDS R26 , _servoInitError + ( 12 )
                 	__GETB2MN _servoInitError,12
                +
0004a9 91e0 0a34+LDS R30 , _servo + ( 12 )
                 	__GETB1MN _servo,12
0004ab 940e 1cd0 	CALL SUBOPT_0x1F
                 ;      TCNT1H = timer3ms >> 8;
                 ;      TCNT1L = timer3ms & 0xff;
                 ;      Timeslot = 1;
0004ad e0e1      	LDI  R30,LOW(1)
0004ae 2e3e      	MOV  R3,R30
                 ;      break;
0004af c114      	RJMP _0x4C
                 ;
                 ;    case 1:
                 _0x4D:
0004b0 30e1      	CPI  R30,LOW(0x1)
0004b1 e0a0      	LDI  R26,HIGH(0x1)
0004b2 07fa      	CPC  R31,R26
0004b3 f589      	BRNE _0x50
                 ;      kaka2_1;
0004b4 91e0 010b 	LDS  R30,267
0004b6 60e8      	ORI  R30,8
0004b7 93e0 010b 	STS  267,R30
                 ;      kaki2 = 1;
0004b9 9a46      	SBI  0x8,6
                 ;      OCR1AH = ((2 * (servoInitError[1] + servo[1])) + timer3ms) >> 8;
                +
0004ba 91a0 0a02+LDS R26 , _servoInitError + ( 2 )
0004bc 91b0 0a03+LDS R27 , _servoInitError + ( 2 ) + 1
                 	__GETW2MN _servoInitError,2
                +
0004be 91e0 0a2a+LDS R30 , _servo + ( 2 )
0004c0 91f0 0a2b+LDS R31 , _servo + ( 2 ) + 1
                 	__GETW1MN _servo,2
0004c2 940e 1cb9 	CALL SUBOPT_0x1B
0004c4 940e 1cbe 	CALL SUBOPT_0x1C
0004c6 93e0 0089 	STS  137,R30
                 ;      OCR1AL = ((2 * (servoInitError[1] + servo[1])) + timer3ms) & 0xff;
                +
0004c8 91a0 0a02+LDS R26 , _servoInitError + ( 2 )
                 	__GETB2MN _servoInitError,2
                +
0004ca 91e0 0a2a+LDS R30 , _servo + ( 2 )
                 	__GETB1MN _servo,2
0004cc 940e 1cc3 	CALL SUBOPT_0x1D
                 ;      OCR1BH = ((6000-2 * (servoInitError[7] + servo[7])) + timer3ms) >> 8;
                +
0004ce 91a0 0a0e+LDS R26 , _servoInitError + ( 14 )
0004d0 91b0 0a0f+LDS R27 , _servoInitError + ( 14 ) + 1
                 	__GETW2MN _servoInitError,14
                +
0004d2 91e0 0a36+LDS R30 , _servo + ( 14 )
0004d4 91f0 0a37+LDS R31 , _servo + ( 14 ) + 1
                 	__GETW1MN _servo,14
0004d6 940e 1cb9 	CALL SUBOPT_0x1B
0004d8 940e 1cc9 	CALL SUBOPT_0x1E
0004da 93e0 008b 	STS  139,R30
                 ;      OCR1BL = ((6000-2 * (servoInitError[7] + servo[7])) + timer3ms) & 0xff;
                +
0004dc 91a0 0a0e+LDS R26 , _servoInitError + ( 14 )
                 	__GETB2MN _servoInitError,14
                +
0004de 91e0 0a36+LDS R30 , _servo + ( 14 )
                 	__GETB1MN _servo,14
0004e0 940e 1cd0 	CALL SUBOPT_0x1F
                 ;      TCNT1H = timer3ms >> 8;
                 ;      TCNT1L = timer3ms & 0xff;
                 ;      Timeslot = 2;
0004e2 e0e2      	LDI  R30,LOW(2)
0004e3 2e3e      	MOV  R3,R30
                 ;      break;
0004e4 c0df      	RJMP _0x4C
                 ;
                 ;    case 2:
                 _0x50:
0004e5 30e2      	CPI  R30,LOW(0x2)
0004e6 e0a0      	LDI  R26,HIGH(0x2)
0004e7 07fa      	CPC  R31,R26
0004e8 f589      	BRNE _0x53
                 ;      kaka3_1;
0004e9 91e0 010b 	LDS  R30,267
0004eb 61e0      	ORI  R30,0x10
0004ec 93e0 010b 	STS  267,R30
                 ;      kaki3 = 1;
0004ee 9a16      	SBI  0x2,6
                 ;      OCR1AH = ((6000-2 * (servoInitError[2] + servo[2])) + timer3ms) >> 8;
                +
0004ef 91a0 0a04+LDS R26 , _servoInitError + ( 4 )
0004f1 91b0 0a05+LDS R27 , _servoInitError + ( 4 ) + 1
                 	__GETW2MN _servoInitError,4
                +
0004f3 91e0 0a2c+LDS R30 , _servo + ( 4 )
0004f5 91f0 0a2d+LDS R31 , _servo + ( 4 ) + 1
                 	__GETW1MN _servo,4
0004f7 940e 1cb9 	CALL SUBOPT_0x1B
0004f9 940e 1cc9 	CALL SUBOPT_0x1E
0004fb 93e0 0089 	STS  137,R30
                 ;      OCR1AL = ((6000-2 * (servoInitError[2] + servo[2])) + timer3ms) & 0xff;
                +
0004fd 91a0 0a04+LDS R26 , _servoInitError + ( 4 )
                 	__GETB2MN _servoInitError,4
                +
0004ff 91e0 0a2c+LDS R30 , _servo + ( 4 )
                 	__GETB1MN _servo,4
000501 940e 1ce0 	CALL SUBOPT_0x20
                 ;      OCR1BH = ((2 * (servoInitError[8] + servo[8])) + timer3ms) >> 8;
                +
000503 91a0 0a10+LDS R26 , _servoInitError + ( 16 )
000505 91b0 0a11+LDS R27 , _servoInitError + ( 16 ) + 1
                 	__GETW2MN _servoInitError,16
                +
000507 91e0 0a38+LDS R30 , _servo + ( 16 )
000509 91f0 0a39+LDS R31 , _servo + ( 16 ) + 1
                 	__GETW1MN _servo,16
00050b 940e 1cb9 	CALL SUBOPT_0x1B
00050d 940e 1cbe 	CALL SUBOPT_0x1C
00050f 93e0 008b 	STS  139,R30
                 ;      OCR1BL = ((2 * (servoInitError[8] + servo[8])) + timer3ms) & 0xff;
                +
000511 91a0 0a10+LDS R26 , _servoInitError + ( 16 )
                 	__GETB2MN _servoInitError,16
                +
000513 91e0 0a38+LDS R30 , _servo + ( 16 )
                 	__GETB1MN _servo,16
000515 940e 1cea 	CALL SUBOPT_0x21
                 ;      TCNT1H = timer3ms >> 8;
                 ;      TCNT1L = timer3ms & 0xff;
                 ;      Timeslot = 3;
000517 e0e3      	LDI  R30,LOW(3)
000518 2e3e      	MOV  R3,R30
                 ;      break;
000519 c0aa      	RJMP _0x4C
                 ;
                 ;    case 3:
                 _0x53:
00051a 30e3      	CPI  R30,LOW(0x3)
00051b e0a0      	LDI  R26,HIGH(0x3)
00051c 07fa      	CPC  R31,R26
00051d f589      	BRNE _0x56
                 ;      kaka4_1;
00051e 91e0 010b 	LDS  R30,267
000520 62e0      	ORI  R30,0x20
000521 93e0 010b 	STS  267,R30
                 ;      kaki4 = 1;
000523 9a17      	SBI  0x2,7
                 ;      OCR1AH = ((6000-2 * (servoInitError[3] + servo[3])) + timer3ms) >> 8;
                +
000524 91a0 0a06+LDS R26 , _servoInitError + ( 6 )
000526 91b0 0a07+LDS R27 , _servoInitError + ( 6 ) + 1
                 	__GETW2MN _servoInitError,6
                +
000528 91e0 0a2e+LDS R30 , _servo + ( 6 )
00052a 91f0 0a2f+LDS R31 , _servo + ( 6 ) + 1
                 	__GETW1MN _servo,6
00052c 940e 1cb9 	CALL SUBOPT_0x1B
00052e 940e 1cc9 	CALL SUBOPT_0x1E
000530 93e0 0089 	STS  137,R30
                 ;      OCR1AL = ((6000-2 * (servoInitError[3] + servo[3])) + timer3ms) & 0xff;
                +
000532 91a0 0a06+LDS R26 , _servoInitError + ( 6 )
                 	__GETB2MN _servoInitError,6
                +
000534 91e0 0a2e+LDS R30 , _servo + ( 6 )
                 	__GETB1MN _servo,6
000536 940e 1ce0 	CALL SUBOPT_0x20
                 ;      OCR1BH = ((2 * (servoInitError[9] + servo[9])) + timer3ms) >> 8;
                +
000538 91a0 0a12+LDS R26 , _servoInitError + ( 18 )
00053a 91b0 0a13+LDS R27 , _servoInitError + ( 18 ) + 1
                 	__GETW2MN _servoInitError,18
                +
00053c 91e0 0a3a+LDS R30 , _servo + ( 18 )
00053e 91f0 0a3b+LDS R31 , _servo + ( 18 ) + 1
                 	__GETW1MN _servo,18
000540 940e 1cb9 	CALL SUBOPT_0x1B
000542 940e 1cbe 	CALL SUBOPT_0x1C
000544 93e0 008b 	STS  139,R30
                 ;      OCR1BL = ((2 * (servoInitError[9] + servo[9])) + timer3ms) & 0xff;
                +
000546 91a0 0a12+LDS R26 , _servoInitError + ( 18 )
                 	__GETB2MN _servoInitError,18
                +
000548 91e0 0a3a+LDS R30 , _servo + ( 18 )
                 	__GETB1MN _servo,18
00054a 940e 1cea 	CALL SUBOPT_0x21
                 ;      TCNT1H = timer3ms >> 8;
                 ;      TCNT1L = timer3ms & 0xff;
                 ;      Timeslot = 4;
00054c e0e4      	LDI  R30,LOW(4)
00054d 2e3e      	MOV  R3,R30
                 ;      break;
00054e c075      	RJMP _0x4C
                 ;
                 ;    case 4:
                 _0x56:
00054f 30e4      	CPI  R30,LOW(0x4)
000550 e0a0      	LDI  R26,HIGH(0x4)
000551 07fa      	CPC  R31,R26
000552 f589      	BRNE _0x59
                 ;      kaka5_1;
000553 91e0 010b 	LDS  R30,267
000555 64e0      	ORI  R30,0x40
000556 93e0 010b 	STS  267,R30
                 ;      kaki5 = 1;
000558 9a14      	SBI  0x2,4
                 ;      OCR1AH = ((2 * (servoInitError[4] + servo[4])) + timer3ms) >> 8;
                +
000559 91a0 0a08+LDS R26 , _servoInitError + ( 8 )
00055b 91b0 0a09+LDS R27 , _servoInitError + ( 8 ) + 1
                 	__GETW2MN _servoInitError,8
                +
00055d 91e0 0a30+LDS R30 , _servo + ( 8 )
00055f 91f0 0a31+LDS R31 , _servo + ( 8 ) + 1
                 	__GETW1MN _servo,8
000561 940e 1cb9 	CALL SUBOPT_0x1B
000563 940e 1cbe 	CALL SUBOPT_0x1C
000565 93e0 0089 	STS  137,R30
                 ;      OCR1AL = ((2 * (servoInitError[4] + servo[4])) + timer3ms) & 0xff;
                +
000567 91a0 0a08+LDS R26 , _servoInitError + ( 8 )
                 	__GETB2MN _servoInitError,8
                +
000569 91e0 0a30+LDS R30 , _servo + ( 8 )
                 	__GETB1MN _servo,8
00056b 940e 1cc3 	CALL SUBOPT_0x1D
                 ;      OCR1BH = ((6000-2 * (servoInitError[10] + servo[10])) + timer3ms) >> 8;
                +
00056d 91a0 0a14+LDS R26 , _servoInitError + ( 20 )
00056f 91b0 0a15+LDS R27 , _servoInitError + ( 20 ) + 1
                 	__GETW2MN _servoInitError,20
                +
000571 91e0 0a3c+LDS R30 , _servo + ( 20 )
000573 91f0 0a3d+LDS R31 , _servo + ( 20 ) + 1
                 	__GETW1MN _servo,20
000575 940e 1cb9 	CALL SUBOPT_0x1B
000577 940e 1cc9 	CALL SUBOPT_0x1E
000579 93e0 008b 	STS  139,R30
                 ;      OCR1BL = ((6000-2 * (servoInitError[10] + servo[10])) + timer3ms) & 0xff;
                +
00057b 91a0 0a14+LDS R26 , _servoInitError + ( 20 )
                 	__GETB2MN _servoInitError,20
                +
00057d 91e0 0a3c+LDS R30 , _servo + ( 20 )
                 	__GETB1MN _servo,20
00057f 940e 1cd0 	CALL SUBOPT_0x1F
                 ;      TCNT1H = timer3ms >> 8;
                 ;      TCNT1L = timer3ms & 0xff;
                 ;      Timeslot = 5;
000581 e0e5      	LDI  R30,LOW(5)
000582 2e3e      	MOV  R3,R30
                 ;      break;
000583 c040      	RJMP _0x4C
                 ;
                 ;    case 5:
                 _0x59:
000584 30e5      	CPI  R30,LOW(0x5)
000585 e0a0      	LDI  R26,HIGH(0x5)
000586 07fa      	CPC  R31,R26
000587 f589      	BRNE _0x5C
                 ;      kaka6_1;
000588 91e0 010b 	LDS  R30,267
00058a 68e0      	ORI  R30,0x80
00058b 93e0 010b 	STS  267,R30
                 ;      kaki6 = 1;
00058d 9a15      	SBI  0x2,5
                 ;      OCR1AH = ((2 * (servoInitError[5] + servo[5])) + timer3ms) >> 8;
                +
00058e 91a0 0a0a+LDS R26 , _servoInitError + ( 10 )
000590 91b0 0a0b+LDS R27 , _servoInitError + ( 10 ) + 1
                 	__GETW2MN _servoInitError,10
                +
000592 91e0 0a32+LDS R30 , _servo + ( 10 )
000594 91f0 0a33+LDS R31 , _servo + ( 10 ) + 1
                 	__GETW1MN _servo,10
000596 940e 1cb9 	CALL SUBOPT_0x1B
000598 940e 1cbe 	CALL SUBOPT_0x1C
00059a 93e0 0089 	STS  137,R30
                 ;      OCR1AL = ((2 * (servoInitError[5] + servo[5])) + timer3ms) & 0xff;
                +
00059c 91a0 0a0a+LDS R26 , _servoInitError + ( 10 )
                 	__GETB2MN _servoInitError,10
                +
00059e 91e0 0a32+LDS R30 , _servo + ( 10 )
                 	__GETB1MN _servo,10
0005a0 940e 1cc3 	CALL SUBOPT_0x1D
                 ;      OCR1BH = ((2 * (servoInitError[11] + servo[11])) + timer3ms) >> 8;
                +
0005a2 91a0 0a16+LDS R26 , _servoInitError + ( 22 )
0005a4 91b0 0a17+LDS R27 , _servoInitError + ( 22 ) + 1
                 	__GETW2MN _servoInitError,22
                +
0005a6 91e0 0a3e+LDS R30 , _servo + ( 22 )
0005a8 91f0 0a3f+LDS R31 , _servo + ( 22 ) + 1
                 	__GETW1MN _servo,22
0005aa 940e 1cb9 	CALL SUBOPT_0x1B
0005ac 940e 1cbe 	CALL SUBOPT_0x1C
0005ae 93e0 008b 	STS  139,R30
                 ;      OCR1BL = ((2 * (servoInitError[11] + servo[11])) + timer3ms) & 0xff;
                +
0005b0 91a0 0a16+LDS R26 , _servoInitError + ( 22 )
                 	__GETB2MN _servoInitError,22
                +
0005b2 91e0 0a3e+LDS R30 , _servo + ( 22 )
                 	__GETB1MN _servo,22
0005b4 940e 1cea 	CALL SUBOPT_0x21
                 ;      TCNT1H = timer3ms >> 8;
                 ;      TCNT1L = timer3ms & 0xff;
                 ;      Timeslot = 6;
0005b6 e0e6      	LDI  R30,LOW(6)
0005b7 2e3e      	MOV  R3,R30
                 ;      break;
0005b8 c00b      	RJMP _0x4C
                 ;
                 ;    case 6:
                 _0x5C:
0005b9 30e6      	CPI  R30,LOW(0x6)
0005ba e0a0      	LDI  R26,HIGH(0x6)
0005bb 07fa      	CPC  R31,R26
0005bc f439      	BRNE _0x4C
                 ;
                 ;      TCNT1H = timer2ms >> 8;
0005bd efe8      	LDI  R30,LOW(248)
0005be 93e0 0085 	STS  133,R30
                 ;      TCNT1L = timer2ms & 0xff;
0005c0 e3e0      	LDI  R30,LOW(48)
0005c1 93e0 0084 	STS  132,R30
                 ;      Timeslot = 0;
0005c3 2433      	CLR  R3
                 ;  }
                 _0x4C:
                 ;
                 ;}
0005c4 91e9      	LD   R30,Y+
0005c5 bfef      	OUT  SREG,R30
0005c6 91f9      	LD   R31,Y+
0005c7 91e9      	LD   R30,Y+
0005c8 91b9      	LD   R27,Y+
0005c9 91a9      	LD   R26,Y+
0005ca 9019      	LD   R1,Y+
0005cb 9518      	RETI
                 ;
                 ;interrupt [TIM1_COMPA] void timer1_compa_isr(void)
                 ;{
                 _timer1_compa_isr:
0005cc 940e 1ca6 	CALL SUBOPT_0x18
                 ;switch (Timeslot)
0005ce 2de3      	MOV  R30,R3
0005cf 940e 1cac 	CALL SUBOPT_0x19
                 ;    {
                 ;    case 0:
0005d1 f189      	BREQ _0x62
                 ;    break;
                 ;
                 ;    case 1:
0005d2 30e1      	CPI  R30,LOW(0x1)
0005d3 e0a0      	LDI  R26,HIGH(0x1)
0005d4 07fa      	CPC  R31,R26
0005d5 f421      	BRNE _0x64
                 ;            kaka1_0;
0005d6 91e0 010b 	LDS  R30,267
0005d8 7feb      	ANDI R30,0xFB
0005d9 c027      	RJMP _0x264
                 ;    break;
                 ;
                 ;    case 2:
                 _0x64:
0005da 30e2      	CPI  R30,LOW(0x2)
0005db e0a0      	LDI  R26,HIGH(0x2)
0005dc 07fa      	CPC  R31,R26
0005dd f421      	BRNE _0x65
                 ;            kaka2_0;
0005de 91e0 010b 	LDS  R30,267
0005e0 7fe7      	ANDI R30,0XF7
0005e1 c01f      	RJMP _0x264
                 ;    break;
                 ;
                 ;    case 3:
                 _0x65:
0005e2 30e3      	CPI  R30,LOW(0x3)
0005e3 e0a0      	LDI  R26,HIGH(0x3)
0005e4 07fa      	CPC  R31,R26
0005e5 f421      	BRNE _0x66
                 ;            kaka3_0;
0005e6 91e0 010b 	LDS  R30,267
0005e8 7eef      	ANDI R30,0xEF
0005e9 c017      	RJMP _0x264
                 ;    break;
                 ;
                 ;    case 4:
                 _0x66:
0005ea 30e4      	CPI  R30,LOW(0x4)
0005eb e0a0      	LDI  R26,HIGH(0x4)
0005ec 07fa      	CPC  R31,R26
0005ed f421      	BRNE _0x67
                 ;            kaka4_0;
0005ee 91e0 010b 	LDS  R30,267
0005f0 7def      	ANDI R30,0xDF
0005f1 c00f      	RJMP _0x264
                 ;    break;
                 ;
                 ;    case 5:
                 _0x67:
0005f2 30e5      	CPI  R30,LOW(0x5)
0005f3 e0a0      	LDI  R26,HIGH(0x5)
0005f4 07fa      	CPC  R31,R26
0005f5 f421      	BRNE _0x68
                 ;            kaka5_0;
0005f6 91e0 010b 	LDS  R30,267
0005f8 7bef      	ANDI R30,0xBF
0005f9 c007      	RJMP _0x264
                 ;    break;
                 ;
                 ;    case 6:
                 _0x68:
0005fa 30e6      	CPI  R30,LOW(0x6)
0005fb e0a0      	LDI  R26,HIGH(0x6)
0005fc 07fa      	CPC  R31,R26
0005fd f429      	BRNE _0x62
                 ;            kaka6_0;
0005fe 91e0 010b 	LDS  R30,267
000600 77ef      	ANDI R30,0x7F
                 _0x264:
000601 93e0 010b 	STS  267,R30
                 ;    break;
                 ;    }
                 _0x62:
                 ;
                 ;}
000603 c187      	RJMP _0x28C
                 ;
                 ;interrupt [TIM1_COMPB] void timer1_compb_isr(void)
                 ;{
                 _timer1_compb_isr:
000604 940e 1ca6 	CALL SUBOPT_0x18
                 ;switch (Timeslot)
000606 2de3      	MOV  R30,R3
000607 940e 1cac 	CALL SUBOPT_0x19
                 ;    {
                 ;    case 0:
000609 f119      	BREQ _0x6C
                 ;    break;
                 ;
                 ;    case 1:
00060a 30e1      	CPI  R30,LOW(0x1)
00060b e0a0      	LDI  R26,HIGH(0x1)
00060c 07fa      	CPC  R31,R26
00060d f411      	BRNE _0x6E
                 ;            kaki1 = 0;
00060e 9847      	CBI  0x8,7
                 ;    break;
00060f c01d      	RJMP _0x6C
                 ;
                 ;    case 2:
                 _0x6E:
000610 30e2      	CPI  R30,LOW(0x2)
000611 e0a0      	LDI  R26,HIGH(0x2)
000612 07fa      	CPC  R31,R26
000613 f411      	BRNE _0x71
                 ;            kaki2 = 0;
000614 9846      	CBI  0x8,6
                 ;    break;
000615 c017      	RJMP _0x6C
                 ;
                 ;    case 3:
                 _0x71:
000616 30e3      	CPI  R30,LOW(0x3)
000617 e0a0      	LDI  R26,HIGH(0x3)
000618 07fa      	CPC  R31,R26
000619 f411      	BRNE _0x74
                 ;            kaki3 = 0;
00061a 9816      	CBI  0x2,6
                 ;    break;
00061b c011      	RJMP _0x6C
                 ;
                 ;    case 4:
                 _0x74:
00061c 30e4      	CPI  R30,LOW(0x4)
00061d e0a0      	LDI  R26,HIGH(0x4)
00061e 07fa      	CPC  R31,R26
00061f f411      	BRNE _0x77
                 ;            kaki4 = 0;
000620 9817      	CBI  0x2,7
                 ;    break;
000621 c00b      	RJMP _0x6C
                 ;
                 ;    case 5:
                 _0x77:
000622 30e5      	CPI  R30,LOW(0x5)
000623 e0a0      	LDI  R26,HIGH(0x5)
000624 07fa      	CPC  R31,R26
000625 f411      	BRNE _0x7A
                 ;            kaki5 = 0;
000626 9814      	CBI  0x2,4
                 ;    break;
000627 c005      	RJMP _0x6C
                 ;
                 ;    case 6:
                 _0x7A:
000628 30e6      	CPI  R30,LOW(0x6)
000629 e0a0      	LDI  R26,HIGH(0x6)
00062a 07fa      	CPC  R31,R26
00062b f409      	BRNE _0x6C
                 ;            kaki6 = 0;
00062c 9815      	CBI  0x2,5
                 ;    break;
                 ;    }
                 _0x6C:
                 ;
                 ;
                 ;}
00062d c15d      	RJMP _0x28C
                 ;
                 ;interrupt [TIM3_OVF] void timer3_ovf_isr(void)
                 ;{
                 _timer3_ovf_isr:
00062e 940e 1bdd 	CALL SUBOPT_0x0
                 ;  switch (Timeslot2)
000630 940e 1cf6 	CALL SUBOPT_0x22
                 ;  {
                 ;    case 0:
000632 f561      	BRNE _0x83
                 ;      taka1 = 1;
000633 9a88      	SBI  0x11,0
                 ;      taki1 = 1;
000634 9a8f      	SBI  0x11,7
                 ;      OCR3AH = ((2 * (servoInitError[12] + servo[12])) + timer3ms) >> 8;
                +
000635 91a0 0a18+LDS R26 , _servoInitError + ( 24 )
000637 91b0 0a19+LDS R27 , _servoInitError + ( 24 ) + 1
                 	__GETW2MN _servoInitError,24
                +
000639 91e0 0a40+LDS R30 , _servo + ( 24 )
00063b 91f0 0a41+LDS R31 , _servo + ( 24 ) + 1
                 	__GETW1MN _servo,24
00063d 940e 1cb9 	CALL SUBOPT_0x1B
00063f 940e 1cbe 	CALL SUBOPT_0x1C
000641 93e0 0099 	STS  153,R30
                 ;      OCR3AL = ((2 * (servoInitError[12] + servo[12])) + timer3ms) & 0xff;
                +
000643 91a0 0a18+LDS R26 , _servoInitError + ( 24 )
                 	__GETB2MN _servoInitError,24
                +
000645 91e0 0a40+LDS R30 , _servo + ( 24 )
                 	__GETB1MN _servo,24
000647 940e 1cf9 	CALL SUBOPT_0x23
                 ;      OCR3BH = ((2 * (servoInitError[15] + servo[15])) + timer3ms) >> 8;
                +
000649 91a0 0a1e+LDS R26 , _servoInitError + ( 30 )
00064b 91b0 0a1f+LDS R27 , _servoInitError + ( 30 ) + 1
                 	__GETW2MN _servoInitError,30
                +
00064d 91e0 0a46+LDS R30 , _servo + ( 30 )
00064f 91f0 0a47+LDS R31 , _servo + ( 30 ) + 1
                 	__GETW1MN _servo,30
000651 940e 1cb9 	CALL SUBOPT_0x1B
000653 940e 1cbe 	CALL SUBOPT_0x1C
000655 93e0 009b 	STS  155,R30
                 ;      OCR3BL = ((2 * (servoInitError[15] + servo[15])) + timer3ms) & 0xff;
                +
000657 91a0 0a1e+LDS R26 , _servoInitError + ( 30 )
                 	__GETB2MN _servoInitError,30
                +
000659 91e0 0a46+LDS R30 , _servo + ( 30 )
                 	__GETB1MN _servo,30
00065b 940e 1cff 	CALL SUBOPT_0x24
                 ;      TCNT3H = timer3ms >> 8;
                 ;      TCNT3L = timer3ms & 0xff;
                 ;      Timeslot2 = 1;
00065d e0e1      	LDI  R30,LOW(1)
00065e c0ee      	RJMP _0x265
                 ;      break;
                 ;
                 ;    case 1:
                 _0x83:
00065f 30e1      	CPI  R30,LOW(0x1)
000660 e0a0      	LDI  R26,HIGH(0x1)
000661 07fa      	CPC  R31,R26
000662 f561      	BRNE _0x88
                 ;      taka2 = 1;
000663 9a89      	SBI  0x11,1
                 ;      taki2 = 1;
000664 9a8e      	SBI  0x11,6
                 ;      OCR3AH = ((2 * (servoInitError[13] + servo[13])) + timer3ms) >> 8;
                +
000665 91a0 0a1a+LDS R26 , _servoInitError + ( 26 )
000667 91b0 0a1b+LDS R27 , _servoInitError + ( 26 ) + 1
                 	__GETW2MN _servoInitError,26
                +
000669 91e0 0a42+LDS R30 , _servo + ( 26 )
00066b 91f0 0a43+LDS R31 , _servo + ( 26 ) + 1
                 	__GETW1MN _servo,26
00066d 940e 1cb9 	CALL SUBOPT_0x1B
00066f 940e 1cbe 	CALL SUBOPT_0x1C
000671 93e0 0099 	STS  153,R30
                 ;      OCR3AL = ((2 * (servoInitError[13] + servo[13])) + timer3ms) & 0xff;
                +
000673 91a0 0a1a+LDS R26 , _servoInitError + ( 26 )
                 	__GETB2MN _servoInitError,26
                +
000675 91e0 0a42+LDS R30 , _servo + ( 26 )
                 	__GETB1MN _servo,26
000677 940e 1cf9 	CALL SUBOPT_0x23
                 ;      OCR3BH = ((2 * (servoInitError[16] + servo[16])) + timer3ms) >> 8;
                +
000679 91a0 0a20+LDS R26 , _servoInitError + ( 32 )
00067b 91b0 0a21+LDS R27 , _servoInitError + ( 32 ) + 1
                 	__GETW2MN _servoInitError,32
                +
00067d 91e0 0a48+LDS R30 , _servo + ( 32 )
00067f 91f0 0a49+LDS R31 , _servo + ( 32 ) + 1
                 	__GETW1MN _servo,32
000681 940e 1cb9 	CALL SUBOPT_0x1B
000683 940e 1cbe 	CALL SUBOPT_0x1C
000685 93e0 009b 	STS  155,R30
                 ;      OCR3BL = ((2 * (servoInitError[16] + servo[16])) + timer3ms) & 0xff;
                +
000687 91a0 0a20+LDS R26 , _servoInitError + ( 32 )
                 	__GETB2MN _servoInitError,32
                +
000689 91e0 0a48+LDS R30 , _servo + ( 32 )
                 	__GETB1MN _servo,32
00068b 940e 1cff 	CALL SUBOPT_0x24
                 ;      TCNT3H = timer3ms >> 8;
                 ;      TCNT3L = timer3ms & 0xff;
                 ;      Timeslot2 = 2;
00068d e0e2      	LDI  R30,LOW(2)
00068e c0be      	RJMP _0x265
                 ;      break;
                 ;
                 ;    case 2:
                 _0x88:
00068f 30e2      	CPI  R30,LOW(0x2)
000690 e0a0      	LDI  R26,HIGH(0x2)
000691 07fa      	CPC  R31,R26
000692 f561      	BRNE _0x8D
                 ;      taka3 = 1;
000693 9a8a      	SBI  0x11,2
                 ;      taki3 = 1;
000694 9a8d      	SBI  0x11,5
                 ;      OCR3AH = ((2 * (servoInitError[14] + servo[14])) + timer3ms) >> 8;
                +
000695 91a0 0a1c+LDS R26 , _servoInitError + ( 28 )
000697 91b0 0a1d+LDS R27 , _servoInitError + ( 28 ) + 1
                 	__GETW2MN _servoInitError,28
                +
000699 91e0 0a44+LDS R30 , _servo + ( 28 )
00069b 91f0 0a45+LDS R31 , _servo + ( 28 ) + 1
                 	__GETW1MN _servo,28
00069d 940e 1cb9 	CALL SUBOPT_0x1B
00069f 940e 1cbe 	CALL SUBOPT_0x1C
0006a1 93e0 0099 	STS  153,R30
                 ;      OCR3AL = ((2 * (servoInitError[14] + servo[14])) + timer3ms) & 0xff;
                +
0006a3 91a0 0a1c+LDS R26 , _servoInitError + ( 28 )
                 	__GETB2MN _servoInitError,28
                +
0006a5 91e0 0a44+LDS R30 , _servo + ( 28 )
                 	__GETB1MN _servo,28
0006a7 940e 1cf9 	CALL SUBOPT_0x23
                 ;      OCR3BH = ((2 * (servoInitError[17] + servo[17])) + timer3ms) >> 8;
                +
0006a9 91a0 0a22+LDS R26 , _servoInitError + ( 34 )
0006ab 91b0 0a23+LDS R27 , _servoInitError + ( 34 ) + 1
                 	__GETW2MN _servoInitError,34
                +
0006ad 91e0 0a4a+LDS R30 , _servo + ( 34 )
0006af 91f0 0a4b+LDS R31 , _servo + ( 34 ) + 1
                 	__GETW1MN _servo,34
0006b1 940e 1cb9 	CALL SUBOPT_0x1B
0006b3 940e 1cbe 	CALL SUBOPT_0x1C
0006b5 93e0 009b 	STS  155,R30
                 ;      OCR3BL = ((2 * (servoInitError[17] + servo[17])) + timer3ms) & 0xff;
                +
0006b7 91a0 0a22+LDS R26 , _servoInitError + ( 34 )
                 	__GETB2MN _servoInitError,34
                +
0006b9 91e0 0a4a+LDS R30 , _servo + ( 34 )
                 	__GETB1MN _servo,34
0006bb 940e 1cff 	CALL SUBOPT_0x24
                 ;      TCNT3H = timer3ms >> 8;
                 ;      TCNT3L = timer3ms & 0xff;
                 ;      Timeslot2 = 3;
0006bd e0e3      	LDI  R30,LOW(3)
0006be c08e      	RJMP _0x265
                 ;      break;
                 ;
                 ;    case 3:
                 _0x8D:
0006bf 30e3      	CPI  R30,LOW(0x3)
0006c0 e0a0      	LDI  R26,HIGH(0x3)
0006c1 07fa      	CPC  R31,R26
0006c2 f541      	BRNE _0x92
                 ;      pala1 = 1;
0006c3 9a8b      	SBI  0x11,3
                 ;      pala2 = 1;
0006c4 9a8c      	SBI  0x11,4
                 ;      OCR3AH = ((2 * (servoInitError[18] + servo[18])) + timer3ms) >> 8;
                +
0006c5 91a0 0a24+LDS R26 , _servoInitError + ( 36 )
0006c7 91b0 0a25+LDS R27 , _servoInitError + ( 36 ) + 1
                 	__GETW2MN _servoInitError,36
0006c9 940e 1d0b 	CALL SUBOPT_0x25
0006cb 940e 1cb9 	CALL SUBOPT_0x1B
0006cd 940e 1cbe 	CALL SUBOPT_0x1C
0006cf 93e0 0099 	STS  153,R30
                 ;      OCR3AL = ((2 * (servoInitError[18] + servo[18])) + timer3ms) & 0xff;
                +
0006d1 91a0 0a24+LDS R26 , _servoInitError + ( 36 )
                 	__GETB2MN _servoInitError,36
                +
0006d3 91e0 0a4c+LDS R30 , _servo + ( 36 )
                 	__GETB1MN _servo,36
0006d5 940e 1cf9 	CALL SUBOPT_0x23
                 ;      OCR3BH = ((2 * (servoInitError[19] + servo[19])) + timer3ms) >> 8;
                +
0006d7 91a0 0a26+LDS R26 , _servoInitError + ( 38 )
0006d9 91b0 0a27+LDS R27 , _servoInitError + ( 38 ) + 1
                 	__GETW2MN _servoInitError,38
0006db 940e 1d10 	CALL SUBOPT_0x26
0006dd 940e 1cb9 	CALL SUBOPT_0x1B
0006df 940e 1cbe 	CALL SUBOPT_0x1C
0006e1 93e0 009b 	STS  155,R30
                 ;      OCR3BL = ((2 * (servoInitError[19] + servo[19])) + timer3ms) & 0xff;
                +
0006e3 91a0 0a26+LDS R26 , _servoInitError + ( 38 )
                 	__GETB2MN _servoInitError,38
                +
0006e5 91e0 0a4e+LDS R30 , _servo + ( 38 )
                 	__GETB1MN _servo,38
0006e7 940e 1cff 	CALL SUBOPT_0x24
                 ;      TCNT3H = timer3ms >> 8;
                 ;      TCNT3L = timer3ms & 0xff;
                 ;      Timeslot2 = 4;
0006e9 e0e4      	LDI  R30,LOW(4)
0006ea c062      	RJMP _0x265
                 ;      break;
                 ;
                 ;    case 4:
                 _0x92:
0006eb 30e4      	CPI  R30,LOW(0x4)
0006ec e0a0      	LDI  R26,HIGH(0x4)
0006ed 07fa      	CPC  R31,R26
0006ee f541      	BRNE _0x97
                 ;
                 ;        if(hitungTendang > 0){
0006ef 91a0 0bc8 	LDS  R26,_hitungTendang
0006f1 91b0 0bc9 	LDS  R27,_hitungTendang+1
0006f3 940e 2706 	CALL __CPW02
0006f5 f424      	BRGE _0x98
                 ;            hitungTendang--;
0006f6 eca8      	LDI  R26,LOW(_hitungTendang)
0006f7 e0bb      	LDI  R27,HIGH(_hitungTendang)
0006f8 940e 1bf2 	CALL SUBOPT_0x3
                 ;        }
                 ;
                 ;        if(hitung > 0){
                 _0x98:
0006fa 91a0 0bf5 	LDS  R26,_hitung
0006fc 91b0 0bf6 	LDS  R27,_hitung+1
0006fe 940e 2706 	CALL __CPW02
000700 f424      	BRGE _0x99
                 ;         hitung--;
000701 efa5      	LDI  R26,LOW(_hitung)
000702 e0bb      	LDI  R27,HIGH(_hitung)
000703 940e 1bf2 	CALL SUBOPT_0x3
                 ;        }
                 ;
                 ;        if(hitungNgawur > 0){
                 _0x99:
000705 940e 1d15 	CALL SUBOPT_0x27
000707 f424      	BRGE _0x9A
                 ;         hitungNgawur--;
000708 eca0      	LDI  R26,LOW(_hitungNgawur)
000709 e0bb      	LDI  R27,HIGH(_hitungNgawur)
00070a 940e 1bf2 	CALL SUBOPT_0x3
                 ;        }
                 ;
                 ;        if(hitungWaras > 0){
                 _0x9A:
00070c 940e 1d1c 	CALL SUBOPT_0x28
00070e f424      	BRGE _0x9B
                 ;         hitungWaras--;
00070f eca4      	LDI  R26,LOW(_hitungWaras)
000710 e0bb      	LDI  R27,HIGH(_hitungWaras)
000711 940e 1bf2 	CALL SUBOPT_0x3
                 ;        }
                 ;
                 ;      TCNT3H = timer3ms >> 8;
                 _0x9B:
000713 940e 1d23 	CALL SUBOPT_0x29
                 ;      TCNT3L = timer3ms & 0xff;
                 ;      Timeslot2 = 5;
000715 e0e5      	LDI  R30,LOW(5)
000716 c036      	RJMP _0x265
                 ;      break;
                 ;
                 ;    case 5:
                 _0x97:
000717 30e5      	CPI  R30,LOW(0x5)
000718 e0a0      	LDI  R26,HIGH(0x5)
000719 07fa      	CPC  R31,R26
00071a f421      	BRNE _0x9C
                 ;//        miringDepan = (int) -1 *((DataMasuk[0]*2)-180);
                 ;//        miringSamping = (int) -1*((DataMasuk[1]*2)-180);
                 ;//        kompas = (int) (DataMasuk[2]*2);
                 ;//
                 ;//        pos_x = (int)DataMasukR[0]*2;
                 ;//        pos_y = (int)DataMasukR[1];
                 ;//
                 ;
                 ;      TCNT3H = timer3ms >> 8;
00071b 940e 1d23 	CALL SUBOPT_0x29
                 ;      TCNT3L = timer3ms & 0xff;
                 ;      Timeslot2 = 6;
00071d e0e6      	LDI  R30,LOW(6)
00071e c02e      	RJMP _0x265
                 ;      break;
                 ;
                 ;    case 6:
                 _0x9C:
00071f 30e6      	CPI  R30,LOW(0x6)
000720 e0a0      	LDI  R26,HIGH(0x6)
000721 07fa      	CPC  R31,R26
000722 f561      	BRNE _0x82
                 ;        count++;
000723 efa3      	LDI  R26,LOW(_count)
000724 e0bb      	LDI  R27,HIGH(_count)
000725 940e 1be5 	CALL SUBOPT_0x1
                 ;        if(count>=30){
000727 91a0 0bf3 	LDS  R26,_count
000729 91b0 0bf4 	LDS  R27,_count+1
00072b 975e      	SBIW R26,30
00072c f094      	BRLT _0x9E
                 ;         count=0;
00072d e0e0      	LDI  R30,LOW(0)
00072e 93e0 0bf3 	STS  _count,R30
000730 93e0 0bf4 	STS  _count+1,R30
                 ;         Ball=countBall;
000732 91e0 0bf7 	LDS  R30,_countBall
000734 91f0 0bf8 	LDS  R31,_countBall+1
000736 93e0 0bf9 	STS  _Ball,R30
000738 93f0 0bfa 	STS  _Ball+1,R31
                 ;         countBall=0;
00073a e0e0      	LDI  R30,LOW(0)
00073b 93e0 0bf7 	STS  _countBall,R30
00073d 93e0 0bf8 	STS  _countBall+1,R30
                 ;        }
                 ;
                 ;        if(Ball >= 5) buzzon;
                 _0x9E:
00073f 940e 1d2a 	CALL SUBOPT_0x2A
000741 9715      	SBIW R26,5
000742 f014      	BRLT _0x9F
000743 9aa7      	SBI  0x14,7
                 ;        else if (Ball <= 5) buzzoff;
000744 c005      	RJMP _0xA0
                 _0x9F:
000745 940e 1d2a 	CALL SUBOPT_0x2A
000747 9716      	SBIW R26,6
000748 f40c      	BRGE _0xA1
000749 98a7      	CBI  0x14,7
                 ;
                 ;
                 ;      TCNT3H = timer3ms >> 8;
                 _0xA1:
                 _0xA0:
00074a 940e 1d23 	CALL SUBOPT_0x29
                 ;      TCNT3L = timer3ms & 0xff;
                 ;      Timeslot2 = 0;
00074c e0e0      	LDI  R30,LOW(0)
                 _0x265:
00074d 93e0 0bdc 	STS  _Timeslot2,R30
                 ;  }
                 _0x82:
                 ;
                 ;}
00074f 940e 1bf8 	CALL SUBOPT_0x4
000751 9518      	RETI
                 ;
                 ;interrupt [TIM3_COMPA] void timer3_compa_isr(void)
                 ;{
                 _timer3_compa_isr:
000752 940e 1ca6 	CALL SUBOPT_0x18
                 ;switch (Timeslot2)
000754 940e 1cf6 	CALL SUBOPT_0x22
                 ;    {
                 ;    case 0:
000756 f0b9      	BREQ _0xA4
                 ;    break;
                 ;
                 ;    case 1:
000757 30e1      	CPI  R30,LOW(0x1)
000758 e0a0      	LDI  R26,HIGH(0x1)
000759 07fa      	CPC  R31,R26
00075a f411      	BRNE _0xA6
                 ;            taka1 = 0;
00075b 9888      	CBI  0x11,0
                 ;    break;
00075c c011      	RJMP _0xA4
                 ;
                 ;    case 2:
                 _0xA6:
00075d 30e2      	CPI  R30,LOW(0x2)
00075e e0a0      	LDI  R26,HIGH(0x2)
00075f 07fa      	CPC  R31,R26
000760 f411      	BRNE _0xA9
                 ;            taka2 = 0;
000761 9889      	CBI  0x11,1
                 ;    break;
000762 c00b      	RJMP _0xA4
                 ;
                 ;    case 3:
                 _0xA9:
000763 30e3      	CPI  R30,LOW(0x3)
000764 e0a0      	LDI  R26,HIGH(0x3)
000765 07fa      	CPC  R31,R26
000766 f411      	BRNE _0xAC
                 ;            taka3 = 0;
000767 988a      	CBI  0x11,2
                 ;    break;
000768 c005      	RJMP _0xA4
                 ;
                 ;    case 4:
                 _0xAC:
000769 30e4      	CPI  R30,LOW(0x4)
00076a e0a0      	LDI  R26,HIGH(0x4)
00076b 07fa      	CPC  R31,R26
00076c f409      	BRNE _0xAF
                 ;            pala1 = 0;
00076d 988b      	CBI  0x11,3
                 ;    break;
                 ;
                 ;    case 5:
                 _0xAF:
                 ;
                 ;    break;
                 ;
                 ;    case 6:
                 ;
                 ;    break;
                 ;    }
                 _0xA4:
                 ;
                 ;}
00076e c01c      	RJMP _0x28C
                 ;
                 ;interrupt [TIM3_COMPB] void timer3_compb_isr(void)
                 ;{
                 _timer3_compb_isr:
00076f 940e 1ca6 	CALL SUBOPT_0x18
                 ;switch (Timeslot2)
000771 940e 1cf6 	CALL SUBOPT_0x22
                 ;    {
                 ;    case 0:
000773 f0b9      	BREQ _0xB6
                 ;    break;
                 ;
                 ;    case 1:
000774 30e1      	CPI  R30,LOW(0x1)
000775 e0a0      	LDI  R26,HIGH(0x1)
000776 07fa      	CPC  R31,R26
000777 f411      	BRNE _0xB8
                 ;            taki1 = 0;
000778 988f      	CBI  0x11,7
                 ;    break;
000779 c011      	RJMP _0xB6
                 ;
                 ;    case 2:
                 _0xB8:
00077a 30e2      	CPI  R30,LOW(0x2)
00077b e0a0      	LDI  R26,HIGH(0x2)
00077c 07fa      	CPC  R31,R26
00077d f411      	BRNE _0xBB
                 ;            taki2 = 0;
00077e 988e      	CBI  0x11,6
                 ;    break;
00077f c00b      	RJMP _0xB6
                 ;
                 ;    case 3:
                 _0xBB:
000780 30e3      	CPI  R30,LOW(0x3)
000781 e0a0      	LDI  R26,HIGH(0x3)
000782 07fa      	CPC  R31,R26
000783 f411      	BRNE _0xBE
                 ;            taki3 = 0;
000784 988d      	CBI  0x11,5
                 ;    break;
000785 c005      	RJMP _0xB6
                 ;
                 ;    case 4:
                 _0xBE:
000786 30e4      	CPI  R30,LOW(0x4)
000787 e0a0      	LDI  R26,HIGH(0x4)
000788 07fa      	CPC  R31,R26
000789 f409      	BRNE _0xC1
                 ;            pala2 = 0;
00078a 988c      	CBI  0x11,4
                 ;    break;
                 ;
                 ;    case 5:
                 _0xC1:
                 ;
                 ;    break;
                 ;
                 ;    case 6:
                 ;
                 ;    break;
                 ;    }
                 _0xB6:
                 ;}
                 _0x28C:
00078b 91e9      	LD   R30,Y+
00078c bfef      	OUT  SREG,R30
00078d 91f9      	LD   R31,Y+
00078e 91e9      	LD   R30,Y+
00078f 91a9      	LD   R26,Y+
000790 9518      	RETI
                 ;
                 ;void taskGerakan()
                 ; 0000 0086 {
                 _taskGerakan:
                 ; 0000 0087     if (langkah <= 0)
000791 91a0 0a82 	LDS  R26,_langkah
000793 91b0 0a83 	LDS  R27,_langkah+1
000795 940e 2706 	CALL __CPW02
000797 f414      	BRGE PC+3
000798 940c 083c 	JMP _0xC6
                 ; 0000 0088     {
                 ; 0000 0089 //        printf("===XYZ %0.2f %0.2f %0.2f || ",X[0],Y[0],Z[0]);
                 ; 0000 008A //        printf("===XYZ %0.2f %0.2f %0.2f \n",X[1],Y[1],Z[1]);
                 ; 0000 008B 
                 ; 0000 008C         if (VX != 0 || VY != 0 || W != 0)
00079a 940e 1d2f 	CALL SUBOPT_0x2B
00079c f431      	BRNE _0xC8
00079d 940e 1d3a 	CALL SUBOPT_0x2C
00079f f419      	BRNE _0xC8
0007a0 940e 1d45 	CALL SUBOPT_0x2D
0007a2 f029      	BREQ _0xC7
                 _0xC8:
                 ; 0000 008D         {
                 ; 0000 008E           countGerakan++;
0007a3 e7ac      	LDI  R26,LOW(_countGerakan)
0007a4 e0ba      	LDI  R27,HIGH(_countGerakan)
0007a5 940e 1be5 	CALL SUBOPT_0x1
                 ; 0000 008F         }
                 ; 0000 0090         else
0007a7 c005      	RJMP _0xCA
                 _0xC7:
                 ; 0000 0091         {
                 ; 0000 0092           countGerakan = 0;
0007a8 e0e0      	LDI  R30,LOW(0)
0007a9 93e0 0a7c 	STS  _countGerakan,R30
0007ab 93e0 0a7d 	STS  _countGerakan+1,R30
                 ; 0000 0093         }
                 _0xCA:
                 ; 0000 0094 
                 ; 0000 0095         if (countGerakan > jumlahGerak)
0007ad 91e0 0a86 	LDS  R30,_jumlahGerak
0007af 91f0 0a87 	LDS  R31,_jumlahGerak+1
0007b1 91a0 0a7c 	LDS  R26,_countGerakan
0007b3 91b0 0a7d 	LDS  R27,_countGerakan+1
0007b5 17ea      	CP   R30,R26
0007b6 07fb      	CPC  R31,R27
0007b7 f4ac      	BRGE _0xCB
                 ; 0000 0096         {
                 ; 0000 0097           if (VX != 0 || VY != 0 || W != 0 )
0007b8 940e 1d2f 	CALL SUBOPT_0x2B
0007ba f431      	BRNE _0xCD
0007bb 940e 1d3a 	CALL SUBOPT_0x2C
0007bd f419      	BRNE _0xCD
0007be 940e 1d45 	CALL SUBOPT_0x2D
0007c0 f039      	BREQ _0xCC
                 _0xCD:
                 ; 0000 0098             countGerakan = 1;
0007c1 e0e1      	LDI  R30,LOW(1)
0007c2 e0f0      	LDI  R31,HIGH(1)
0007c3 93e0 0a7c 	STS  _countGerakan,R30
0007c5 93f0 0a7d 	STS  _countGerakan+1,R31
                 ; 0000 0099           else
0007c7 c005      	RJMP _0xCF
                 _0xCC:
                 ; 0000 009A             countGerakan = 0;
0007c8 e0e0      	LDI  R30,LOW(0)
0007c9 93e0 0a7c 	STS  _countGerakan,R30
0007cb 93e0 0a7d 	STS  _countGerakan+1,R30
                 ; 0000 009B         }
                 _0xCF:
                 ; 0000 009C 
                 ; 0000 009D         langkah = langkahMax;
                 _0xCB:
0007cd 940e 1d50 	CALL SUBOPT_0x2E
0007cf 93e0 0a82 	STS  _langkah,R30
0007d1 93f0 0a83 	STS  _langkah+1,R31
                 ; 0000 009E         for (countNo = 0; countNo < 2; countNo++)
0007d3 940e 1c2f 	CALL SUBOPT_0xA
                 _0xD1:
0007d5 940e 1c35 	CALL SUBOPT_0xB
0007d7 f014      	BRLT PC+3
0007d8 940c 083b 	JMP _0xD2
                 ; 0000 009F         {
                 ; 0000 00A0             Xerror[countNo] = (X[countNo] - Xset[countNo]) / langkahMax;
0007da 940e 1d55 	CALL SUBOPT_0x2F
0007dc 0fea      	ADD  R30,R26
0007dd 1ffb      	ADC  R31,R27
0007de 93ff      	PUSH R31
0007df 93ef      	PUSH R30
0007e0 940e 1d5b 	CALL SUBOPT_0x30
0007e2 940e 1d61 	CALL SUBOPT_0x31
0007e4 937f      	PUSH R23
0007e5 936f      	PUSH R22
0007e6 93ff      	PUSH R31
0007e7 93ef      	PUSH R30
0007e8 940e 1c3b 	CALL SUBOPT_0xC
0007ea 940e 1c40 	CALL SUBOPT_0xD
0007ec 940e 1d61 	CALL SUBOPT_0x31
0007ee 91af      	POP  R26
0007ef 91bf      	POP  R27
0007f0 918f      	POP  R24
0007f1 919f      	POP  R25
0007f2 940e 1d66 	CALL SUBOPT_0x32
0007f4 91af      	POP  R26
0007f5 91bf      	POP  R27
0007f6 940e 1d74 	CALL SUBOPT_0x33
                 ; 0000 00A1             Yerror[countNo] = (Y[countNo] - Yset[countNo]) / langkahMax;
0007f8 efa0      	LDI  R26,LOW(_Yerror)
0007f9 e0ba      	LDI  R27,HIGH(_Yerror)
0007fa 940e 1d77 	CALL SUBOPT_0x34
0007fc 93ff      	PUSH R31
0007fd 93ef      	PUSH R30
0007fe 940e 1c3b 	CALL SUBOPT_0xC
000800 eca0      	LDI  R26,LOW(_Y)
000801 e0ba      	LDI  R27,HIGH(_Y)
000802 940e 1d7c 	CALL SUBOPT_0x35
000804 937f      	PUSH R23
000805 936f      	PUSH R22
000806 93ff      	PUSH R31
000807 93ef      	PUSH R30
000808 940e 1c3b 	CALL SUBOPT_0xC
00080a 940e 1c51 	CALL SUBOPT_0x10
00080c 940e 1d61 	CALL SUBOPT_0x31
00080e 91af      	POP  R26
00080f 91bf      	POP  R27
000810 918f      	POP  R24
000811 919f      	POP  R25
000812 940e 1d66 	CALL SUBOPT_0x32
000814 91af      	POP  R26
000815 91bf      	POP  R27
000816 940e 1d74 	CALL SUBOPT_0x33
                 ; 0000 00A2             Zerror[countNo] = (Z[countNo] - Zset[countNo]) / langkahMax;
000818 efa8      	LDI  R26,LOW(_Zerror)
000819 e0ba      	LDI  R27,HIGH(_Zerror)
00081a 940e 1d77 	CALL SUBOPT_0x34
00081c 93ff      	PUSH R31
00081d 93ef      	PUSH R30
00081e 940e 1c3b 	CALL SUBOPT_0xC
000820 eca8      	LDI  R26,LOW(_Z)
000821 e0ba      	LDI  R27,HIGH(_Z)
000822 940e 1d7c 	CALL SUBOPT_0x35
000824 937f      	PUSH R23
000825 936f      	PUSH R22
000826 93ff      	PUSH R31
000827 93ef      	PUSH R30
000828 940e 1c3b 	CALL SUBOPT_0xC
00082a 940e 1c5f 	CALL SUBOPT_0x12
00082c 940e 1d61 	CALL SUBOPT_0x31
00082e 91af      	POP  R26
00082f 91bf      	POP  R27
000830 918f      	POP  R24
000831 919f      	POP  R25
000832 940e 1d66 	CALL SUBOPT_0x32
000834 91af      	POP  R26
000835 91bf      	POP  R27
000836 940e 26c2 	CALL __PUTDP1
                 ; 0000 00A3         }
000838 940e 1c70 	CALL SUBOPT_0x15
00083a cf9a      	RJMP _0xD1
                 _0xD2:
                 ; 0000 00A4     }
                 ; 0000 00A5     else
00083b c09c      	RJMP _0xD3
                 _0xC6:
                 ; 0000 00A6     {
                 ; 0000 00A7         for (countNo = 0; countNo < 2; countNo++)
00083c 940e 1c2f 	CALL SUBOPT_0xA
                 _0xD5:
00083e 940e 1c35 	CALL SUBOPT_0xB
000840 f014      	BRLT PC+3
000841 940c 089d 	JMP _0xD6
                 ; 0000 00A8         {
                 ; 0000 00A9             Xset[countNo] += Xerror[countNo]; Yset[countNo] += Yerror[countNo]; Zset[countNo] += Zerror[countNo];
000843 940e 1c3b 	CALL SUBOPT_0xC
000845 940e 1c40 	CALL SUBOPT_0xD
000847 0fea      	ADD  R30,R26
000848 1ffb      	ADC  R31,R27
000849 93ff      	PUSH R31
00084a 93ef      	PUSH R30
00084b 01df      	MOVW R26,R30
00084c 940e 26bc 	CALL __GETD1P
00084e 937f      	PUSH R23
00084f 936f      	PUSH R22
000850 93ff      	PUSH R31
000851 93ef      	PUSH R30
000852 940e 1d55 	CALL SUBOPT_0x2F
000854 940e 1d61 	CALL SUBOPT_0x31
000856 91af      	POP  R26
000857 91bf      	POP  R27
000858 918f      	POP  R24
000859 919f      	POP  R25
00085a 940e 24cf 	CALL __ADDF12
00085c 91af      	POP  R26
00085d 91bf      	POP  R27
00085e 940e 1d74 	CALL SUBOPT_0x33
000860 940e 1c51 	CALL SUBOPT_0x10
000862 0fea      	ADD  R30,R26
000863 1ffb      	ADC  R31,R27
000864 93ff      	PUSH R31
000865 93ef      	PUSH R30
000866 01df      	MOVW R26,R30
000867 940e 26bc 	CALL __GETD1P
000869 937f      	PUSH R23
00086a 936f      	PUSH R22
00086b 93ff      	PUSH R31
00086c 93ef      	PUSH R30
00086d 940e 1c3b 	CALL SUBOPT_0xC
00086f efa0      	LDI  R26,LOW(_Yerror)
000870 e0ba      	LDI  R27,HIGH(_Yerror)
000871 940e 1d7c 	CALL SUBOPT_0x35
000873 91af      	POP  R26
000874 91bf      	POP  R27
000875 918f      	POP  R24
000876 919f      	POP  R25
000877 940e 24cf 	CALL __ADDF12
000879 91af      	POP  R26
00087a 91bf      	POP  R27
00087b 940e 1d74 	CALL SUBOPT_0x33
00087d 940e 1c5f 	CALL SUBOPT_0x12
00087f 0fea      	ADD  R30,R26
000880 1ffb      	ADC  R31,R27
000881 93ff      	PUSH R31
000882 93ef      	PUSH R30
000883 01df      	MOVW R26,R30
000884 940e 26bc 	CALL __GETD1P
000886 937f      	PUSH R23
000887 936f      	PUSH R22
000888 93ff      	PUSH R31
000889 93ef      	PUSH R30
00088a 940e 1c3b 	CALL SUBOPT_0xC
00088c efa8      	LDI  R26,LOW(_Zerror)
00088d e0ba      	LDI  R27,HIGH(_Zerror)
00088e 940e 1d7c 	CALL SUBOPT_0x35
000890 91af      	POP  R26
000891 91bf      	POP  R27
000892 918f      	POP  R24
000893 919f      	POP  R25
000894 940e 24cf 	CALL __ADDF12
000896 91af      	POP  R26
000897 91bf      	POP  R27
000898 940e 26c2 	CALL __PUTDP1
                 ; 0000 00AA         }
00089a 940e 1c70 	CALL SUBOPT_0x15
00089c cfa1      	RJMP _0xD5
                 _0xD6:
                 ; 0000 00AB //        printf("XYZset %0.2f %0.2f %0.2f || ",Xset[0],Yset[0],Zset[0]);
                 ; 0000 00AC //        printf("XYZset %0.2f %0.2f %0.2f \n",Xset[1],Yset[1],Zset[1]);
                 ; 0000 00AD         inversKinematic();
00089d d03b      	RCALL _inversKinematic
                 ; 0000 00AE         for (countNo = 0; countNo < 12; countNo++)
00089e 940e 1c2f 	CALL SUBOPT_0xA
                 _0xD8:
0008a0 91a0 0a8a 	LDS  R26,_countNo
0008a2 91b0 0a8b 	LDS  R27,_countNo+1
0008a4 971c      	SBIW R26,12
0008a5 f574      	BRGE _0xD9
                 ; 0000 00AF         {
                 ; 0000 00B0           if (servoSet[countNo] >= 2500)
0008a6 940e 1d7f 	CALL SUBOPT_0x36
0008a8 940e 26b8 	CALL __GETW1P
0008aa 3ce4      	CPI  R30,LOW(0x9C4)
0008ab e0a9      	LDI  R26,HIGH(0x9C4)
0008ac 07fa      	CPC  R31,R26
0008ad f02c      	BRLT _0xDA
                 ; 0000 00B1             servoSet[countNo] = 2500;
0008ae 940e 1d7f 	CALL SUBOPT_0x36
0008b0 ece4      	LDI  R30,LOW(2500)
0008b1 e0f9      	LDI  R31,HIGH(2500)
0008b2 c00c      	RJMP _0x266
                 ; 0000 00B2           else if (servoSet[countNo] <= 500)
                 _0xDA:
0008b3 940e 1d7f 	CALL SUBOPT_0x36
0008b5 940e 26b8 	CALL __GETW1P
0008b7 3fe5      	CPI  R30,LOW(0x1F5)
0008b8 e0a1      	LDI  R26,HIGH(0x1F5)
0008b9 07fa      	CPC  R31,R26
0008ba f434      	BRGE _0xDC
                 ; 0000 00B3             servoSet[countNo] = 500;
0008bb 940e 1d7f 	CALL SUBOPT_0x36
0008bd efe4      	LDI  R30,LOW(500)
0008be e0f1      	LDI  R31,HIGH(500)
                 _0x266:
0008bf 93ed      	ST   X+,R30
0008c0 93fc      	ST   X,R31
                 ; 0000 00B4           servo[countNo] = (int)(servoSet[countNo]);
                 _0xDC:
0008c1 940e 1c3b 	CALL SUBOPT_0xC
0008c3 e2a8      	LDI  R26,LOW(_servo)
0008c4 e0ba      	LDI  R27,HIGH(_servo)
0008c5 0fee      	LSL  R30
0008c6 1fff      	ROL  R31
0008c7 0fea      	ADD  R30,R26
0008c8 1ffb      	ADC  R31,R27
0008c9 010f      	MOVW R0,R30
0008ca 940e 1d7f 	CALL SUBOPT_0x36
0008cc 940e 26b8 	CALL __GETW1P
0008ce 01d0      	MOVW R26,R0
0008cf 93ed      	ST   X+,R30
0008d0 93fc      	ST   X,R31
                 ; 0000 00B5         }
0008d1 940e 1c70 	CALL SUBOPT_0x15
0008d3 cfcc      	RJMP _0xD8
                 _0xD9:
                 ; 0000 00B6         langkah--;
0008d4 e8a2      	LDI  R26,LOW(_langkah)
0008d5 e0ba      	LDI  R27,HIGH(_langkah)
0008d6 940e 1bf2 	CALL SUBOPT_0x3
                 ; 0000 00B7     }
                 _0xD3:
                 ; 0000 00B8 }
0008d8 9508      	RET
                 ;
                 ;void inversKinematic()
                 ; 0000 00BB {
                 _inversKinematic:
                 ; 0000 00BC     for(I=0;I<2;I++)
0008d9 e0e0      	LDI  R30,LOW(0)
0008da 93e0 0a7e 	STS  _I,R30
0008dc 93e0 0a7f 	STS  _I+1,R30
                 _0xDE:
0008de 91a0 0a7e 	LDS  R26,_I
0008e0 91b0 0a7f 	LDS  R27,_I+1
0008e2 9712      	SBIW R26,2
0008e3 f014      	BRLT PC+3
0008e4 940c 0a49 	JMP _0xDF
                 ; 0000 00BD     {
                 ; 0000 00BE       XiKuadrat = Xset[I] * Xset[I];
0008e6 940e 1d83 	CALL SUBOPT_0x37
0008e8 940e 1c40 	CALL SUBOPT_0xD
0008ea 940e 1d61 	CALL SUBOPT_0x31
0008ec 940e 1d88 	CALL SUBOPT_0x38
0008ee 93e0 0b10 	STS  _XiKuadrat,R30
0008f0 93f0 0b11 	STS  _XiKuadrat+1,R31
0008f2 9360 0b12 	STS  _XiKuadrat+2,R22
0008f4 9370 0b13 	STS  _XiKuadrat+3,R23
                 ; 0000 00BF       YiKuadrat = Yset[I] * Yset[I];
0008f6 940e 1d83 	CALL SUBOPT_0x37
0008f8 940e 1c51 	CALL SUBOPT_0x10
0008fa 940e 1d61 	CALL SUBOPT_0x31
0008fc 940e 1d88 	CALL SUBOPT_0x38
0008fe 93e0 0b14 	STS  _YiKuadrat,R30
000900 93f0 0b15 	STS  _YiKuadrat+1,R31
000902 9360 0b16 	STS  _YiKuadrat+2,R22
000904 9370 0b17 	STS  _YiKuadrat+3,R23
                 ; 0000 00C0       ZiKuadrat = Zset[I] * Zset[I];
000906 940e 1d83 	CALL SUBOPT_0x37
000908 940e 1c5f 	CALL SUBOPT_0x12
00090a 940e 1d61 	CALL SUBOPT_0x31
00090c 940e 1d88 	CALL SUBOPT_0x38
00090e 93e0 0b18 	STS  _ZiKuadrat,R30
000910 93f0 0b19 	STS  _ZiKuadrat+1,R31
000912 9360 0b1a 	STS  _ZiKuadrat+2,R22
000914 9370 0b1b 	STS  _ZiKuadrat+3,R23
                 ; 0000 00C1 
                 ; 0000 00C2       bi = sqrt(XiKuadrat + ZiKuadrat) - L1 - L4;
000916 91a0 0b10 	LDS  R26,_XiKuadrat
000918 91b0 0b11 	LDS  R27,_XiKuadrat+1
00091a 9180 0b12 	LDS  R24,_XiKuadrat+2
00091c 9190 0b13 	LDS  R25,_XiKuadrat+3
00091e 940e 1d8d 	CALL SUBOPT_0x39
000920 940e 1c00 	CALL SUBOPT_0x5
000922 940e 24c8 	CALL __SUBF12
000924 940e 1c26 	CALL SUBOPT_0x9
000926 940e 24c8 	CALL __SUBF12
000928 93e0 0b1c 	STS  _bi,R30
00092a 93f0 0b1d 	STS  _bi+1,R31
00092c 9360 0b1e 	STS  _bi+2,R22
00092e 9370 0b1f 	STS  _bi+3,R23
                 ; 0000 00C3       biKuadrat = bi * bi;
000930 940e 1d93 	CALL SUBOPT_0x3A
000932 940e 251f 	CALL __MULF12
000934 93e0 0b20 	STS  _biKuadrat,R30
000936 93f0 0b21 	STS  _biKuadrat+1,R31
000938 9360 0b22 	STS  _biKuadrat+2,R22
00093a 9370 0b23 	STS  _biKuadrat+3,R23
                 ; 0000 00C4       ai = sqrt(biKuadrat + YiKuadrat);
00093c 91e0 0b14 	LDS  R30,_YiKuadrat
00093e 91f0 0b15 	LDS  R31,_YiKuadrat+1
000940 9160 0b16 	LDS  R22,_YiKuadrat+2
000942 9170 0b17 	LDS  R23,_YiKuadrat+3
000944 91a0 0b20 	LDS  R26,_biKuadrat
000946 91b0 0b21 	LDS  R27,_biKuadrat+1
000948 9180 0b22 	LDS  R24,_biKuadrat+2
00094a 9190 0b23 	LDS  R25,_biKuadrat+3
00094c 940e 1d8d 	CALL SUBOPT_0x39
00094e 93e0 0b24 	STS  _ai,R30
000950 93f0 0b25 	STS  _ai+1,R31
000952 9360 0b26 	STS  _ai+2,R22
000954 9370 0b27 	STS  _ai+3,R23
                 ; 0000 00C5       aiKuadrat = ai * ai;
000956 940e 1d9c 	CALL SUBOPT_0x3B
000958 91a0 0b24 	LDS  R26,_ai
00095a 91b0 0b25 	LDS  R27,_ai+1
00095c 9180 0b26 	LDS  R24,_ai+2
00095e 9190 0b27 	LDS  R25,_ai+3
000960 940e 251f 	CALL __MULF12
000962 93e0 0b28 	STS  _aiKuadrat,R30
000964 93f0 0b29 	STS  _aiKuadrat+1,R31
000966 9360 0b2a 	STS  _aiKuadrat+2,R22
000968 9370 0b2b 	STS  _aiKuadrat+3,R23
                 ; 0000 00C6       gamai = atan2(Yset[I],bi);
00096a 940e 1d83 	CALL SUBOPT_0x37
00096c 940e 1c51 	CALL SUBOPT_0x10
00096e 940e 1d61 	CALL SUBOPT_0x31
000970 940e 26db 	CALL __PUTPARD1
000972 940e 1d93 	CALL SUBOPT_0x3A
000974 940e 1b4e 	CALL _atan2
000976 93e0 0b30 	STS  _gamai,R30
000978 93f0 0b31 	STS  _gamai+1,R31
00097a 9360 0b32 	STS  _gamai+2,R22
00097c 9370 0b33 	STS  _gamai+3,R23
                 ; 0000 00C7       A1[I] = atan2(Xset[I],Zset[I]);
00097e 940e 1d83 	CALL SUBOPT_0x37
000980 e4a0      	LDI  R26,LOW(_A1)
000981 e0bb      	LDI  R27,HIGH(_A1)
000982 940e 1d77 	CALL SUBOPT_0x34
000984 93ff      	PUSH R31
000985 93ef      	PUSH R30
000986 940e 1d83 	CALL SUBOPT_0x37
000988 940e 1c40 	CALL SUBOPT_0xD
00098a 940e 1d61 	CALL SUBOPT_0x31
00098c 940e 26db 	CALL __PUTPARD1
00098e 940e 1d83 	CALL SUBOPT_0x37
000990 940e 1c5f 	CALL SUBOPT_0x12
000992 940e 1d61 	CALL SUBOPT_0x31
000994 01df      	MOVW R26,R30
000995 01cb      	MOVW R24,R22
000996 940e 1b4e 	CALL _atan2
000998 91af      	POP  R26
000999 91bf      	POP  R27
00099a 940e 1da5 	CALL SUBOPT_0x3C
                 ; 0000 00C8       A3[I] = acos((aiKuadrat - L2Kuadrat - L3Kuadrat) / (2 * L2 * L3));
00099c 940e 1d77 	CALL SUBOPT_0x34
00099e 93ff      	PUSH R31
00099f 93ef      	PUSH R30
0009a0 940e 1dab 	CALL SUBOPT_0x3D
0009a2 91e0 0b28 	LDS  R30,_aiKuadrat
0009a4 91f0 0b29 	LDS  R31,_aiKuadrat+1
0009a6 9160 0b2a 	LDS  R22,_aiKuadrat+2
0009a8 9170 0b2b 	LDS  R23,_aiKuadrat+3
0009aa 940e 24c8 	CALL __SUBF12
0009ac 91a0 0b08 	LDS  R26,_L3Kuadrat
0009ae 91b0 0b09 	LDS  R27,_L3Kuadrat+1
0009b0 9180 0b0a 	LDS  R24,_L3Kuadrat+2
0009b2 9190 0b0b 	LDS  R25,_L3Kuadrat+3
0009b4 940e 24c8 	CALL __SUBF12
0009b6 937f      	PUSH R23
0009b7 936f      	PUSH R22
0009b8 93ff      	PUSH R31
0009b9 93ef      	PUSH R30
0009ba 940e 1db4 	CALL SUBOPT_0x3E
0009bc 91af      	POP  R26
0009bd 91bf      	POP  R27
0009be 918f      	POP  R24
0009bf 919f      	POP  R25
0009c0 940e 1dbc 	CALL SUBOPT_0x3F
0009c2 91af      	POP  R26
0009c3 91bf      	POP  R27
0009c4 940e 1da5 	CALL SUBOPT_0x3C
                 ; 0000 00C9       ci = L3 * cos(A3[I]);
0009c6 940e 1d7c 	CALL SUBOPT_0x35
0009c8 01df      	MOVW R26,R30
0009c9 01cb      	MOVW R24,R22
0009ca 940e 1a66 	CALL _cos
0009cc 940e 1c1b 	CALL SUBOPT_0x8
0009ce 93e0 0b2c 	STS  _ci,R30
0009d0 93f0 0b2d 	STS  _ci+1,R31
0009d2 9360 0b2e 	STS  _ci+2,R22
0009d4 9370 0b2f 	STS  _ci+3,R23
                 ; 0000 00CA       betai = acos((L2 + ci) / ai);
0009d6 940e 1c12 	CALL SUBOPT_0x7
0009d8 940e 24cf 	CALL __ADDF12
0009da 01df      	MOVW R26,R30
0009db 01cb      	MOVW R24,R22
0009dc 940e 1d9c 	CALL SUBOPT_0x3B
0009de 940e 1dbc 	CALL SUBOPT_0x3F
0009e0 93e0 0b34 	STS  _betai,R30
0009e2 93f0 0b35 	STS  _betai+1,R31
0009e4 9360 0b36 	STS  _betai+2,R22
0009e6 9370 0b37 	STS  _betai+3,R23
                 ; 0000 00CB       A2[I] = -(gamai + betai);
0009e8 940e 1d83 	CALL SUBOPT_0x37
0009ea e4a8      	LDI  R26,LOW(_A2)
0009eb e0bb      	LDI  R27,HIGH(_A2)
0009ec 940e 1d77 	CALL SUBOPT_0x34
0009ee 93ff      	PUSH R31
0009ef 93ef      	PUSH R30
0009f0 91e0 0b34 	LDS  R30,_betai
0009f2 91f0 0b35 	LDS  R31,_betai+1
0009f4 9160 0b36 	LDS  R22,_betai+2
0009f6 9170 0b37 	LDS  R23,_betai+3
0009f8 91a0 0b30 	LDS  R26,_gamai
0009fa 91b0 0b31 	LDS  R27,_gamai+1
0009fc 9180 0b32 	LDS  R24,_gamai+2
0009fe 9190 0b33 	LDS  R25,_gamai+3
000a00 940e 1dc2 	CALL SUBOPT_0x40
000a02 91af      	POP  R26
000a03 91bf      	POP  R27
000a04 940e 26c2 	CALL __PUTDP1
                 ; 0000 00CC       alphai[I] = acos((L2Kuadrat + L3Kuadrat - aiKuadrat) / (2 * L2 * L3));
000a06 940e 1d83 	CALL SUBOPT_0x37
000a08 e3a8      	LDI  R26,LOW(_alphai)
000a09 e0bb      	LDI  R27,HIGH(_alphai)
000a0a 940e 1d77 	CALL SUBOPT_0x34
000a0c 93ff      	PUSH R31
000a0d 93ef      	PUSH R30
000a0e 91e0 0b08 	LDS  R30,_L3Kuadrat
000a10 91f0 0b09 	LDS  R31,_L3Kuadrat+1
000a12 9160 0b0a 	LDS  R22,_L3Kuadrat+2
000a14 9170 0b0b 	LDS  R23,_L3Kuadrat+3
000a16 940e 1dab 	CALL SUBOPT_0x3D
000a18 940e 24cf 	CALL __ADDF12
000a1a 91a0 0b28 	LDS  R26,_aiKuadrat
000a1c 91b0 0b29 	LDS  R27,_aiKuadrat+1
000a1e 9180 0b2a 	LDS  R24,_aiKuadrat+2
000a20 9190 0b2b 	LDS  R25,_aiKuadrat+3
000a22 940e 24c8 	CALL __SUBF12
000a24 937f      	PUSH R23
000a25 936f      	PUSH R22
000a26 93ff      	PUSH R31
000a27 93ef      	PUSH R30
000a28 940e 1db4 	CALL SUBOPT_0x3E
000a2a 91af      	POP  R26
000a2b 91bf      	POP  R27
000a2c 918f      	POP  R24
000a2d 919f      	POP  R25
000a2e 940e 1dbc 	CALL SUBOPT_0x3F
000a30 91af      	POP  R26
000a31 91bf      	POP  R27
000a32 940e 26c2 	CALL __PUTDP1
                 ; 0000 00CD       A5[I] = A1[I];
000a34 940e 1d83 	CALL SUBOPT_0x37
000a36 e5a8      	LDI  R26,LOW(_A5)
000a37 e0bb      	LDI  R27,HIGH(_A5)
000a38 940e 1d77 	CALL SUBOPT_0x34
000a3a 010f      	MOVW R0,R30
000a3b 940e 1d83 	CALL SUBOPT_0x37
000a3d e4a0      	LDI  R26,LOW(_A1)
000a3e e0bb      	LDI  R27,HIGH(_A1)
000a3f 940e 1d7c 	CALL SUBOPT_0x35
000a41 01d0      	MOVW R26,R0
000a42 940e 26c2 	CALL __PUTDP1
                 ; 0000 00CE     }
000a44 e7ae      	LDI  R26,LOW(_I)
000a45 e0ba      	LDI  R27,HIGH(_I)
000a46 940e 1be5 	CALL SUBOPT_0x1
000a48 ce95      	RJMP _0xDE
                 _0xDF:
                 ; 0000 00CF 
                 ; 0000 00D0     //kaki kanan
                 ; 0000 00D1     sudutSet[5]  = 90+10; //pinggul
                +
000a49 e7e8     +LDI R30 , LOW ( _sudutSet + ( 20 ) )
000a4a e0fb     +LDI R31 , HIGH ( _sudutSet + ( 20 ) )
                 	__POINTW1MN _sudutSet,20
                +
000a4b e0a0     +LDI R26 , LOW ( 0x42C80000 )
000a4c e0b0     +LDI R27 , HIGH ( 0x42C80000 )
000a4d ec88     +LDI R24 , BYTE3 ( 0x42C80000 )
000a4e e492     +LDI R25 , BYTE4 ( 0x42C80000 )
                 	__GETD2N 0x42C80000
000a4f 940e 1c6d 	CALL SUBOPT_0x14
                 ; 0000 00D2     sudutSet[4]  = (A1[0] * (rad))+90;
000a51 940e 1dc7 	CALL SUBOPT_0x41
000a53 91a0 0b40 	LDS  R26,_A1
000a55 91b0 0b41 	LDS  R27,_A1+1
000a57 9180 0b42 	LDS  R24,_A1+2
000a59 9190 0b43 	LDS  R25,_A1+3
000a5b 940e 1dd0 	CALL SUBOPT_0x42
                +
000a5d 93e0 0b74+STS _sudutSet + ( 16 ) , R30
000a5f 93f0 0b75+STS _sudutSet + ( 16 ) + 1 , R31
000a61 9360 0b76+STS _sudutSet + ( 16 ) + 2 , R22
000a63 9370 0b77+STS _sudutSet + ( 16 ) + 3 , R23
                 	__PUTD1MN _sudutSet,16
                 ; 0000 00D3     sudutSet[3]  = (A2[0] * (rad));
000a65 940e 1dc7 	CALL SUBOPT_0x41
000a67 91a0 0b48 	LDS  R26,_A2
000a69 91b0 0b49 	LDS  R27,_A2+1
000a6b 9180 0b4a 	LDS  R24,_A2+2
000a6d 9190 0b4b 	LDS  R25,_A2+3
000a6f 940e 251f 	CALL __MULF12
000a71 940e 1dd9 	CALL SUBOPT_0x43
                 ; 0000 00D4     sudutSet[2]  = (A3[0] * (rad))+90;
000a73 940e 1dc7 	CALL SUBOPT_0x41
000a75 91a0 0b50 	LDS  R26,_A3
000a77 91b0 0b51 	LDS  R27,_A3+1
000a79 9180 0b52 	LDS  R24,_A3+2
000a7b 9190 0b53 	LDS  R25,_A3+3
000a7d 940e 1dd0 	CALL SUBOPT_0x42
                +
000a7f 93e0 0b6c+STS _sudutSet + ( 8 ) , R30
000a81 93f0 0b6d+STS _sudutSet + ( 8 ) + 1 , R31
000a83 9360 0b6e+STS _sudutSet + ( 8 ) + 2 , R22
000a85 9370 0b6f+STS _sudutSet + ( 8 ) + 3 , R23
                 	__PUTD1MN _sudutSet,8
                 ; 0000 00D5     sudutSet[1]  = (-(180 - (alphai[0] * (rad)) + (sudutSet[3])))+95;
000a87 940e 1dc7 	CALL SUBOPT_0x41
000a89 91a0 0b38 	LDS  R26,_alphai
000a8b 91b0 0b39 	LDS  R27,_alphai+1
000a8d 9180 0b3a 	LDS  R24,_alphai+2
000a8f 9190 0b3b 	LDS  R25,_alphai+3
000a91 940e 1de2 	CALL SUBOPT_0x44
000a93 940e 1def 	CALL SUBOPT_0x45
000a95 940e 1dc2 	CALL SUBOPT_0x40
                +
000a97 e0a0     +LDI R26 , LOW ( 0x42BE0000 )
000a98 e0b0     +LDI R27 , HIGH ( 0x42BE0000 )
000a99 eb8e     +LDI R24 , BYTE3 ( 0x42BE0000 )
000a9a e492     +LDI R25 , BYTE4 ( 0x42BE0000 )
                 	__GETD2N 0x42BE0000
000a9b 940e 24cf 	CALL __ADDF12
                +
000a9d 93e0 0b68+STS _sudutSet + ( 4 ) , R30
000a9f 93f0 0b69+STS _sudutSet + ( 4 ) + 1 , R31
000aa1 9360 0b6a+STS _sudutSet + ( 4 ) + 2 , R22
000aa3 9370 0b6b+STS _sudutSet + ( 4 ) + 3 , R23
                 	__PUTD1MN _sudutSet,4
                 ; 0000 00D6     sudutSet[0]  = (A5[0] * (rad))+90-5+5; //kaki
000aa5 940e 1dc7 	CALL SUBOPT_0x41
000aa7 91a0 0b58 	LDS  R26,_A5
000aa9 91b0 0b59 	LDS  R27,_A5+1
000aab 9180 0b5a 	LDS  R24,_A5+2
000aad 9190 0b5b 	LDS  R25,_A5+3
000aaf 940e 1dd0 	CALL SUBOPT_0x42
000ab1 01df      	MOVW R26,R30
000ab2 01cb      	MOVW R24,R22
                +
000ab3 e0e0     +LDI R30 , LOW ( 0x40A00000 )
000ab4 e0f0     +LDI R31 , HIGH ( 0x40A00000 )
000ab5 ea60     +LDI R22 , BYTE3 ( 0x40A00000 )
000ab6 e470     +LDI R23 , BYTE4 ( 0x40A00000 )
                 	__GETD1N 0x40A00000
000ab7 940e 1df8 	CALL SUBOPT_0x46
000ab9 940e 1dfd 	CALL SUBOPT_0x47
000abb 93e0 0b64 	STS  _sudutSet,R30
000abd 93f0 0b65 	STS  _sudutSet+1,R31
000abf 9360 0b66 	STS  _sudutSet+2,R22
000ac1 9370 0b67 	STS  _sudutSet+3,R23
                 ; 0000 00D7     sudutSet[3]  += 73+6-5-20; //90      edt
000ac3 940e 1def 	CALL SUBOPT_0x45
                +
000ac5 e0a0     +LDI R26 , LOW ( 0x42580000 )
000ac6 e0b0     +LDI R27 , HIGH ( 0x42580000 )
000ac7 e588     +LDI R24 , BYTE3 ( 0x42580000 )
000ac8 e492     +LDI R25 , BYTE4 ( 0x42580000 )
                 	__GETD2N 0x42580000
000ac9 940e 24cf 	CALL __ADDF12
000acb 940e 1dd9 	CALL SUBOPT_0x43
                 ; 0000 00D8 
                 ; 0000 00D9     //kaki kiri
                 ; 0000 00DA     sudutSet[11] = 90; //pinggul
                +
000acd e9e0     +LDI R30 , LOW ( _sudutSet + ( 44 ) )
000ace e0fb     +LDI R31 , HIGH ( _sudutSet + ( 44 ) )
                 	__POINTW1MN _sudutSet,44
                +
000acf e0a0     +LDI R26 , LOW ( 0x42B40000 )
000ad0 e0b0     +LDI R27 , HIGH ( 0x42B40000 )
000ad1 eb84     +LDI R24 , BYTE3 ( 0x42B40000 )
000ad2 e492     +LDI R25 , BYTE4 ( 0x42B40000 )
                 	__GETD2N 0x42B40000
000ad3 940e 1c6d 	CALL SUBOPT_0x14
                 ; 0000 00DB     sudutSet[10] = (A1[1] * (rad))+98; //90 edit
                +
000ad5 91e0 0b44+LDS R30 , _A1 + ( 4 )
000ad7 91f0 0b45+LDS R31 , _A1 + ( 4 ) + 1
000ad9 9160 0b46+LDS R22 , _A1 + ( 4 ) + 2
000adb 9170 0b47+LDS R23 , _A1 + ( 4 ) + 3
                 	__GETD1MN _A1,4
000add 940e 1e04 	CALL SUBOPT_0x48
                +
000adf e0a0     +LDI R26 , LOW ( 0x42C40000 )
000ae0 e0b0     +LDI R27 , HIGH ( 0x42C40000 )
000ae1 ec84     +LDI R24 , BYTE3 ( 0x42C40000 )
000ae2 e492     +LDI R25 , BYTE4 ( 0x42C40000 )
                 	__GETD2N 0x42C40000
000ae3 940e 24cf 	CALL __ADDF12
                +
000ae5 93e0 0b8c+STS _sudutSet + ( 40 ) , R30
000ae7 93f0 0b8d+STS _sudutSet + ( 40 ) + 1 , R31
000ae9 9360 0b8e+STS _sudutSet + ( 40 ) + 2 , R22
000aeb 9370 0b8f+STS _sudutSet + ( 40 ) + 3 , R23
                 	__PUTD1MN _sudutSet,40
                 ; 0000 00DC     sudutSet[9]  = (A2[1] * (rad))+5;       //0  edit
                +
000aed 91e0 0b4c+LDS R30 , _A2 + ( 4 )
000aef 91f0 0b4d+LDS R31 , _A2 + ( 4 ) + 1
000af1 9160 0b4e+LDS R22 , _A2 + ( 4 ) + 2
000af3 9170 0b4f+LDS R23 , _A2 + ( 4 ) + 3
                 	__GETD1MN _A2,4
000af5 940e 1e04 	CALL SUBOPT_0x48
000af7 940e 1dfd 	CALL SUBOPT_0x47
000af9 940e 1e0f 	CALL SUBOPT_0x49
                 ; 0000 00DD     sudutSet[8]  = (A3[1] * (rad))+90;
                +
000afb 91e0 0b54+LDS R30 , _A3 + ( 4 )
000afd 91f0 0b55+LDS R31 , _A3 + ( 4 ) + 1
000aff 9160 0b56+LDS R22 , _A3 + ( 4 ) + 2
000b01 9170 0b57+LDS R23 , _A3 + ( 4 ) + 3
                 	__GETD1MN _A3,4
000b03 940e 1e18 	CALL SUBOPT_0x4A
000b05 940e 1dd0 	CALL SUBOPT_0x42
                +
000b07 93e0 0b84+STS _sudutSet + ( 32 ) , R30
000b09 93f0 0b85+STS _sudutSet + ( 32 ) + 1 , R31
000b0b 9360 0b86+STS _sudutSet + ( 32 ) + 2 , R22
000b0d 9370 0b87+STS _sudutSet + ( 32 ) + 3 , R23
                 	__PUTD1MN _sudutSet,32
                 ; 0000 00DE     sudutSet[7]  = (-(180 - (alphai[1] * (rad)) + (sudutSet[9])))+90+3;       //90
                +
000b0f 91e0 0b3c+LDS R30 , _alphai + ( 4 )
000b11 91f0 0b3d+LDS R31 , _alphai + ( 4 ) + 1
000b13 9160 0b3e+LDS R22 , _alphai + ( 4 ) + 2
000b15 9170 0b3f+LDS R23 , _alphai + ( 4 ) + 3
                 	__GETD1MN _alphai,4
000b17 940e 1e18 	CALL SUBOPT_0x4A
000b19 940e 1de2 	CALL SUBOPT_0x44
000b1b 940e 1e21 	CALL SUBOPT_0x4B
000b1d 940e 1dc2 	CALL SUBOPT_0x40
                +
000b1f e0a0     +LDI R26 , LOW ( 0x42B40000 )
000b20 e0b0     +LDI R27 , HIGH ( 0x42B40000 )
000b21 eb84     +LDI R24 , BYTE3 ( 0x42B40000 )
000b22 e492     +LDI R25 , BYTE4 ( 0x42B40000 )
                 	__GETD2N 0x42B40000
000b23 940e 24cf 	CALL __ADDF12
                +
000b25 e0a0     +LDI R26 , LOW ( 0x40400000 )
000b26 e0b0     +LDI R27 , HIGH ( 0x40400000 )
000b27 e480     +LDI R24 , BYTE3 ( 0x40400000 )
000b28 e490     +LDI R25 , BYTE4 ( 0x40400000 )
                 	__GETD2N 0x40400000
000b29 940e 24cf 	CALL __ADDF12
                +
000b2b 93e0 0b80+STS _sudutSet + ( 28 ) , R30
000b2d 93f0 0b81+STS _sudutSet + ( 28 ) + 1 , R31
000b2f 9360 0b82+STS _sudutSet + ( 28 ) + 2 , R22
000b31 9370 0b83+STS _sudutSet + ( 28 ) + 3 , R23
                 	__PUTD1MN _sudutSet,28
                 ; 0000 00DF     sudutSet[6]  = (A5[1] * (rad))+90+5; //kaki //90
                +
000b33 91e0 0b5c+LDS R30 , _A5 + ( 4 )
000b35 91f0 0b5d+LDS R31 , _A5 + ( 4 ) + 1
000b37 9160 0b5e+LDS R22 , _A5 + ( 4 ) + 2
000b39 9170 0b5f+LDS R23 , _A5 + ( 4 ) + 3
                 	__GETD1MN _A5,4
000b3b 940e 1e18 	CALL SUBOPT_0x4A
000b3d 940e 1dd0 	CALL SUBOPT_0x42
000b3f 940e 1dfd 	CALL SUBOPT_0x47
                +
000b41 93e0 0b7c+STS _sudutSet + ( 24 ) , R30
000b43 93f0 0b7d+STS _sudutSet + ( 24 ) + 1 , R31
000b45 9360 0b7e+STS _sudutSet + ( 24 ) + 2 , R22
000b47 9370 0b7f+STS _sudutSet + ( 24 ) + 3 , R23
                 	__PUTD1MN _sudutSet,24
                 ; 0000 00E0     sudutSet[9]  += 69+6-5-20;   //90             edit
000b49 940e 1e21 	CALL SUBOPT_0x4B
                +
000b4b e0a0     +LDI R26 , LOW ( 0x42480000 )
000b4c e0b0     +LDI R27 , HIGH ( 0x42480000 )
000b4d e488     +LDI R24 , BYTE3 ( 0x42480000 )
000b4e e492     +LDI R25 , BYTE4 ( 0x42480000 )
                 	__GETD2N 0x42480000
000b4f 940e 24cf 	CALL __ADDF12
000b51 940e 1e0f 	CALL SUBOPT_0x49
                 ; 0000 00E1 
                 ; 0000 00E2 //    printf("R %0.2f %0.2f %0.2f %0.2f %0.2f || ",sudutSet[4],sudutSet[3],sudutSet[2],sudutSet[1],sudutSet[0]);
                 ; 0000 00E3 //    printf("L %0.2f %0.2f %0.2f %0.2f %0.2f \n",sudutSet[10],sudutSet[9],sudutSet[8],sudutSet[7],sudutSet[6]);
                 ; 0000 00E4     for (countNo = 0; countNo < 12; countNo++)
000b53 940e 1c2f 	CALL SUBOPT_0xA
                 _0xE1:
000b55 91a0 0a8a 	LDS  R26,_countNo
000b57 91b0 0a8b 	LDS  R27,_countNo+1
000b59 971c      	SBIW R26,12
000b5a f52c      	BRGE _0xE2
                 ; 0000 00E5     {
                 ; 0000 00E6         servoSet[countNo] = 800 + (7.7777* sudutSet[countNo]);
000b5b 940e 1c3b 	CALL SUBOPT_0xC
000b5d e5a0      	LDI  R26,LOW(_servoSet)
000b5e e0ba      	LDI  R27,HIGH(_servoSet)
000b5f 0fee      	LSL  R30
000b60 1fff      	ROL  R31
000b61 0fea      	ADD  R30,R26
000b62 1ffb      	ADC  R31,R27
000b63 93ff      	PUSH R31
000b64 93ef      	PUSH R30
000b65 940e 1c3b 	CALL SUBOPT_0xC
000b67 e6a4      	LDI  R26,LOW(_sudutSet)
000b68 e0bb      	LDI  R27,HIGH(_sudutSet)
000b69 940e 1d7c 	CALL SUBOPT_0x35
                +
000b6b eeab     +LDI R26 , LOW ( 0x40F8E2EB )
000b6c eeb2     +LDI R27 , HIGH ( 0x40F8E2EB )
000b6d ef88     +LDI R24 , BYTE3 ( 0x40F8E2EB )
000b6e e490     +LDI R25 , BYTE4 ( 0x40F8E2EB )
                 	__GETD2N 0x40F8E2EB
000b6f 940e 251f 	CALL __MULF12
                +
000b71 e0a0     +LDI R26 , LOW ( 0x44480000 )
000b72 e0b0     +LDI R27 , HIGH ( 0x44480000 )
000b73 e488     +LDI R24 , BYTE3 ( 0x44480000 )
000b74 e494     +LDI R25 , BYTE4 ( 0x44480000 )
                 	__GETD2N 0x44480000
000b75 940e 24cf 	CALL __ADDF12
000b77 91af      	POP  R26
000b78 91bf      	POP  R27
000b79 940e 245e 	CALL __CFD1
000b7b 93ed      	ST   X+,R30
000b7c 93fc      	ST   X,R31
                 ; 0000 00E7     }
000b7d 940e 1c70 	CALL SUBOPT_0x15
000b7f cfd5      	RJMP _0xE1
                 _0xE2:
                 ; 0000 00E8 
                 ; 0000 00E9     //printf("SR %d %d %d %d %d || ",servoSet[4],servoSet[3],servoSet[2],servoSet[1],servoSet[0]);
                 ; 0000 00EA     //printf("SL %d %d %d %d %d \n ",servoSet[10],servoSet[9],servoSet[8],servoSet[7],servoSet[6]);
                 ; 0000 00EB 
                 ; 0000 00EC }
000b80 9508      	RET
                 ;
                 ;void InputXYZ()
                 ; 0000 00EF {
                 _InputXYZ:
                 ; 0000 00F0     for (countNo = 0; countNo < 2; countNo++){
000b81 940e 1c2f 	CALL SUBOPT_0xA
                 _0xE4:
000b83 940e 1c35 	CALL SUBOPT_0xB
000b85 f5b4      	BRGE _0xE5
                 ; 0000 00F1         X[countNo] += initPositionX; Y[countNo] += initPositionY; Z[countNo] += initPositionZ;
000b86 940e 1d5b 	CALL SUBOPT_0x30
000b88 0fea      	ADD  R30,R26
000b89 1ffb      	ADC  R31,R27
000b8a 93ff      	PUSH R31
000b8b 93ef      	PUSH R30
000b8c 01df      	MOVW R26,R30
000b8d 940e 26bc 	CALL __GETD1P
000b8f 940e 1c45 	CALL SUBOPT_0xE
000b91 940e 24cf 	CALL __ADDF12
000b93 91af      	POP  R26
000b94 91bf      	POP  R27
000b95 940e 1d74 	CALL SUBOPT_0x33
000b97 eca0      	LDI  R26,LOW(_Y)
000b98 e0ba      	LDI  R27,HIGH(_Y)
000b99 940e 1d77 	CALL SUBOPT_0x34
000b9b 93ff      	PUSH R31
000b9c 93ef      	PUSH R30
000b9d 01df      	MOVW R26,R30
000b9e 940e 26bc 	CALL __GETD1P
000ba0 940e 1c56 	CALL SUBOPT_0x11
000ba2 940e 24cf 	CALL __ADDF12
000ba4 91af      	POP  R26
000ba5 91bf      	POP  R27
000ba6 940e 1d74 	CALL SUBOPT_0x33
000ba8 eca8      	LDI  R26,LOW(_Z)
000ba9 e0ba      	LDI  R27,HIGH(_Z)
000baa 940e 1d77 	CALL SUBOPT_0x34
000bac 93ff      	PUSH R31
000bad 93ef      	PUSH R30
000bae 01df      	MOVW R26,R30
000baf 940e 26bc 	CALL __GETD1P
000bb1 940e 1c64 	CALL SUBOPT_0x13
000bb3 940e 24cf 	CALL __ADDF12
000bb5 91af      	POP  R26
000bb6 91bf      	POP  R27
000bb7 940e 26c2 	CALL __PUTDP1
                 ; 0000 00F2     }
000bb9 940e 1c70 	CALL SUBOPT_0x15
000bbb cfc7      	RJMP _0xE4
                 _0xE5:
                 ; 0000 00F3     langkah=0;
000bbc e0e0      	LDI  R30,LOW(0)
000bbd 93e0 0a82 	STS  _langkah,R30
000bbf 93e0 0a83 	STS  _langkah+1,R30
                 ; 0000 00F4 }
000bc1 9508      	RET
                 ;
                 ;void main(void)
                 ; 0000 00F7 {
                 _main:
                 ; 0000 00F8 init();
000bc2 940e 01da 	CALL _init
                 ; 0000 00F9 X[0]=0; Y[0]=0; Z[0]=0;
000bc4 940e 1c73 	CALL SUBOPT_0x16
                 ; 0000 00FA X[1]=0; Y[1]=0; Z[1]=0;
                 ; 0000 00FB InputXYZ();
000bc6 dfba      	RCALL _InputXYZ
                 ; 0000 00FC #asm("sei")
000bc7 9478      	sei
                 ; 0000 00FD hitung = 90;
000bc8 e5ea      	LDI  R30,LOW(90)
000bc9 e0f0      	LDI  R31,HIGH(90)
000bca 93e0 0bf5 	STS  _hitung,R30
000bcc 93f0 0bf6 	STS  _hitung+1,R31
                 ; 0000 00FE robot=1;
000bce e0e1      	LDI  R30,LOW(1)
000bcf e0f0      	LDI  R31,HIGH(1)
                +
000bd0 2e5e     +MOV R5 , R30
000bd1 2e6f     +MOV R6 , R31
                 	__PUTW1R 5,6
                 ; 0000 00FF state = 1;
000bd2 940e 1e2a 	CALL SUBOPT_0x4C
                 ; 0000 0100 while (1)
                 _0xE6:
                 ; 0000 0101     {
                 ; 0000 0102        //maju();
                 ; 0000 0103        siap();
000bd4 d2d7      	RCALL _siap
                 ; 0000 0104        switch(state){
000bd5 91e0 0bb4 	LDS  R30,_state
000bd7 91f0 0bb5 	LDS  R31,_state+1
                 ; 0000 0105         case 0:
000bd9 9730      	SBIW R30,0
000bda f469      	BRNE _0xEC
                 ; 0000 0106             siap();
000bdb d2d0      	RCALL _siap
                 ; 0000 0107             konversi_raspi();
000bdc d886      	RCALL _konversi_raspi
                 ; 0000 0108             printf("Raspi Y  %d\r\n",xx);
                +
000bdd e5ee     +LDI R30 , LOW ( 2 * _0x0 + ( 0 ) )
000bde e0f1     +LDI R31 , HIGH ( 2 * _0x0 + ( 0 ) )
                 	__POINTW1FN _0x0,0
000bdf 93fa      	ST   -Y,R31
000be0 93ea      	ST   -Y,R30
000be1 91e0 0bfb 	LDS  R30,_xx
000be3 91f0 0bfc 	LDS  R31,_xx+1
000be5 940e 1e31 	CALL SUBOPT_0x4D
                 ; 0000 0109          break;
000be7 c02f      	RJMP _0xEB
                 ; 0000 010A 
                 ; 0000 010B          case 1:
                 _0xEC:
000be8 30e1      	CPI  R30,LOW(0x1)
000be9 e0a0      	LDI  R26,HIGH(0x1)
000bea 07fa      	CPC  R31,R26
000beb f411      	BRNE _0xED
                 ; 0000 010C             cari_bola();
000bec d20a      	RCALL _cari_bola
                 ; 0000 010D          break;
000bed c029      	RJMP _0xEB
                 ; 0000 010E 
                 ; 0000 010F          case 2:
                 _0xED:
000bee 30e2      	CPI  R30,LOW(0x2)
000bef e0a0      	LDI  R26,HIGH(0x2)
000bf0 07fa      	CPC  R31,R26
000bf1 f411      	BRNE _0xEE
                 ; 0000 0110             pid_servo();
000bf2 d026      	RCALL _pid_servo
                 ; 0000 0111          break;
000bf3 c023      	RJMP _0xEB
                 ; 0000 0112 
                 ; 0000 0113          case 3:
                 _0xEE:
000bf4 30e3      	CPI  R30,LOW(0x3)
000bf5 e0a0      	LDI  R26,HIGH(0x3)
000bf6 07fa      	CPC  R31,R26
000bf7 f411      	BRNE _0xEF
                 ; 0000 0114             berjalan();
000bf8 d161      	RCALL _berjalan
                 ; 0000 0115          break;
000bf9 c01d      	RJMP _0xEB
                 ; 0000 0116 
                 ; 0000 0117 
                 ; 0000 0118          case 10:
                 _0xEF:
000bfa 30ea      	CPI  R30,LOW(0xA)
000bfb e0a0      	LDI  R26,HIGH(0xA)
000bfc 07fa      	CPC  R31,R26
000bfd f411      	BRNE _0xF0
                 ; 0000 0119             bangun_depan();
000bfe d0d5      	RCALL _bangun_depan
                 ; 0000 011A          break;
000bff c017      	RJMP _0xEB
                 ; 0000 011B 
                 ; 0000 011C          case 11:
                 _0xF0:
000c00 30eb      	CPI  R30,LOW(0xB)
000c01 e0a0      	LDI  R26,HIGH(0xB)
000c02 07fa      	CPC  R31,R26
000c03 f411      	BRNE _0xF1
                 ; 0000 011D             bangun_belakang();
000c04 d112      	RCALL _bangun_belakang
                 ; 0000 011E          break;
000c05 c011      	RJMP _0xEB
                 ; 0000 011F 
                 ; 0000 0120          case 12:
                 _0xF1:
000c06 30ec      	CPI  R30,LOW(0xC)
000c07 e0a0      	LDI  R26,HIGH(0xC)
000c08 07fa      	CPC  R31,R26
000c09 f411      	BRNE _0xF2
                 ; 0000 0121             nek_ambruk();
000c0a d090      	RCALL _nek_ambruk
                 ; 0000 0122          break;
000c0b c00b      	RJMP _0xEB
                 ; 0000 0123 
                 ; 0000 0124          case 13:
                 _0xF2:
000c0c 30ed      	CPI  R30,LOW(0xD)
000c0d e0a0      	LDI  R26,HIGH(0xD)
000c0e 07fa      	CPC  R31,R26
000c0f f411      	BRNE _0xF3
                 ; 0000 0125             cek_ambruk();
000c10 d0a1      	RCALL _cek_ambruk
                 ; 0000 0126          break;
000c11 c005      	RJMP _0xEB
                 ; 0000 0127 
                 ; 0000 0128          case 101:
                 _0xF3:
000c12 36e5      	CPI  R30,LOW(0x65)
000c13 e0a0      	LDI  R26,HIGH(0x65)
000c14 07fa      	CPC  R31,R26
000c15 f409      	BRNE _0xEB
                 ; 0000 0129             ngawur();
000c16 d240      	RCALL _ngawur
                 ; 0000 012A          break;
                 ; 0000 012B         }
                 _0xEB:
                 ; 0000 012C 
                 ; 0000 012D     }
000c17 cfbc      	RJMP _0xE6
                 ; 0000 012E }
                 _0xF5:
000c18 cfff      	RJMP _0xF5
                 ;
                 ;void pid_servo(){ //        state = 2
                 ; 0000 0130 void pid_servo(){
                 _pid_servo:
                 ; 0000 0131     nek_ambruk();
000c19 d081      	RCALL _nek_ambruk
                 ; 0000 0132     errorx = spx - pos_x;
000c1a 940e 1e3a 	CALL SUBOPT_0x4E
000c1c 940e 1e3f 	CALL SUBOPT_0x4F
                 ; 0000 0133     px = errorx/47;
                 ; 0000 0134     mvx += px;
                 ; 0000 0135     servo[19] = mvx;
                 ; 0000 0136     if(mvx >= 2300)mvx = 2300;
000c1e f01c      	BRLT _0xF6
000c1f efec      	LDI  R30,LOW(2300)
000c20 e0f8      	LDI  R31,HIGH(2300)
000c21 c005      	RJMP _0x267
                 ; 0000 0137     else if (mvx <= 700)mvx = 700;
                 _0xF6:
000c22 940e 1e6b 	CALL SUBOPT_0x50
000c24 f434      	BRGE _0xF8
000c25 ebec      	LDI  R30,LOW(700)
000c26 e0f2      	LDI  R31,HIGH(700)
                 _0x267:
000c27 93e0 0bd6 	STS  _mvx,R30
000c29 93f0 0bd7 	STS  _mvx+1,R31
                 ; 0000 0138 
                 ; 0000 0139 //-----------------------------------------//
                 ; 0000 013A     errory = spy - pos_y;
                 _0xF8:
000c2b 940e 1e73 	CALL SUBOPT_0x51
                 ; 0000 013B     py = errory/47;
                 ; 0000 013C     mvy -= py;
                 ; 0000 013D     servo[18] = mvy;
                 ; 0000 013E     if(mvy >= 2300)mvy = 2300;
000c2d 3fac      	CPI  R26,LOW(0x8FC)
000c2e e0e8      	LDI  R30,HIGH(0x8FC)
000c2f 07be      	CPC  R27,R30
000c30 f01c      	BRLT _0xF9
000c31 efec      	LDI  R30,LOW(2300)
000c32 e0f8      	LDI  R31,HIGH(2300)
000c33 c00a      	RJMP _0x268
                 ; 0000 013F     else if (mvy <= 1500)mvy = 1500;
                 _0xF9:
000c34 91a0 0bd8 	LDS  R26,_mvy
000c36 91b0 0bd9 	LDS  R27,_mvy+1
000c38 3dad      	CPI  R26,LOW(0x5DD)
000c39 e0e5      	LDI  R30,HIGH(0x5DD)
000c3a 07be      	CPC  R27,R30
000c3b f434      	BRGE _0xFB
000c3c edec      	LDI  R30,LOW(1500)
000c3d e0f5      	LDI  R31,HIGH(1500)
                 _0x268:
000c3e 93e0 0bd8 	STS  _mvy,R30
000c40 93f0 0bd9 	STS  _mvy+1,R31
                 ; 0000 0140 
                 ; 0000 0141     printf("pid servo\r\n");
                 _0xFB:
                +
000c42 e6ec     +LDI R30 , LOW ( 2 * _0x0 + ( 14 ) )
000c43 e0f1     +LDI R31 , HIGH ( 2 * _0x0 + ( 14 ) )
                 	__POINTW1FN _0x0,14
000c44 940e 1ea4 	CALL SUBOPT_0x52
                 ; 0000 0142     if (Ball == 0 && pos_x <= 160) {hitungNgawur = delayNgawur; cariBola = 0; state = 1;}
000c46 940e 1d2a 	CALL SUBOPT_0x2A
000c48 9710      	SBIW R26,0
000c49 f431      	BRNE _0xFD
000c4a 940e 1e3a 	CALL SUBOPT_0x4E
000c4c 3aa1      	CPI  R26,LOW(0xA1)
000c4d e0e0      	LDI  R30,HIGH(0xA1)
000c4e 07be      	CPC  R27,R30
000c4f f00c      	BRLT _0xFE
                 _0xFD:
000c50 c009      	RJMP _0xFC
                 _0xFE:
000c51 940e 1eab 	CALL SUBOPT_0x53
000c53 e0e0      	LDI  R30,LOW(0)
000c54 93e0 0bb6 	STS  _cariBola,R30
000c56 93e0 0bb7 	STS  _cariBola+1,R30
000c58 940e 1e2a 	CALL SUBOPT_0x4C
                 ; 0000 0143     if (Ball == 0 && pos_x >= 160) {hitungNgawur = delayNgawur; cariBola = 1; state = 1;}
                 _0xFC:
000c5a 940e 1d2a 	CALL SUBOPT_0x2A
000c5c 9710      	SBIW R26,0
000c5d f431      	BRNE _0x100
000c5e 940e 1e3a 	CALL SUBOPT_0x4E
000c60 3aa0      	CPI  R26,LOW(0xA0)
000c61 e0e0      	LDI  R30,HIGH(0xA0)
000c62 07be      	CPC  R27,R30
000c63 f40c      	BRGE _0x101
                 _0x100:
000c64 c006      	RJMP _0xFF
                 _0x101:
000c65 940e 1eab 	CALL SUBOPT_0x53
000c67 940e 1eb4 	CALL SUBOPT_0x54
000c69 940e 1e2a 	CALL SUBOPT_0x4C
                 ; 0000 0144     if (Ball >= 5 && pos_x >= 50 && pos_x <= 280) {jalan = 1;  state = 3;}
                 _0xFF:
000c6b 940e 1d2a 	CALL SUBOPT_0x2A
000c6d 9715      	SBIW R26,5
000c6e f03c      	BRLT _0x103
000c6f 940e 1e3a 	CALL SUBOPT_0x4E
000c71 97d2      	SBIW R26,50
000c72 f01c      	BRLT _0x103
000c73 940e 1ebb 	CALL SUBOPT_0x55
000c75 f00c      	BRLT _0x104
                 _0x103:
000c76 c004      	RJMP _0x102
                 _0x104:
000c77 940e 1ec0 	CALL SUBOPT_0x56
000c79 940e 1ec7 	CALL SUBOPT_0x57
                 ; 0000 0145     if (Ball >= 5 && pos_x <= 25 ) {jalan = 0; state = 3;}
                 _0x102:
000c7b 940e 1d2a 	CALL SUBOPT_0x2A
000c7d 9715      	SBIW R26,5
000c7e f024      	BRLT _0x106
000c7f 940e 1e3a 	CALL SUBOPT_0x4E
000c81 975a      	SBIW R26,26
000c82 f00c      	BRLT _0x107
                 _0x106:
000c83 c007      	RJMP _0x105
                 _0x107:
000c84 e0e0      	LDI  R30,LOW(0)
000c85 93e0 0bb8 	STS  _jalan,R30
000c87 93e0 0bb9 	STS  _jalan+1,R30
000c89 940e 1ec7 	CALL SUBOPT_0x57
                 ; 0000 0146     if (Ball >= 5 && pos_x >= 280) {jalan = 2; state = 3;}
                 _0x105:
000c8b 940e 1d2a 	CALL SUBOPT_0x2A
000c8d 9715      	SBIW R26,5
000c8e f034      	BRLT _0x109
000c8f 940e 1e3a 	CALL SUBOPT_0x4E
000c91 31a8      	CPI  R26,LOW(0x118)
000c92 e0e1      	LDI  R30,HIGH(0x118)
000c93 07be      	CPC  R27,R30
000c94 f40c      	BRGE _0x10A
                 _0x109:
000c95 c004      	RJMP _0x108
                 _0x10A:
000c96 940e 1ece 	CALL SUBOPT_0x58
000c98 940e 1ec7 	CALL SUBOPT_0x57
                 ; 0000 0147 
                 ; 0000 0148 }
                 _0x108:
000c9a 9508      	RET
                 ;
                 ;void nek_ambruk(){
                 ; 0000 014A void nek_ambruk(){
                 _nek_ambruk:
                 ; 0000 014B 
                 ; 0000 014C     if(miringDepan <= -40){ printf("Ambruk depan  %d\r\n",miringDepan); state = 13;}            // bangun tengkurap
000c9b 940e 1ed5 	CALL SUBOPT_0x59
000c9d 940e 1eda 	CALL SUBOPT_0x5A
000c9f f01c      	BRLT _0x10B
                +
000ca0 e7e8     +LDI R30 , LOW ( 2 * _0x0 + ( 26 ) )
000ca1 e0f1     +LDI R31 , HIGH ( 2 * _0x0 + ( 26 ) )
                 	__POINTW1FN _0x0,26
000ca2 c006      	RJMP _0x269
                 ; 0000 014D     else if(miringDepan >= 40){ printf("Ambruk belakang  %d\r\n",miringDepan); state = 13;}   // bangun terlentang
                 _0x10B:
000ca3 940e 1ed5 	CALL SUBOPT_0x59
000ca5 9798      	SBIW R26,40
000ca6 f054      	BRLT _0x10D
                +
000ca7 e8eb     +LDI R30 , LOW ( 2 * _0x0 + ( 45 ) )
000ca8 e0f1     +LDI R31 , HIGH ( 2 * _0x0 + ( 45 ) )
                 	__POINTW1FN _0x0,45
                 _0x269:
000ca9 93fa      	ST   -Y,R31
000caa 93ea      	ST   -Y,R30
000cab 940e 1edf 	CALL SUBOPT_0x5B
000cad e0ed      	LDI  R30,LOW(13)
000cae e0f0      	LDI  R31,HIGH(13)
000caf 940e 1ee4 	CALL SUBOPT_0x5C
                 ; 0000 014E 
                 ; 0000 014F }
                 _0x10D:
000cb1 9508      	RET
                 ;
                 ;void cek_ambruk(){
                 ; 0000 0151 void cek_ambruk(){
                 _cek_ambruk:
                 ; 0000 0152 
                 ; 0000 0153     if(miringDepan <= -40 ){sudah = 0; printf("cek Ambruk depan %d\r\n",miringDepan); TIMSK1=0x07; state = 10;}         // bangun tengkurap
000cb2 940e 1ee9 	CALL SUBOPT_0x5D
000cb4 f06c      	BRLT _0x10E
000cb5 940e 1eeb 	CALL SUBOPT_0x5E
                +
000cb7 eae1     +LDI R30 , LOW ( 2 * _0x0 + ( 67 ) )
000cb8 e0f1     +LDI R31 , HIGH ( 2 * _0x0 + ( 67 ) )
                 	__POINTW1FN _0x0,67
000cb9 940e 1ef1 	CALL SUBOPT_0x5F
000cbb e0e7      	LDI  R30,LOW(7)
000cbc 93e0 006f 	STS  111,R30
000cbe e0ea      	LDI  R30,LOW(10)
000cbf e0f0      	LDI  R31,HIGH(10)
000cc0 940e 1ee4 	CALL SUBOPT_0x5C
                 ; 0000 0154     if(miringDepan >= 40){ sudah = 0; printf("cek Ambruk belakang %d\r\n",miringDepan); TIMSK1=0x07; state = 11;}   // bangun terlentang
                 _0x10E:
000cc2 940e 1ed5 	CALL SUBOPT_0x59
000cc4 9798      	SBIW R26,40
000cc5 f06c      	BRLT _0x10F
000cc6 940e 1eeb 	CALL SUBOPT_0x5E
                +
000cc8 ebe7     +LDI R30 , LOW ( 2 * _0x0 + ( 89 ) )
000cc9 e0f1     +LDI R31 , HIGH ( 2 * _0x0 + ( 89 ) )
                 	__POINTW1FN _0x0,89
000cca 940e 1ef1 	CALL SUBOPT_0x5F
000ccc e0e7      	LDI  R30,LOW(7)
000ccd 93e0 006f 	STS  111,R30
000ccf e0eb      	LDI  R30,LOW(11)
000cd0 e0f0      	LDI  R31,HIGH(11)
000cd1 940e 1ee4 	CALL SUBOPT_0x5C
                 ; 0000 0155 }
                 _0x10F:
000cd3 9508      	RET
                 ;
                 ;void bangun_depan(){
                 ; 0000 0157 void bangun_depan(){
                 _bangun_depan:
                 ; 0000 0158     durung:
                 _0x110:
                 ; 0000 0159 
                 ; 0000 015A         printf("proses bangun depan %d\r\n",miringDepan);
                +
000cd4 ede0     +LDI R30 , LOW ( 2 * _0x0 + ( 114 ) )
000cd5 e0f1     +LDI R31 , HIGH ( 2 * _0x0 + ( 114 ) )
                 	__POINTW1FN _0x0,114
000cd6 940e 1ef1 	CALL SUBOPT_0x5F
                 ; 0000 015B         bangun_tengkurap();
000cd8 d486      	RCALL _bangun_tengkurap
                 ; 0000 015C         if(sudah == 1 && miringDepan <= 30) {kondisiAmbrukDepan = 1; goto wes;}
000cd9 940e 1ef4 	CALL SUBOPT_0x60
000cdb f421      	BRNE _0x112
000cdc 940e 1ed5 	CALL SUBOPT_0x59
000cde 975f      	SBIW R26,31
000cdf f00c      	BRLT _0x113
                 _0x112:
000ce0 c007      	RJMP _0x111
                 _0x113:
000ce1 e0e1      	LDI  R30,LOW(1)
000ce2 e0f0      	LDI  R31,HIGH(1)
000ce3 93e0 0bbc 	STS  _kondisiAmbrukDepan,R30
000ce5 93f0 0bbd 	STS  _kondisiAmbrukDepan+1,R31
000ce7 c015      	RJMP _0x114
                 ; 0000 015D         if((sudah == 1 && miringDepan >= 30) || (sudah == 1 && miringDepan <= -40 )) {kondisiAmbrukDepan = 0; goto wes;}
                 _0x111:
000ce8 940e 1ef4 	CALL SUBOPT_0x60
000cea f421      	BRNE _0x116
000ceb 940e 1ed5 	CALL SUBOPT_0x59
000ced 975e      	SBIW R26,30
000cee f43c      	BRGE _0x118
                 _0x116:
000cef 940e 1ef4 	CALL SUBOPT_0x60
000cf1 f419      	BRNE _0x119
000cf2 940e 1ee9 	CALL SUBOPT_0x5D
000cf4 f40c      	BRGE _0x118
                 _0x119:
000cf5 c006      	RJMP _0x115
                 _0x118:
000cf6 e0e0      	LDI  R30,LOW(0)
000cf7 93e0 0bbc 	STS  _kondisiAmbrukDepan,R30
000cf9 93e0 0bbd 	STS  _kondisiAmbrukDepan+1,R30
000cfb c001      	RJMP _0x114
                 ; 0000 015E     goto durung;
                 _0x115:
000cfc cfd7      	RJMP _0x110
                 ; 0000 015F 
                 ; 0000 0160     wes:
                 _0x114:
                 ; 0000 0161         printf("wes\r\n");
                +
000cfd eee9     +LDI R30 , LOW ( 2 * _0x0 + ( 139 ) )
000cfe e0f1     +LDI R31 , HIGH ( 2 * _0x0 + ( 139 ) )
                 	__POINTW1FN _0x0,139
000cff 940e 1ea4 	CALL SUBOPT_0x52
                 ; 0000 0162         tango = 0;
000d01 2499      	CLR  R9
000d02 24aa      	CLR  R10
                 ; 0000 0163         if(kondisiAmbrukDepan == 1){hitungNgawur = delayNgawur; state = 1;}
000d03 91a0 0bbc 	LDS  R26,_kondisiAmbrukDepan
000d05 91b0 0bbd 	LDS  R27,_kondisiAmbrukDepan+1
000d07 9711      	SBIW R26,1
000d08 f429      	BRNE _0x11C
000d09 940e 1eab 	CALL SUBOPT_0x53
000d0b e0e1      	LDI  R30,LOW(1)
000d0c e0f0      	LDI  R31,HIGH(1)
000d0d c004      	RJMP _0x26A
                 ; 0000 0164         else {sudah = 0; state = 12;}
                 _0x11C:
000d0e 940e 1eeb 	CALL SUBOPT_0x5E
000d10 e0ec      	LDI  R30,LOW(12)
000d11 e0f0      	LDI  R31,HIGH(12)
                 _0x26A:
000d12 93e0 0bb4 	STS  _state,R30
000d14 93f0 0bb5 	STS  _state+1,R31
                 ; 0000 0165 }
000d16 9508      	RET
                 ;
                 ;void bangun_belakang(){
                 ; 0000 0167 void bangun_belakang(){
                 _bangun_belakang:
                 ; 0000 0168     durung:
                 _0x11E:
                 ; 0000 0169 
                 ; 0000 016A         printf("proses bangun belakang %d\r\n",miringDepan);
                +
000d17 eeef     +LDI R30 , LOW ( 2 * _0x0 + ( 145 ) )
000d18 e0f1     +LDI R31 , HIGH ( 2 * _0x0 + ( 145 ) )
                 	__POINTW1FN _0x0,145
000d19 940e 1ef1 	CALL SUBOPT_0x5F
                 ; 0000 016B         bangun_telentang();
000d1b d254      	RCALL _bangun_telentang
                 ; 0000 016C         if(sudah == 1 && miringDepan <= 30) {kondisiAmbrukBelakang = 1; goto wes;}
000d1c 940e 1ef4 	CALL SUBOPT_0x60
000d1e f421      	BRNE _0x120
000d1f 940e 1ed5 	CALL SUBOPT_0x59
000d21 975f      	SBIW R26,31
000d22 f00c      	BRLT _0x121
                 _0x120:
000d23 c007      	RJMP _0x11F
                 _0x121:
000d24 e0e1      	LDI  R30,LOW(1)
000d25 e0f0      	LDI  R31,HIGH(1)
000d26 93e0 0bbe 	STS  _kondisiAmbrukBelakang,R30
000d28 93f0 0bbf 	STS  _kondisiAmbrukBelakang+1,R31
000d2a c015      	RJMP _0x122
                 ; 0000 016D         if((sudah == 1 && miringDepan >= 30) || (sudah == 1 && miringDepan <= -40)) {kondisiAmbrukBelakang = 0; goto wes;}
                 _0x11F:
000d2b 940e 1ef4 	CALL SUBOPT_0x60
000d2d f421      	BRNE _0x124
000d2e 940e 1ed5 	CALL SUBOPT_0x59
000d30 975e      	SBIW R26,30
000d31 f43c      	BRGE _0x126
                 _0x124:
000d32 940e 1ef4 	CALL SUBOPT_0x60
000d34 f419      	BRNE _0x127
000d35 940e 1ee9 	CALL SUBOPT_0x5D
000d37 f40c      	BRGE _0x126
                 _0x127:
000d38 c006      	RJMP _0x123
                 _0x126:
000d39 e0e0      	LDI  R30,LOW(0)
000d3a 93e0 0bbe 	STS  _kondisiAmbrukBelakang,R30
000d3c 93e0 0bbf 	STS  _kondisiAmbrukBelakang+1,R30
000d3e c001      	RJMP _0x122
                 ; 0000 016E     goto durung;
                 _0x123:
000d3f cfd7      	RJMP _0x11E
                 ; 0000 016F 
                 ; 0000 0170     wes:
                 _0x122:
                 ; 0000 0171         printf("Wes cok\r\n");
                +
000d40 e0eb     +LDI R30 , LOW ( 2 * _0x0 + ( 173 ) )
000d41 e0f2     +LDI R31 , HIGH ( 2 * _0x0 + ( 173 ) )
                 	__POINTW1FN _0x0,173
000d42 940e 1ea4 	CALL SUBOPT_0x52
                 ; 0000 0172         tangi = 0;
000d44 24bb      	CLR  R11
000d45 24cc      	CLR  R12
                 ; 0000 0173         if(kondisiAmbrukBelakang == 1){hitungNgawur = delayNgawur; state = 1;}
000d46 91a0 0bbe 	LDS  R26,_kondisiAmbrukBelakang
000d48 91b0 0bbf 	LDS  R27,_kondisiAmbrukBelakang+1
000d4a 9711      	SBIW R26,1
000d4b f429      	BRNE _0x12A
000d4c 940e 1eab 	CALL SUBOPT_0x53
000d4e e0e1      	LDI  R30,LOW(1)
000d4f e0f0      	LDI  R31,HIGH(1)
000d50 c004      	RJMP _0x26B
                 ; 0000 0174         else {sudah = 0; state = 12;}
                 _0x12A:
000d51 940e 1eeb 	CALL SUBOPT_0x5E
000d53 e0ec      	LDI  R30,LOW(12)
000d54 e0f0      	LDI  R31,HIGH(12)
                 _0x26B:
000d55 93e0 0bb4 	STS  _state,R30
000d57 93f0 0bb5 	STS  _state+1,R31
                 ; 0000 0175 
                 ; 0000 0176 
                 ; 0000 0177 }
000d59 9508      	RET
                 ;
                 ;void berjalan(){    //state = 3
                 ; 0000 0179 void berjalan(){
                 _berjalan:
                 ; 0000 017A     switch(jalan){
000d5a 91e0 0bb8 	LDS  R30,_jalan
000d5c 91f0 0bb9 	LDS  R31,_jalan+1
                 ; 0000 017B      case 0:  //diam
000d5e 9730      	SBIW R30,0
000d5f f511      	BRNE _0x12F
                 ; 0000 017C         nek_ambruk();
000d60 df3a      	RCALL _nek_ambruk
                 ; 0000 017D         serong_kiri();
000d61 d180      	RCALL _serong_kiri
                 ; 0000 017E         pid_servo();
000d62 940e 1efa 	CALL SUBOPT_0x61
                 ; 0000 017F         if (Ball >= 5 && pos_x >= 50 && pos_x <= 280 && servo[19] <= 1700) {jalan = 1; servo[19] = 1500;} // nek wes neng ngarep
000d64 f06c      	BRLT _0x131
000d65 940e 1e3a 	CALL SUBOPT_0x4E
000d67 97d2      	SBIW R26,50
000d68 f04c      	BRLT _0x131
000d69 940e 1ebb 	CALL SUBOPT_0x55
000d6b f434      	BRGE _0x131
000d6c 940e 1eff 	CALL SUBOPT_0x62
000d6e 3aa5      	CPI  R26,LOW(0x6A5)
000d6f e0e6      	LDI  R30,HIGH(0x6A5)
000d70 07be      	CPC  R27,R30
000d71 f00c      	BRLT _0x132
                 _0x131:
000d72 c004      	RJMP _0x130
                 _0x132:
000d73 940e 1ec0 	CALL SUBOPT_0x56
000d75 940e 1f04 	CALL SUBOPT_0x63
                 ; 0000 0180         if(Ball == 0) {hitungNgawur = delayNgawur; state = 1; break;} // nek ra ndetek neng cari bola
                 _0x130:
000d77 940e 1f0b 	CALL SUBOPT_0x64
000d79 f429      	BRNE _0x133
000d7a 940e 1eab 	CALL SUBOPT_0x53
000d7c 940e 1e2a 	CALL SUBOPT_0x4C
000d7e c077      	RJMP _0x12E
                 ; 0000 0181         printf("%d serong kiri bos\r\n",servo[18]);
                 _0x133:
                +
000d7f e1e5     +LDI R30 , LOW ( 2 * _0x0 + ( 183 ) )
000d80 e0f2     +LDI R31 , HIGH ( 2 * _0x0 + ( 183 ) )
                 	__POINTW1FN _0x0,183
000d81 c06e      	RJMP _0x26C
                 ; 0000 0182      break;
                 ; 0000 0183 
                 ; 0000 0184      case 1:   //maju
                 _0x12F:
000d82 30e1      	CPI  R30,LOW(0x1)
000d83 e0a0      	LDI  R26,HIGH(0x1)
000d84 07fa      	CPC  R31,R26
000d85 f509      	BRNE _0x134
                 ; 0000 0185         nek_ambruk();
000d86 df14      	RCALL _nek_ambruk
                 ; 0000 0186         maju();
000d87 d608      	RCALL _maju
                 ; 0000 0187         pid_servo_mon();
000d88 d0fa      	RCALL _pid_servo_mon
                 ; 0000 0188         if(Ball == 0) {hitungNgawur = delayNgawur; state = 1; break;}
000d89 940e 1f0b 	CALL SUBOPT_0x64
000d8b f429      	BRNE _0x135
000d8c 940e 1eab 	CALL SUBOPT_0x53
000d8e 940e 1e2a 	CALL SUBOPT_0x4C
000d90 c065      	RJMP _0x12E
                 ; 0000 0189         if(servo[19] >= 1800){jalan = 0;}
                 _0x135:
000d91 940e 1eff 	CALL SUBOPT_0x62
000d93 30a8      	CPI  R26,LOW(0x708)
000d94 e0e7      	LDI  R30,HIGH(0x708)
000d95 07be      	CPC  R27,R30
000d96 f02c      	BRLT _0x136
000d97 e0e0      	LDI  R30,LOW(0)
000d98 93e0 0bb8 	STS  _jalan,R30
000d9a 93e0 0bb9 	STS  _jalan+1,R30
                 ; 0000 018A         if(servo[19] <= 1200){jalan = 2;}
                 _0x136:
000d9c 940e 1eff 	CALL SUBOPT_0x62
000d9e 3ba1      	CPI  R26,LOW(0x4B1)
000d9f e0e4      	LDI  R30,HIGH(0x4B1)
000da0 07be      	CPC  R27,R30
000da1 f414      	BRGE _0x137
000da2 940e 1ece 	CALL SUBOPT_0x58
                 ; 0000 018B         printf("%d maju jalan\r\n",servo[18]);
                 _0x137:
                +
000da4 e2ea     +LDI R30 , LOW ( 2 * _0x0 + ( 204 ) )
000da5 e0f2     +LDI R31 , HIGH ( 2 * _0x0 + ( 204 ) )
                 	__POINTW1FN _0x0,204
000da6 c049      	RJMP _0x26C
                 ; 0000 018C      break;
                 ; 0000 018D 
                 ; 0000 018E      case 2:    //rotasi kanan
                 _0x134:
000da7 30e2      	CPI  R30,LOW(0x2)
000da8 e0a0      	LDI  R26,HIGH(0x2)
000da9 07fa      	CPC  R31,R26
000daa f501      	BRNE _0x138
                 ; 0000 018F         nek_ambruk();
000dab deef      	RCALL _nek_ambruk
                 ; 0000 0190         rotasi_kanan();
000dac d742      	RCALL _rotasi_kanan
                 ; 0000 0191         pid_servo();
000dad 940e 1efa 	CALL SUBOPT_0x61
                 ; 0000 0192         if (Ball >= 5 && pos_x >= 50 && pos_x <= 280 && servo[19] >= 1300) {jalan = 1; servo[19] = 1500;}
000daf f06c      	BRLT _0x13A
000db0 940e 1e3a 	CALL SUBOPT_0x4E
000db2 97d2      	SBIW R26,50
000db3 f04c      	BRLT _0x13A
000db4 940e 1ebb 	CALL SUBOPT_0x55
000db6 f434      	BRGE _0x13A
000db7 940e 1eff 	CALL SUBOPT_0x62
000db9 31a4      	CPI  R26,LOW(0x514)
000dba e0e5      	LDI  R30,HIGH(0x514)
000dbb 07be      	CPC  R27,R30
000dbc f40c      	BRGE _0x13B
                 _0x13A:
000dbd c004      	RJMP _0x139
                 _0x13B:
000dbe 940e 1ec0 	CALL SUBOPT_0x56
000dc0 940e 1f04 	CALL SUBOPT_0x63
                 ; 0000 0193         if(Ball == 0) {hitungNgawur = delayNgawur; state = 1; break;}
                 _0x139:
000dc2 940e 1f0b 	CALL SUBOPT_0x64
000dc4 f429      	BRNE _0x13C
000dc5 940e 1eab 	CALL SUBOPT_0x53
000dc7 940e 1e2a 	CALL SUBOPT_0x4C
000dc9 c02c      	RJMP _0x12E
                 ; 0000 0194         printf("%d serong kanan\r\n",servo[18]);
                 _0x13C:
000dca c023      	RJMP _0x26D
                 ; 0000 0195      break;
                 ; 0000 0196 
                 ; 0000 0197      case 3:   //rotasi kiri
                 _0x138:
000dcb 30e3      	CPI  R30,LOW(0x3)
000dcc e0a0      	LDI  R26,HIGH(0x3)
000dcd 07fa      	CPC  R31,R26
000dce f539      	BRNE _0x12E
                 ; 0000 0198         nek_ambruk();
000dcf decb      	RCALL _nek_ambruk
                 ; 0000 0199         rotasi_kiri();
000dd0 d649      	RCALL _rotasi_kiri
                 ; 0000 019A         pid_servo();
000dd1 940e 1efa 	CALL SUBOPT_0x61
                 ; 0000 019B         if (Ball >= 5 && pos_x >= 50 && pos_x <= 280 && servo[19] >= 1300) {jalan = 1; servo[19] = 1500;}
000dd3 f06c      	BRLT _0x13F
000dd4 940e 1e3a 	CALL SUBOPT_0x4E
000dd6 97d2      	SBIW R26,50
000dd7 f04c      	BRLT _0x13F
000dd8 940e 1ebb 	CALL SUBOPT_0x55
000dda f434      	BRGE _0x13F
000ddb 940e 1eff 	CALL SUBOPT_0x62
000ddd 31a4      	CPI  R26,LOW(0x514)
000dde e0e5      	LDI  R30,HIGH(0x514)
000ddf 07be      	CPC  R27,R30
000de0 f40c      	BRGE _0x140
                 _0x13F:
000de1 c004      	RJMP _0x13E
                 _0x140:
000de2 940e 1ec0 	CALL SUBOPT_0x56
000de4 940e 1f04 	CALL SUBOPT_0x63
                 ; 0000 019C         if(Ball == 0) {hitungNgawur = delayNgawur; state = 1; break;}
                 _0x13E:
000de6 940e 1f0b 	CALL SUBOPT_0x64
000de8 f429      	BRNE _0x141
000de9 940e 1eab 	CALL SUBOPT_0x53
000deb 940e 1e2a 	CALL SUBOPT_0x4C
000ded c008      	RJMP _0x12E
                 ; 0000 019D         printf("%d serong kanan\r\n",servo[18]);
                 _0x141:
                 _0x26D:
                +
000dee e3ea     +LDI R30 , LOW ( 2 * _0x0 + ( 220 ) )
000def e0f2     +LDI R31 , HIGH ( 2 * _0x0 + ( 220 ) )
                 	__POINTW1FN _0x0,220
                 _0x26C:
000df0 93fa      	ST   -Y,R31
000df1 93ea      	ST   -Y,R30
000df2 940e 1d0b 	CALL SUBOPT_0x25
000df4 940e 1e31 	CALL SUBOPT_0x4D
                 ; 0000 019E      break;
                 ; 0000 019F 
                 ; 0000 01A0 
                 ; 0000 01A1 
                 ; 0000 01A2     }
                 _0x12E:
                 ; 0000 01A3 
                 ; 0000 01A4 }
000df6 9508      	RET
                 ;
                 ;void cari_bola(){//         state = 1
                 ; 0000 01A6 void cari_bola(){
                 _cari_bola:
                 ; 0000 01A7     switch(cariBola){
000df7 91e0 0bb6 	LDS  R30,_cariBola
000df9 91f0 0bb7 	LDS  R31,_cariBola+1
                 ; 0000 01A8     case 0:
000dfb 9730      	SBIW R30,0
000dfc f541      	BRNE _0x145
                 ; 0000 01A9         nek_ambruk();
000dfd 940e 1f11 	CALL SUBOPT_0x65
                 ; 0000 01AA         if(servo[18] >= 1800) servo[18] = 1500;
000dff f014      	BRLT _0x146
000e00 940e 1f1b 	CALL SUBOPT_0x66
                 ; 0000 01AB         printf("cari bola %d %d == %d \r\n",miringDepan, servo[19], hitungNgawur);
                 _0x146:
                +
000e02 e4ec     +LDI R30 , LOW ( 2 * _0x0 + ( 238 ) )
000e03 e0f2     +LDI R31 , HIGH ( 2 * _0x0 + ( 238 ) )
                 	__POINTW1FN _0x0,238
000e04 940e 1f22 	CALL SUBOPT_0x67
000e06 940e 1f2d 	CALL SUBOPT_0x68
000e08 940e 1f32 	CALL SUBOPT_0x69
000e0a 940e 1f37 	CALL SUBOPT_0x6A
                 ; 0000 01AC         servo[19]+=1;
000e0c 9631      	ADIW R30,1
000e0d 940e 1f3c 	CALL SUBOPT_0x6B
                 ; 0000 01AD         if(servo[19] >= 2300) cariBola = 1;
000e0f 3fac      	CPI  R26,LOW(0x8FC)
000e10 e0e8      	LDI  R30,HIGH(0x8FC)
000e11 07be      	CPC  R27,R30
000e12 f014      	BRLT _0x147
000e13 940e 1eb4 	CALL SUBOPT_0x54
                 ; 0000 01AE         if(Ball >= 5 ) {mvx = servo[19]; mvy = servo[18]; state = 2;}
                 _0x147:
000e15 940e 1d2a 	CALL SUBOPT_0x2A
000e17 9715      	SBIW R26,5
000e18 f034      	BRLT _0x148
000e19 940e 1d10 	CALL SUBOPT_0x26
000e1b 940e 1f41 	CALL SUBOPT_0x6C
000e1d 940e 1f46 	CALL SUBOPT_0x6D
                 ; 0000 01AF         if(hitungNgawur <= 0){hitungWaras = delayWaras; state = 101;}
                 _0x148:
000e1f 940e 1d15 	CALL SUBOPT_0x27
000e21 f014      	BRLT _0x149
000e22 940e 1f4d 	CALL SUBOPT_0x6E
                 ; 0000 01B0 
                 ; 0000 01B1 
                 ; 0000 01B2      break;
                 _0x149:
000e24 c030      	RJMP _0x144
                 ; 0000 01B3 
                 ; 0000 01B4      case 1:
                 _0x145:
000e25 30e1      	CPI  R30,LOW(0x1)
000e26 e0a0      	LDI  R26,HIGH(0x1)
000e27 07fa      	CPC  R31,R26
000e28 f561      	BRNE _0x144
                 ; 0000 01B5         nek_ambruk();
000e29 940e 1f11 	CALL SUBOPT_0x65
                 ; 0000 01B6         if(servo[18] < 1800) servo[18] = 1800;
000e2b f424      	BRGE _0x14B
                +
000e2c e4ec     +LDI R30 , LOW ( _servo + ( 36 ) )
000e2d e0fa     +LDI R31 , HIGH ( _servo + ( 36 ) )
                 	__POINTW1MN _servo,36
000e2e 940e 1f58 	CALL SUBOPT_0x6F
                 ; 0000 01B7         printf("cari bola %d %d == %d\r\n",miringDepan, servo[19], hitungNgawur);
                 _0x14B:
                +
000e30 e6e5     +LDI R30 , LOW ( 2 * _0x0 + ( 263 ) )
000e31 e0f2     +LDI R31 , HIGH ( 2 * _0x0 + ( 263 ) )
                 	__POINTW1FN _0x0,263
000e32 940e 1f22 	CALL SUBOPT_0x67
000e34 940e 1f2d 	CALL SUBOPT_0x68
000e36 940e 1f32 	CALL SUBOPT_0x69
000e38 940e 1f37 	CALL SUBOPT_0x6A
                 ; 0000 01B8         servo[19]-=1;
000e3a 9731      	SBIW R30,1
000e3b 940e 1f3c 	CALL SUBOPT_0x6B
                 ; 0000 01B9         if(servo[19] <= 700)cariBola = 0;
000e3d 3bad      	CPI  R26,LOW(0x2BD)
000e3e e0e2      	LDI  R30,HIGH(0x2BD)
000e3f 07be      	CPC  R27,R30
000e40 f42c      	BRGE _0x14C
000e41 e0e0      	LDI  R30,LOW(0)
000e42 93e0 0bb6 	STS  _cariBola,R30
000e44 93e0 0bb7 	STS  _cariBola+1,R30
                 ; 0000 01BA         if(Ball >= 5 ) {mvx = servo[19]; mvy = servo[18]; state = 2;}
                 _0x14C:
000e46 940e 1d2a 	CALL SUBOPT_0x2A
000e48 9715      	SBIW R26,5
000e49 f034      	BRLT _0x14D
000e4a 940e 1d10 	CALL SUBOPT_0x26
000e4c 940e 1f41 	CALL SUBOPT_0x6C
000e4e 940e 1f46 	CALL SUBOPT_0x6D
                 ; 0000 01BB         if(hitungNgawur <= 0){hitungWaras = delayWaras; state = 101;}
                 _0x14D:
000e50 940e 1d15 	CALL SUBOPT_0x27
000e52 f014      	BRLT _0x14E
000e53 940e 1f4d 	CALL SUBOPT_0x6E
                 ; 0000 01BC 
                 ; 0000 01BD 
                 ; 0000 01BE      break;
                 _0x14E:
                 ; 0000 01BF     }
                 _0x144:
                 ; 0000 01C0     siap();
000e55 d056      	RCALL _siap
                 ; 0000 01C1 
                 ; 0000 01C2 }
000e56 9508      	RET
                 ;
                 ;void ngitung(){
                 ; 0000 01C4 void ngitung(){
                 ; 0000 01C5     hitung = 600;
                 ; 0000 01C6     jalan = 1;
                 ; 0000 01C7     state = 3;
                 ; 0000 01C8 }
                 ;
                 ;void ngawur(){
                 ; 0000 01CA void ngawur(){
                 _ngawur:
                 ; 0000 01CB     nek_ambruk();
000e57 de43      	RCALL _nek_ambruk
                 ; 0000 01CC     maju();
000e58 d537      	RCALL _maju
                 ; 0000 01CD     servo[18] = 1500;
000e59 940e 1f1b 	CALL SUBOPT_0x66
                 ; 0000 01CE     servo[19] = 1500;
000e5b 940e 1f04 	CALL SUBOPT_0x63
                 ; 0000 01CF     if(hitungWaras <= 0) {hitungNgawur = delayNgawur; state = 1;}
000e5d 940e 1d1c 	CALL SUBOPT_0x28
000e5f f024      	BRLT _0x14F
000e60 940e 1eab 	CALL SUBOPT_0x53
000e62 940e 1e2a 	CALL SUBOPT_0x4C
                 ; 0000 01D0     if(Ball >= 5){mvx = servo[19]; mvy = servo[18]; state = 2;}
                 _0x14F:
000e64 940e 1d2a 	CALL SUBOPT_0x2A
000e66 9715      	SBIW R26,5
000e67 f034      	BRLT _0x150
000e68 940e 1d10 	CALL SUBOPT_0x26
000e6a 940e 1f41 	CALL SUBOPT_0x6C
000e6c 940e 1f46 	CALL SUBOPT_0x6D
                 ; 0000 01D1     printf("Aku Ngawur %d - %d\r\n",miringDepan, hitungWaras);
                 _0x150:
                +
000e6e e7ed     +LDI R30 , LOW ( 2 * _0x0 + ( 287 ) )
000e6f e0f2     +LDI R31 , HIGH ( 2 * _0x0 + ( 287 ) )
                 	__POINTW1FN _0x0,287
000e70 93fa      	ST   -Y,R31
000e71 93ea      	ST   -Y,R30
000e72 91e0 0bdd 	LDS  R30,_miringDepan
000e74 91f0 0bde 	LDS  R31,_miringDepan+1
000e76 940e 1f2d 	CALL SUBOPT_0x68
000e78 91e0 0bc4 	LDS  R30,_hitungWaras
000e7a 91f0 0bc5 	LDS  R31,_hitungWaras+1
000e7c 940e 1f2d 	CALL SUBOPT_0x68
000e7e e088      	LDI  R24,8
000e7f 940e 188e 	CALL _printf
000e81 962a      	ADIW R28,10
                 ; 0000 01D2 }
000e82 9508      	RET
                 ;
                 ;void pid_servo_mon(){ //
                 ; 0000 01D4 void pid_servo_mon(){
                 _pid_servo_mon:
                 ; 0000 01D5 
                 ; 0000 01D6     errorx = spx - pos_x;
000e83 940e 1e3a 	CALL SUBOPT_0x4E
000e85 940e 1e3f 	CALL SUBOPT_0x4F
                 ; 0000 01D7     px = errorx/47;
                 ; 0000 01D8     mvx += px;
                 ; 0000 01D9     servo[19] = mvx;
                 ; 0000 01DA     if(mvx >= 2300)mvx = 2300;
000e87 f01c      	BRLT _0x151
000e88 efec      	LDI  R30,LOW(2300)
000e89 e0f8      	LDI  R31,HIGH(2300)
000e8a c005      	RJMP _0x26E
                 ; 0000 01DB     else if (mvx <= 700)mvx = 700;
                 _0x151:
000e8b 940e 1e6b 	CALL SUBOPT_0x50
000e8d f434      	BRGE _0x153
000e8e ebec      	LDI  R30,LOW(700)
000e8f e0f2      	LDI  R31,HIGH(700)
                 _0x26E:
000e90 93e0 0bd6 	STS  _mvx,R30
000e92 93f0 0bd7 	STS  _mvx+1,R31
                 ; 0000 01DC 
                 ; 0000 01DD     errory = spy - pos_y;
                 _0x153:
000e94 940e 1e73 	CALL SUBOPT_0x51
                 ; 0000 01DE     py = errory/47;
                 ; 0000 01DF     mvy -= py;
                 ; 0000 01E0     servo[18] = mvy;
                 ; 0000 01E1     if(mvy <= 1000)mvy = 1000;
000e96 3ea9      	CPI  R26,LOW(0x3E9)
000e97 e0e3      	LDI  R30,HIGH(0x3E9)
000e98 07be      	CPC  R27,R30
000e99 f41c      	BRGE _0x154
000e9a eee8      	LDI  R30,LOW(1000)
000e9b e0f3      	LDI  R31,HIGH(1000)
000e9c c00a      	RJMP _0x26F
                 ; 0000 01E2     else if (mvy >= 2300)mvy = 2300;
                 _0x154:
000e9d 91a0 0bd8 	LDS  R26,_mvy
000e9f 91b0 0bd9 	LDS  R27,_mvy+1
000ea1 3fac      	CPI  R26,LOW(0x8FC)
000ea2 e0e8      	LDI  R30,HIGH(0x8FC)
000ea3 07be      	CPC  R27,R30
000ea4 f034      	BRLT _0x156
000ea5 efec      	LDI  R30,LOW(2300)
000ea6 e0f8      	LDI  R31,HIGH(2300)
                 _0x26F:
000ea7 93e0 0bd8 	STS  _mvy,R30
000ea9 93f0 0bd9 	STS  _mvy+1,R31
                 ; 0000 01E3 
                 ; 0000 01E4 }
                 _0x156:
000eab 9508      	RET
                 ;
                 ;void siap()
                 ; 0000 01E7   {
                 _siap:
                 ; 0000 01E8 
                 ; 0000 01E9    //tangan kanan
                 ; 0000 01EA     servo[14] = 1350; //R3 - CW
                +
000eac e4e4     +LDI R30 , LOW ( _servo + ( 28 ) )
000ead e0fa     +LDI R31 , HIGH ( _servo + ( 28 ) )
                 	__POINTW1MN _servo,28
000eae e4a6      	LDI  R26,LOW(1350)
000eaf e0b5      	LDI  R27,HIGH(1350)
000eb0 940e 1f5d 	CALL SUBOPT_0x70
                 ; 0000 01EB     servo[13] = 900; //R2 - turun
                 ; 0000 01EC     servo[12] = 1900; //R1 - mundur
                 ; 0000 01ED     //tangan kiri
                 ; 0000 01EE     servo[17]  = 1650; //L3 - CW
000eb2 e7a2      	LDI  R26,LOW(1650)
000eb3 e0b6      	LDI  R27,HIGH(1650)
000eb4 940e 1f6e 	CALL SUBOPT_0x71
                 ; 0000 01EF     servo[16]  = 2050; //L2 - naik
                 ; 0000 01F0     servo[15]  = 1100; //L1 - maju
                 ; 0000 01F1     switch(0)
                 ; 0000 01F2         {
                 ; 0000 01F3            case 0 :     //gait  mlaku
000eb6 f529      	BRNE _0x159
                 ; 0000 01F4                 VY=10;
000eb7 940e 1f7f 	CALL SUBOPT_0x72
                 ; 0000 01F5                 if(counterDelay<=0)
000eb9 f114      	BRLT _0x15B
                 ; 0000 01F6                 {
                 ; 0000 01F7                     switch(countTick)
                +
000eba 2ded     +MOV R30 , R13
000ebb 2dfe     +MOV R31 , R14
                 	__GETW1R 13,14
                 ; 0000 01F8                     {
                 ; 0000 01F9                        case 0:
000ebc 9730      	SBIW R30,0
000ebd f449      	BRNE _0x15E
                 ; 0000 01FA                        servoInitError[7]=40;
                +
000ebe e0ee     +LDI R30 , LOW ( _servoInitError + ( 14 ) )
000ebf e0fa     +LDI R31 , HIGH ( _servoInitError + ( 14 ) )
                 	__POINTW1MN _servoInitError,14
000ec0 e2a8      	LDI  R26,LOW(40)
000ec1 e0b0      	LDI  R27,HIGH(40)
000ec2 83a0      	STD  Z+0,R26
000ec3 83b1      	STD  Z+1,R27
                 ; 0000 01FB                             X[0]=0; Y[0]=0; Z[0]=0;
000ec4 940e 1c73 	CALL SUBOPT_0x16
                 ; 0000 01FC                             X[1]=0; Y[1]=0; Z[1]=0;
                 ; 0000 01FD                             InputXYZ();
000ec6 dcba      	RCALL _InputXYZ
                 ; 0000 01FE                         break;
                 ; 0000 01FF                     }
                 _0x15E:
                 ; 0000 0200                     if(VX != 0 || VY != 0 | W != 0 )
000ec7 940e 1d2f 	CALL SUBOPT_0x2B
000ec9 f419      	BRNE _0x161
000eca 940e 1f8c 	CALL SUBOPT_0x73
000ecc f049      	BREQ _0x160
                 _0x161:
                 ; 0000 0201                     {
                 ; 0000 0202                         countTick++;
000ecd 940e 1fab 	CALL SUBOPT_0x74
                 ; 0000 0203                         if(countTick>0)
000ecf 2400      	CLR  R0
000ed0 140d      	CP   R0,R13
000ed1 040e      	CPC  R0,R14
000ed2 f414      	BRGE _0x163
                 ; 0000 0204                            countTick=0;     //2
000ed3 24dd      	CLR  R13
000ed4 24ee      	CLR  R14
                 ; 0000 0205                     }
                 _0x163:
                 ; 0000 0206                     else
000ed5 c002      	RJMP _0x164
                 _0x160:
                 ; 0000 0207                     {
                 ; 0000 0208                         countTick=0;
000ed6 24dd      	CLR  R13
000ed7 24ee      	CLR  R14
                 ; 0000 0209                     }
                 _0x164:
                 ; 0000 020A 
                 ; 0000 020B                     counterDelay=75; //3000
000ed8 e4eb      	LDI  R30,LOW(75)
000ed9 e0f0      	LDI  R31,HIGH(75)
000eda 940e 1fb0 	CALL SUBOPT_0x75
                 ; 0000 020C                 }
                 ; 0000 020D             break;
                 _0x15B:
                 ; 0000 020E         }
                 _0x159:
                 ; 0000 020F 
                 ; 0000 0210         speed=1; //10
000edc 940e 1fb5 	CALL SUBOPT_0x76
                 ; 0000 0211         if(counterTG>speed)
000ede f414      	BRGE _0x165
                 ; 0000 0212         {
                 ; 0000 0213             counterTG=0;
000edf 940e 1fc2 	CALL SUBOPT_0x77
                 ; 0000 0214             taskGerakan();
                 ; 0000 0215         }
                 ; 0000 0216   }
                 _0x165:
000ee1 9508      	RET
                 ;
                 ;
                 ;void goal()
                 ; 0000 021A  {
                 ; 0000 021B       de = 100;
                 ; 0000 021C       switch(tangi)
                 ; 0000 021D       {
                 ; 0000 021E        case 0:
                 ; 0000 021F             servo[14] = 1800; //R3 - CW
                 ; 0000 0220             servo[13] = 900; //R2 - turun
                 ; 0000 0221             servo[12] = 1900; //R1 - mundur
                 ; 0000 0222             //tangan kiri
                 ; 0000 0223             servo[17]  = 1200; //L3 - CW
                 ; 0000 0224             servo[16]  = 2050; //L2 - naik
                 ; 0000 0225             servo[15]  = 1100; //L1 - maju
                 ; 0000 0226             //kaki kanan
                 ; 0000 0227             servo[5] = 800 + (7.7777* 90); //pinggul ra enek
                 ; 0000 0228             servo[4] = 1520; //R5 - kiri
                 ; 0000 0229             servo[3] = 1136; //R4 - maju
                 ; 0000 022A             servo[2] = 1931; //R3 - maju
                 ; 0000 022B             servo[1] = 1289; //R2 - maju
                 ; 0000 022C             servo[0] = 1500; //R1 - kiri
                 ; 0000 022D             //kaki kiri
                 ; 0000 022E             servo[11] = 1500 + (7.7777* 90); //pinggul  ra enek
                 ; 0000 022F             servo[10] = 1500; //L5 - kanan
                 ; 0000 0230             servo[9]  = 1136; //L4 - maju    984
                 ; 0000 0231             servo[8]  = 1931; //L3 - maju
                 ; 0000 0232             servo[7]  = 1289; //L2 - maju
                 ; 0000 0233             servo[6]  = 1500; //L1 - kanan
                 ; 0000 0234             tangi=1;
                 ; 0000 0235             delay_ms(3000);
                 ; 0000 0236        break;
                 ; 0000 0237 
                 ; 0000 0238        case 1:
                 ; 0000 0239             servo[14] = 1800; //R3 - CW
                 ; 0000 023A             servo[13] = 900; //R2 - turun
                 ; 0000 023B             servo[12] = 1900; //R1 - mundur
                 ; 0000 023C             //tangan kiri
                 ; 0000 023D             servo[17]  = 1200; //L3 - CW
                 ; 0000 023E             servo[16]  = 2050; //L2 - naik
                 ; 0000 023F             servo[15]  = 1100; //L1 - maju
                 ; 0000 0240             //kaki kanan
                 ; 0000 0241             servo[5] = 800 + (7.7777* 90); //pinggul ra enek
                 ; 0000 0242             servo[4] = 1587; //R5 - kiri
                 ; 0000 0243             servo[3] = 1136; //R4 - maju
                 ; 0000 0244             servo[2] = 1931; //R3 - maju
                 ; 0000 0245             servo[1] = 1289; //R2 - maju
                 ; 0000 0246             servo[0] = 1567; //R1 - kiri
                 ; 0000 0247             //kaki kiri
                 ; 0000 0248             servo[11] = 1500 + (7.7777* 90); //pinggul  ra enek
                 ; 0000 0249             servo[10] = 1453; //L5 - kanan
                 ; 0000 024A             servo[9]  = 1136; //L4 - maju    984
                 ; 0000 024B             servo[8]  = 1931; //L3 - maju
                 ; 0000 024C             servo[7]  = 1289; //L2 - maju
                 ; 0000 024D             servo[6]  = 1453; //L1 - kanan
                 ; 0000 024E             tangi=2;
                 ; 0000 024F             delay_ms(de);
                 ; 0000 0250        break;
                 ; 0000 0251 
                 ; 0000 0252        case 2:
                 ; 0000 0253             //tangan kanan
                 ; 0000 0254             servo[14] = 1800; //R3 - CW
                 ; 0000 0255             servo[13] = 900; //R2 - turun
                 ; 0000 0256             servo[12] = 1900; //R1 - mundur
                 ; 0000 0257             //tangan kiri
                 ; 0000 0258             servo[17]  = 1200; //L3 - CW
                 ; 0000 0259             servo[16]  = 1500; //L2 - naik
                 ; 0000 025A             servo[15]  = 1100; //L1 - maju
                 ; 0000 025B             //kaki kanan
                 ; 0000 025C             servo[5] = 800 + (7.7777* 90); //pinggul ra enek
                 ; 0000 025D             servo[4] = 1587; //R5 - kiri
                 ; 0000 025E             servo[3] = 1138; //R4 - maju
                 ; 0000 025F             servo[2] = 1842; //R3 - maju
                 ; 0000 0260             servo[1] = 1219; //R2 - maju
                 ; 0000 0261             servo[0] = 1567; //R1 - kiri
                 ; 0000 0262             //kaki kiri
                 ; 0000 0263             servo[11] = 1500 + (7.7777* 90); //pinggul  ra enek
                 ; 0000 0264             servo[10] = 1453; //L5 - kanan
                 ; 0000 0265             servo[9]  = 1381; //L4 - maju    984
                 ; 0000 0266             servo[8]  = 1802; //L3 - maju
                 ; 0000 0267             servo[7]  = 1212; //L2 - maju
                 ; 0000 0268             servo[6]  = 1453; //L1 - kanan
                 ; 0000 0269             tangi=2;
                 ; 0000 026A             delay_ms(de);
                 ; 0000 026B        break;
                 ; 0000 026C       }
                 ; 0000 026D  }
                 ;
                 ;void dor(){
                 ; 0000 026F void dor(){
                 ; 0000 0270     langkahMax=1;
                 ; 0000 0271     //tangan kanan
                 ; 0000 0272     servo[14] = 1800; //R3 - CW
                 ; 0000 0273     servo[13] = 900; //R2 - turun
                 ; 0000 0274     servo[12] = 1900; //R1 - mundur
                 ; 0000 0275     //tangan kiri
                 ; 0000 0276     servo[17]  = 1200; //L3 - CW
                 ; 0000 0277     servo[16]  = 2050; //L2 - naik
                 ; 0000 0278     servo[15]  = 1100; //L1 - maju
                 ; 0000 0279     switch(0)
                 ; 0000 027A         {
                 ; 0000 027B            case 0 :     //gait  mlaku
                 ; 0000 027C                 VY=10;
                 ; 0000 027D                 if(counterDelay<=0)
                 ; 0000 027E                 {
                 ; 0000 027F                     switch(countTick)
                 ; 0000 0280                     {
                 ; 0000 0281                        case 0:
                 ; 0000 0282                        langkahMax=1;
                 ; 0000 0283                             X[0]=-90; Y[0]=0; Z[0]=-20;
                 ; 0000 0284                             X[1]=70; Y[1]=-40; Z[1]=-50;
                 ; 0000 0285                             InputXYZ();
                 ; 0000 0286                         break;
                 ; 0000 0287                         case 1:
                 ; 0000 0288                         langkahMax=1;
                 ; 0000 0289                             X[0]=-90; Y[0]=0; Z[0]=-20;
                 ; 0000 028A                             X[1]=70; Y[1]=40; Z[1]=-50;
                 ; 0000 028B                             InputXYZ();
                 ; 0000 028C                         break;
                 ; 0000 028D                         case 2:
                 ; 0000 028E                         langkahMax=1;
                 ; 0000 028F                             X[0]=0; Y[0]=0; Z[0]=-20;
                 ; 0000 0290                             X[1]=0; Y[1]=0; Z[1]=-20;
                 ; 0000 0291                             InputXYZ();
                 ; 0000 0292                         break;
                 ; 0000 0293                     }
                 ; 0000 0294                     if(VX != 0 || VY != 0 | W != 0 )
                 ; 0000 0295                     {
                 ; 0000 0296                         countTick++;
                 ; 0000 0297                         if(countTick>2)
                 ; 0000 0298                            countTick=2;     //2
                 ; 0000 0299                     }
                 ; 0000 029A                     else
                 ; 0000 029B                     {
                 ; 0000 029C                         countTick=0;
                 ; 0000 029D                     }
                 ; 0000 029E 
                 ; 0000 029F                     counterDelay=120; //65 80
                 ; 0000 02A0                 }
                 ; 0000 02A1             break;
                 ; 0000 02A2         }
                 ; 0000 02A3 
                 ; 0000 02A4         speed=1; //10
                 ; 0000 02A5         if(counterTG>speed)
                 ; 0000 02A6         {
                 ; 0000 02A7             counterTG=0;
                 ; 0000 02A8             taskGerakan();
                 ; 0000 02A9         }
                 ; 0000 02AA }
                 ;
                 ;void tendang(){
                 ; 0000 02AC void tendang(){
                 ; 0000 02AD     langkahMax=40;
                 ; 0000 02AE     //tangan kanan
                 ; 0000 02AF     servo[14] = 1800; //R3 - CW
                 ; 0000 02B0     servo[13] = 900; //R2 - turun
                 ; 0000 02B1     servo[12] = 1900; //R1 - mundur
                 ; 0000 02B2     //tangan kiri
                 ; 0000 02B3     servo[17]  = 1300; //L3 - CW
                 ; 0000 02B4     servo[16]  = 2100; //L2 - naik
                 ; 0000 02B5     servo[15]  = 1100; //L1 - maju
                 ; 0000 02B6     switch(0)
                 ; 0000 02B7         {
                 ; 0000 02B8            case 0 :     //gait  mlaku
                 ; 0000 02B9                 VY=45;   //40 42
                 ; 0000 02BA                 VZ=30;   //25
                 ; 0000 02BB                 if(counterDelay<=0)
                 ; 0000 02BC                 {
                 ; 0000 02BD                     switch(countTick)
                 ; 0000 02BE                     {
                 ; 0000 02BF                        case 0:
                 ; 0000 02C0                             X[0]=0; Y[0]=0; Z[0]=0;
                 ; 0000 02C1                             X[1]=0; Y[1]=0; Z[1]=0;
                 ; 0000 02C2                             InputXYZ();
                 ; 0000 02C3                         break;
                 ; 0000 02C4 //                        case 1:
                 ; 0000 02C5 //                        servoInitError[6]=250;
                 ; 0000 02C6 //                            X[0]=-VY; Y[0]=0; Z[0]=0;
                 ; 0000 02C7 //                            X[1]=VY; Y[1]=0; Z[1]=-VZ;
                 ; 0000 02C8 //                            InputXYZ();
                 ; 0000 02C9 //                        break;
                 ; 0000 02CA                         case 1:
                 ; 0000 02CB                         servoInitError[6]=300;      //250
                 ; 0000 02CC                         servoInitError[14]=-600;
                 ; 0000 02CD                         servoInitError[13]=600;
                 ; 0000 02CE                         //servoInitError[17]=600;
                 ; 0000 02CF                             X[0]=-VY-5; Y[0]=0; Z[0]=0;
                 ; 0000 02D0                             X[1]=VY; Y[1]=0; Z[1]=-VZ;
                 ; 0000 02D1                             InputXYZ();
                 ; 0000 02D2                         break;
                 ; 0000 02D3                         case 2:
                 ; 0000 02D4                         servoInitError[6]=300;
                 ; 0000 02D5                         servoInitError[9]=-250;
                 ; 0000 02D6                         servoInitError[8]=-250;
                 ; 0000 02D7                         servoInitError[7]=500;
                 ; 0000 02D8                             X[0]=-VY-5; Y[0]=0; Z[0]=0;
                 ; 0000 02D9                             X[1]=VY; Y[1]=0; Z[1]=-VZ-20;
                 ; 0000 02DA                             InputXYZ();
                 ; 0000 02DB                         break;
                 ; 0000 02DC                         case 3:
                 ; 0000 02DD                         servoInitError[6]=0;
                 ; 0000 02DE                         servoInitError[9]=0;
                 ; 0000 02DF                         servoInitError[8]=0;
                 ; 0000 02E0                         servoInitError[7]=0;
                 ; 0000 02E1                         servoInitError[14]=0;
                 ; 0000 02E2                         servoInitError[13]=0;
                 ; 0000 02E3                             X[0]=0; Y[0]=0; Z[0]=0;
                 ; 0000 02E4                             X[1]=0; Y[1]=0; Z[1]=0;
                 ; 0000 02E5                             InputXYZ();
                 ; 0000 02E6                         break;
                 ; 0000 02E7                         case 5:
                 ; 0000 02E8                         langkahMax=1;
                 ; 0000 02E9                             X[0]=0; Y[0]=0; Z[0]=-20;
                 ; 0000 02EA                             X[1]=0; Y[1]=0; Z[1]=-20;
                 ; 0000 02EB                             InputXYZ();
                 ; 0000 02EC                         break;
                 ; 0000 02ED                     }
                 ; 0000 02EE                     if(VX != 0 || VY != 0 | W != 0 )
                 ; 0000 02EF                     {
                 ; 0000 02F0                         countTick++;
                 ; 0000 02F1                         if(countTick>3)
                 ; 0000 02F2                            countTick=3;     //2
                 ; 0000 02F3                     }
                 ; 0000 02F4                     else
                 ; 0000 02F5                     {
                 ; 0000 02F6                         countTick=0;
                 ; 0000 02F7                     }
                 ; 0000 02F8 
                 ; 0000 02F9                     counterDelay=500; //500
                 ; 0000 02FA                 }
                 ; 0000 02FB             break;
                 ; 0000 02FC         }
                 ; 0000 02FD 
                 ; 0000 02FE         speed=1; //10
                 ; 0000 02FF         if(counterTG>speed)
                 ; 0000 0300         {
                 ; 0000 0301             counterTG=0;
                 ; 0000 0302             taskGerakan();
                 ; 0000 0303         }
                 ; 0000 0304 }
                 ;
                 ;void geser_kiri(){
                 ; 0000 0306 void geser_kiri(){
                 ; 0000 0307     //tangan kanan
                 ; 0000 0308     servo[14] = 1800; //R3 - CW
                 ; 0000 0309     servo[13] = 900; //R2 - turun
                 ; 0000 030A     servo[12] = 1900; //R1 - mundur
                 ; 0000 030B     //tangan kiri
                 ; 0000 030C     servo[17]  = 1200; //L3 - CW
                 ; 0000 030D     servo[16]  = 2050; //L2 - naik
                 ; 0000 030E     servo[15]  = 1100; //L1 - maju
                 ; 0000 030F     switch(0)
                 ; 0000 0310         {
                 ; 0000 0311            case 0 :     //gait  mlaku
                 ; 0000 0312                 VY=10;
                 ; 0000 0313                 if(counterDelay<=0)
                 ; 0000 0314                 {
                 ; 0000 0315                     switch(countTick)
                 ; 0000 0316                     {
                 ; 0000 0317                        case 0:
                 ; 0000 0318                             X[0]=0; Y[0]=0; Z[0]=0;
                 ; 0000 0319                             X[1]=0; Y[1]=0; Z[1]=0;
                 ; 0000 031A                             InputXYZ();
                 ; 0000 031B                         break;
                 ; 0000 031C                         case 1:
                 ; 0000 031D                             X[0]=-10; Y[0]=0; Z[0]=0;
                 ; 0000 031E                             X[1]=10; Y[1]=0; Z[1]=0;
                 ; 0000 031F                             InputXYZ();
                 ; 0000 0320                         break;
                 ; 0000 0321                         case 2:
                 ; 0000 0322                             X[0]=-10; Y[0]=0; Z[0]=0;
                 ; 0000 0323                             X[1]=15; Y[1]=0; Z[1]=-40;
                 ; 0000 0324                             InputXYZ();
                 ; 0000 0325                         break;
                 ; 0000 0326                         case 3:
                 ; 0000 0327                             X[0]=0; Y[0]=0; Z[0]=0;
                 ; 0000 0328                             X[1]=15; Y[1]=0; Z[1]=0;
                 ; 0000 0329                             InputXYZ();
                 ; 0000 032A                         break;
                 ; 0000 032B                         case 4:
                 ; 0000 032C                             X[0]=0; Y[0]=0; Z[0]=0;
                 ; 0000 032D                             X[1]=-15; Y[1]=0; Z[1]=0;
                 ; 0000 032E                             InputXYZ();
                 ; 0000 032F                         break;
                 ; 0000 0330                         case 5:
                 ; 0000 0331                             X[0]=0; Y[0]=-0; Z[0]=-40;
                 ; 0000 0332                             X[1]=-15; Y[1]=0; Z[1]=0;
                 ; 0000 0333                             InputXYZ();
                 ; 0000 0334                         break;
                 ; 0000 0335                         case 6:
                 ; 0000 0336                             X[0]=0; Y[0]=0; Z[0]=0;
                 ; 0000 0337                             X[1]=-15; Y[1]=0; Z[1]=0;
                 ; 0000 0338                             InputXYZ();
                 ; 0000 0339                         break;
                 ; 0000 033A                     }
                 ; 0000 033B                     if(VX != 0 || VY != 0 | W != 0 )
                 ; 0000 033C                     {
                 ; 0000 033D                         countTick++;
                 ; 0000 033E                         if(countTick>6)
                 ; 0000 033F                            countTick=0;     //2
                 ; 0000 0340                     }
                 ; 0000 0341                     else
                 ; 0000 0342                     {
                 ; 0000 0343                         countTick=0;
                 ; 0000 0344                     }
                 ; 0000 0345 
                 ; 0000 0346                     counterDelay=80; //65 80
                 ; 0000 0347                 }
                 ; 0000 0348             break;
                 ; 0000 0349         }
                 ; 0000 034A 
                 ; 0000 034B         speed=1; //10
                 ; 0000 034C         if(counterTG>speed)
                 ; 0000 034D         {
                 ; 0000 034E             counterTG=0;
                 ; 0000 034F             taskGerakan();
                 ; 0000 0350         }
                 ; 0000 0351 }
                 ;
                 ;void geser_kanan(){
                 ; 0000 0353 void geser_kanan(){
                 ; 0000 0354     //tangan kanan
                 ; 0000 0355     servo[14] = 1600; //R3 - CW
                 ; 0000 0356     servo[13] = 900; //R2 - turun
                 ; 0000 0357     servo[12] = 1900; //R1 - mundur
                 ; 0000 0358     //tangan kiri
                 ; 0000 0359     servo[17]  = 1400; //L3 - CW
                 ; 0000 035A     servo[16]  = 2050; //L2 - naik
                 ; 0000 035B     servo[15]  = 1100; //L1 - maju
                 ; 0000 035C     switch(0)
                 ; 0000 035D         {
                 ; 0000 035E            case 0 :     //gait  mlaku
                 ; 0000 035F                 VY=10;
                 ; 0000 0360                 if(counterDelay<=0)
                 ; 0000 0361                 {
                 ; 0000 0362                     switch(countTick)
                 ; 0000 0363                     {
                 ; 0000 0364                        case 0:
                 ; 0000 0365                             X[0]=0; Y[0]=0; Z[0]=0;
                 ; 0000 0366                             X[1]=0; Y[1]=0; Z[1]=0;
                 ; 0000 0367                             InputXYZ();
                 ; 0000 0368                         break;
                 ; 0000 0369                         case 1:
                 ; 0000 036A                             X[0]=10; Y[0]=0; Z[0]=0;
                 ; 0000 036B                             X[1]=-10; Y[1]=0; Z[1]=0;
                 ; 0000 036C                             InputXYZ();
                 ; 0000 036D                         break;
                 ; 0000 036E                         case 2:
                 ; 0000 036F                             X[0]=15; Y[0]=-20; Z[0]=-30;
                 ; 0000 0370                             X[1]=-10; Y[1]=0; Z[1]=0;
                 ; 0000 0371                             InputXYZ();
                 ; 0000 0372                         break;
                 ; 0000 0373                         case 3:
                 ; 0000 0374                             X[0]=15; Y[0]=-20; Z[0]=0;
                 ; 0000 0375                             X[1]=0; Y[1]=0; Z[1]=0;
                 ; 0000 0376                             InputXYZ();
                 ; 0000 0377                         break;
                 ; 0000 0378                         case 4:
                 ; 0000 0379                             X[0]=-15; Y[0]=-20; Z[0]=0;
                 ; 0000 037A                             X[1]=0; Y[1]=0; Z[1]=0;
                 ; 0000 037B                             InputXYZ();
                 ; 0000 037C                         break;
                 ; 0000 037D                         case 5:
                 ; 0000 037E                             X[0]=-15; Y[0]=-20; Z[0]=0;
                 ; 0000 037F                             X[1]=0; Y[1]=-15; Z[1]=-30;
                 ; 0000 0380                             InputXYZ();
                 ; 0000 0381                         break;
                 ; 0000 0382                         case 6:
                 ; 0000 0383                             X[0]=-15; Y[0]=-20; Z[0]=0;
                 ; 0000 0384                             X[1]=0; Y[1]=-15; Z[1]=0;
                 ; 0000 0385                             InputXYZ();
                 ; 0000 0386                         break;
                 ; 0000 0387                     }
                 ; 0000 0388                     if(VX != 0 || VY != 0 | W != 0 )
                 ; 0000 0389                     {
                 ; 0000 038A                         countTick++;
                 ; 0000 038B                         if(countTick>6)
                 ; 0000 038C                            countTick=0;     //2
                 ; 0000 038D                     }
                 ; 0000 038E                     else
                 ; 0000 038F                     {
                 ; 0000 0390                         countTick=0;
                 ; 0000 0391                     }
                 ; 0000 0392 
                 ; 0000 0393                     counterDelay=80; //65 80
                 ; 0000 0394                 }
                 ; 0000 0395             break;
                 ; 0000 0396         }
                 ; 0000 0397 
                 ; 0000 0398         speed=1; //10
                 ; 0000 0399         if(counterTG>speed)
                 ; 0000 039A         {
                 ; 0000 039B             counterTG=0;
                 ; 0000 039C             taskGerakan();
                 ; 0000 039D         }
                 ; 0000 039E }
                 ;
                 ;void serong_kiri(){
                 ; 0000 03A0 void serong_kiri(){
                 _serong_kiri:
                 ; 0000 03A1     //tangan kanan
                 ; 0000 03A2     servo[14] = 1500; //R3 - CW
000ee2 940e 1fc9 	CALL SUBOPT_0x78
000ee4 940e 1f5d 	CALL SUBOPT_0x70
                 ; 0000 03A3     servo[13] = 900; //R2 - turun
                 ; 0000 03A4     servo[12] = 1900; //R1 - mundur
                 ; 0000 03A5     //tangan kiri
                 ; 0000 03A6     servo[17]  = 1500; //L3 - CW
000ee6 edac      	LDI  R26,LOW(1500)
000ee7 e0b5      	LDI  R27,HIGH(1500)
000ee8 940e 1f6e 	CALL SUBOPT_0x71
                 ; 0000 03A7     servo[16]  = 2050; //L2 - naik
                 ; 0000 03A8     servo[15]  = 1100; //L1 - maju
                 ; 0000 03A9     switch(0)
                 ; 0000 03AA         {
                 ; 0000 03AB            case 0 :     //gait  mlaku
000eea f011      	BREQ PC+3
000eeb 940c 0f6a 	JMP _0x1BC
                 ; 0000 03AC                 VY=10;
000eed 940e 1f7f 	CALL SUBOPT_0x72
                 ; 0000 03AD                 if(counterDelay<=0)
000eef f414      	BRGE PC+3
000ef0 940c 0f6a 	JMP _0x1BE
                 ; 0000 03AE                 {
                 ; 0000 03AF                     switch(countTick)
                +
000ef2 2ded     +MOV R30 , R13
000ef3 2dfe     +MOV R31 , R14
                 	__GETW1R 13,14
                 ; 0000 03B0                     {
                 ; 0000 03B1                        case 0:
000ef4 9730      	SBIW R30,0
000ef5 f439      	BRNE _0x1C2
                 ; 0000 03B2                             X[0]=0; Y[0]=0; Z[0]=0;
000ef6 940e 1fce 	CALL SUBOPT_0x79
                 ; 0000 03B3                             X[1]=0; Y[1]=0; Z[1]=0;
000ef8 940e 1fea 	CALL SUBOPT_0x7A
000efa 940e 1fef 	CALL SUBOPT_0x7B
000efc c04e      	RJMP _0x27B
                 ; 0000 03B4                             InputXYZ();
                 ; 0000 03B5                         break;
                 ; 0000 03B6                         case 1:
                 _0x1C2:
000efd 30e1      	CPI  R30,LOW(0x1)
000efe e0a0      	LDI  R26,HIGH(0x1)
000eff 07fa      	CPC  R31,R26
000f00 f439      	BRNE _0x1C3
                 ; 0000 03B7                             X[0]=-10; Y[0]=0; Z[0]=0;
000f01 940e 1ff3 	CALL SUBOPT_0x7C
                 ; 0000 03B8                             X[1]=10; Y[1]=0; Z[1]=0;
000f03 940e 2012 	CALL SUBOPT_0x7D
000f05 940e 1fef 	CALL SUBOPT_0x7B
000f07 c043      	RJMP _0x27B
                 ; 0000 03B9                             InputXYZ();
                 ; 0000 03BA                         break;
                 ; 0000 03BB                         case 2:
                 _0x1C3:
000f08 30e2      	CPI  R30,LOW(0x2)
000f09 e0a0      	LDI  R26,HIGH(0x2)
000f0a 07fa      	CPC  R31,R26
000f0b f469      	BRNE _0x1C4
                 ; 0000 03BC                             X[0]=-10; Y[0]=0; Z[0]=0;
000f0c 940e 1ff3 	CALL SUBOPT_0x7C
                 ; 0000 03BD                             X[1]=15; Y[1]=-10; Z[1]=-40;
000f0e 940e 2017 	CALL SUBOPT_0x7E
000f10 940e 1c6d 	CALL SUBOPT_0x14
000f12 940e 201c 	CALL SUBOPT_0x7F
000f14 940e 2023 	CALL SUBOPT_0x80
000f16 940e 2027 	CALL SUBOPT_0x81
000f18 c038      	RJMP _0x27C
                 ; 0000 03BE                             InputXYZ();
                 ; 0000 03BF                         break;
                 ; 0000 03C0                         case 3:
                 _0x1C4:
000f19 30e3      	CPI  R30,LOW(0x3)
000f1a e0a0      	LDI  R26,HIGH(0x3)
000f1b 07fa      	CPC  R31,R26
000f1c f429      	BRNE _0x1C5
                 ; 0000 03C1                             X[0]=0; Y[0]=0; Z[0]=0;
000f1d 940e 1fce 	CALL SUBOPT_0x79
                 ; 0000 03C2                             X[1]=15; Y[1]=-10; Z[1]=0;
000f1f 940e 2017 	CALL SUBOPT_0x7E
000f21 c025      	RJMP _0x27D
                 ; 0000 03C3                             InputXYZ();
                 ; 0000 03C4                         break;
                 ; 0000 03C5                         case 4:
                 _0x1C5:
000f22 30e4      	CPI  R30,LOW(0x4)
000f23 e0a0      	LDI  R26,HIGH(0x4)
000f24 07fa      	CPC  R31,R26
000f25 f429      	BRNE _0x1C6
                 ; 0000 03C6                             X[0]=0; Y[0]=0; Z[0]=0;
000f26 940e 202c 	CALL SUBOPT_0x82
000f28 940e 2036 	CALL SUBOPT_0x83
000f2a c013      	RJMP _0x27E
                 ; 0000 03C7                             X[1]=-15; Y[1]=-10; Z[1]=0;
                 ; 0000 03C8                             InputXYZ();
                 ; 0000 03C9                         break;
                 ; 0000 03CA                         case 5:
                 _0x1C6:
000f2b 30e5      	CPI  R30,LOW(0x5)
000f2c e0a0      	LDI  R26,HIGH(0x5)
000f2d 07fa      	CPC  R31,R26
000f2e f439      	BRNE _0x1C7
                 ; 0000 03CB                             X[0]=0; Y[0]=20; Z[0]=-40;
000f2f 940e 202c 	CALL SUBOPT_0x82
000f31 940e 2040 	CALL SUBOPT_0x84
000f33 940e 204d 	CALL SUBOPT_0x85
                 ; 0000 03CC                             X[1]=-15; Y[1]=-10; Z[1]=0;
000f35 c00b      	RJMP _0x27F
                 ; 0000 03CD                             InputXYZ();
                 ; 0000 03CE                         break;
                 ; 0000 03CF                         case 6:
                 _0x1C7:
000f36 30e6      	CPI  R30,LOW(0x6)
000f37 e0a0      	LDI  R26,HIGH(0x6)
000f38 07fa      	CPC  R31,R26
000f39 f4d1      	BRNE _0x1C1
                 ; 0000 03D0                             X[0]=0; Y[0]=20; Z[0]=0;
000f3a 940e 202c 	CALL SUBOPT_0x82
000f3c 940e 2040 	CALL SUBOPT_0x84
                 _0x27E:
000f3e e0e0      	LDI  R30,LOW(0)
000f3f 940e 205a 	CALL SUBOPT_0x86
                 ; 0000 03D1                             X[1]=-15; Y[1]=-10; Z[1]=0;
                 _0x27F:
                +
000f41 ebec     +LDI R30 , LOW ( _X + ( 4 ) )
000f42 e0fa     +LDI R31 , HIGH ( _X + ( 4 ) )
                 	__POINTW1MN _X,4
                +
000f43 e0a0     +LDI R26 , LOW ( 0xC1700000 )
000f44 e0b0     +LDI R27 , HIGH ( 0xC1700000 )
000f45 e780     +LDI R24 , BYTE3 ( 0xC1700000 )
000f46 ec91     +LDI R25 , BYTE4 ( 0xC1700000 )
                 	__GETD2N 0xC1700000
                 _0x27D:
000f47 940e 26d6 	CALL __PUTDZ20
000f49 940e 201c 	CALL SUBOPT_0x7F
                 _0x27B:
000f4b 940e 26d6 	CALL __PUTDZ20
                +
000f4d ecec     +LDI R30 , LOW ( _Z + ( 4 ) )
000f4e e0fa     +LDI R31 , HIGH ( _Z + ( 4 ) )
                 	__POINTW1MN _Z,4
000f4f 940e 1fea 	CALL SUBOPT_0x7A
                 _0x27C:
000f51 940e 26d6 	CALL __PUTDZ20
                 ; 0000 03D2                             InputXYZ();
000f53 dc2d      	RCALL _InputXYZ
                 ; 0000 03D3                         break;
                 ; 0000 03D4                     }
                 _0x1C1:
                 ; 0000 03D5                     if(VX != 0 || VY != 0 | W != 0 )
000f54 940e 1d2f 	CALL SUBOPT_0x2B
000f56 f419      	BRNE _0x1CA
000f57 940e 1f8c 	CALL SUBOPT_0x73
000f59 f051      	BREQ _0x1C9
                 _0x1CA:
                 ; 0000 03D6                     {
                 ; 0000 03D7                         countTick++;
000f5a 940e 1fab 	CALL SUBOPT_0x74
                 ; 0000 03D8                         if(countTick>6)
000f5c e0e6      	LDI  R30,LOW(6)
000f5d e0f0      	LDI  R31,HIGH(6)
000f5e 15ed      	CP   R30,R13
000f5f 05fe      	CPC  R31,R14
000f60 f414      	BRGE _0x1CC
                 ; 0000 03D9                            countTick=0;     //2
000f61 24dd      	CLR  R13
000f62 24ee      	CLR  R14
                 ; 0000 03DA                     }
                 _0x1CC:
                 ; 0000 03DB                     else
000f63 c002      	RJMP _0x1CD
                 _0x1C9:
                 ; 0000 03DC                     {
                 ; 0000 03DD                         countTick=0;
000f64 24dd      	CLR  R13
000f65 24ee      	CLR  R14
                 ; 0000 03DE                     }
                 _0x1CD:
                 ; 0000 03DF 
                 ; 0000 03E0                     counterDelay=85; //65 80
000f66 e5e5      	LDI  R30,LOW(85)
000f67 e0f0      	LDI  R31,HIGH(85)
000f68 940e 1fb0 	CALL SUBOPT_0x75
                 ; 0000 03E1                 }
                 ; 0000 03E2             break;
                 _0x1BE:
                 ; 0000 03E3         }
                 _0x1BC:
                 ; 0000 03E4 
                 ; 0000 03E5         speed=1; //10
000f6a 940e 1fb5 	CALL SUBOPT_0x76
                 ; 0000 03E6         if(counterTG>speed)
000f6c f414      	BRGE _0x1CE
                 ; 0000 03E7         {
                 ; 0000 03E8             counterTG=0;
000f6d 940e 1fc2 	CALL SUBOPT_0x77
                 ; 0000 03E9             taskGerakan();
                 ; 0000 03EA         }
                 ; 0000 03EB }
                 _0x1CE:
000f6f 9508      	RET
                 ;
                 ;void serong_kanan(){
                 ; 0000 03ED void serong_kanan(){
                 ; 0000 03EE     //tangan kanan
                 ; 0000 03EF     servo[14] = 1600; //R3 - CW
                 ; 0000 03F0     servo[13] = 900; //R2 - turun
                 ; 0000 03F1     servo[12] = 1900; //R1 - mundur
                 ; 0000 03F2     //tangan kiri
                 ; 0000 03F3     servo[17]  = 1500; //L3 - CW
                 ; 0000 03F4     servo[16]  = 2050; //L2 - naik
                 ; 0000 03F5     servo[15]  = 1100; //L1 - maju
                 ; 0000 03F6     switch(0)
                 ; 0000 03F7         {
                 ; 0000 03F8            case 0 :     //gait  mlaku
                 ; 0000 03F9                 VY=15;
                 ; 0000 03FA                 if(counterDelay<=0)
                 ; 0000 03FB                 {
                 ; 0000 03FC                     switch(countTick)
                 ; 0000 03FD                     {
                 ; 0000 03FE                        case 0:
                 ; 0000 03FF                             X[0]=0; Y[0]=0; Z[0]=0;
                 ; 0000 0400                             X[1]=0; Y[1]=0; Z[1]=0;
                 ; 0000 0401                             InputXYZ();
                 ; 0000 0402                         break;
                 ; 0000 0403                         case 1:
                 ; 0000 0404                             X[0]=10; Y[0]=0; Z[0]=0;
                 ; 0000 0405                             X[1]=-10; Y[1]=0; Z[1]=0;
                 ; 0000 0406                             InputXYZ();
                 ; 0000 0407                         break;
                 ; 0000 0408                         case 2:
                 ; 0000 0409                             X[0]=10; Y[0]=-10; Z[0]=-40;
                 ; 0000 040A                             X[1]=-15; Y[1]=0; Z[1]=0;
                 ; 0000 040B                             InputXYZ();
                 ; 0000 040C                         break;
                 ; 0000 040D                         case 3:
                 ; 0000 040E                             X[0]=15; Y[0]=-10; Z[0]=0;
                 ; 0000 040F                             X[1]=0; Y[1]=0; Z[1]=0;
                 ; 0000 0410                             InputXYZ();
                 ; 0000 0411                         break;
                 ; 0000 0412                         case 4:
                 ; 0000 0413                             X[0]=-15; Y[0]=-10; Z[0]=0;
                 ; 0000 0414                             X[1]=0; Y[1]=0; Z[1]=0;
                 ; 0000 0415                             InputXYZ();
                 ; 0000 0416                         break;
                 ; 0000 0417                         case 5:
                 ; 0000 0418                             X[0]=-15; Y[0]=-10; Z[0]=0;
                 ; 0000 0419                             X[1]=0; Y[1]=20; Z[1]=-40;
                 ; 0000 041A                             InputXYZ();
                 ; 0000 041B                         break;
                 ; 0000 041C                         case 6:
                 ; 0000 041D                             X[0]=-15; Y[0]=-10; Z[0]=0;
                 ; 0000 041E                             X[1]=0; Y[1]=20; Z[1]=0;
                 ; 0000 041F                             InputXYZ();
                 ; 0000 0420                         break;
                 ; 0000 0421                     }
                 ; 0000 0422                     if(VX != 0 || VY != 0 | W != 0 )
                 ; 0000 0423                     {
                 ; 0000 0424                         countTick++;
                 ; 0000 0425                         if(countTick>6)
                 ; 0000 0426                            countTick=0;     //2
                 ; 0000 0427                     }
                 ; 0000 0428                     else
                 ; 0000 0429                     {
                 ; 0000 042A                         countTick=0;
                 ; 0000 042B                     }
                 ; 0000 042C 
                 ; 0000 042D                     counterDelay=80; //65 80
                 ; 0000 042E                 }
                 ; 0000 042F             break;
                 ; 0000 0430         }
                 ; 0000 0431 
                 ; 0000 0432         speed=1; //10
                 ; 0000 0433         if(counterTG>speed)
                 ; 0000 0434         {
                 ; 0000 0435             counterTG=0;
                 ; 0000 0436             taskGerakan();
                 ; 0000 0437         }
                 ; 0000 0438 }
                 ;
                 ;void bangun_telentang()
                 ; 0000 043B     {
                 _bangun_telentang:
                 ; 0000 043C      int de  = 1000;
                 ; 0000 043D      int lay = 50;
                 ; 0000 043E      //tangi = 8;
                 ; 0000 043F           switch(tangi)
000f70 940e 2063 	CALL SUBOPT_0x87
                 ;	de -> R16,R17
                 ;	lay -> R18,R19
                +
000f72 2deb     +MOV R30 , R11
000f73 2dfc     +MOV R31 , R12
                 	__GETW1R 11,12
                 ; 0000 0440           {
                 ; 0000 0441 
                 ; 0000 0442            case 0:
000f74 9730      	SBIW R30,0
000f75 f4b9      	BRNE _0x1E7
                 ; 0000 0443                     //ndas
                 ; 0000 0444                     servo[18]  = 500; //L1 - maju
000f76 940e 206a 	CALL SUBOPT_0x88
                 ; 0000 0445                     servo[19]  = 2000; //L2 - naik
                 ; 0000 0446                     //kaki kanan
                 ; 0000 0447                     servo[5] = 1500;
                 ; 0000 0448                     servo[4] = 1500; //R5 - kiri
                 ; 0000 0449                     servo[3] = 1500; //R4 - maju
                 ; 0000 044A                     servo[2] = 1500; //R3 - maju
                 ; 0000 044B                     servo[1] = 1500; //R2 - maju
                 ; 0000 044C                     servo[0] = 1500; //R1 - kiri
                 ; 0000 044D                     //kaki kiri
                 ; 0000 044E                     servo[11] = 1500;
                 ; 0000 044F                     servo[10] = 1500; //L5 - kanan
                 ; 0000 0450                     servo[9]  = 1500; //L4 - maju    984
                 ; 0000 0451                     servo[8]  = 1500; //L3 - maju
                 ; 0000 0452                     servo[7]  = 1500; //L2 - maju
                 ; 0000 0453                     servo[6]  = 1500; //L1 - kanan
000f78 940e 20a7 	CALL SUBOPT_0x89
                 ; 0000 0454                     //tangan kanan
                 ; 0000 0455                     servo[14] = 1500; //R3 - CW
000f7a 940e 20ae 	CALL SUBOPT_0x8A
                 ; 0000 0456                     servo[13] = 1500; //R2 - turun
000f7c 940e 20b3 	CALL SUBOPT_0x8B
                 ; 0000 0457                     servo[12] = 1500; //R1 - mundur
000f7e 940e 20b8 	CALL SUBOPT_0x8C
                 ; 0000 0458                     //tangan kiri
                 ; 0000 0459                     servo[15]  = 1500; //L1 - maju
000f80 940e 20bb 	CALL SUBOPT_0x8D
                 ; 0000 045A                     servo[16]  = 1500; //L2 - naik
000f82 940e 20be 	CALL SUBOPT_0x8E
                 ; 0000 045B                     servo[17]  = 1500; //L3 - CW
000f84 940e 20c1 	CALL SUBOPT_0x8F
                 ; 0000 045C                     delay_ms(3000);
000f86 eba8      	LDI  R26,LOW(3000)
000f87 e0bb      	LDI  R27,HIGH(3000)
000f88 940e 241f 	CALL _delay_ms
                 ; 0000 045D 
                 ; 0000 045E                     tangi=0;
000f8a 24bb      	CLR  R11
000f8b 24cc      	CLR  R12
                 ; 0000 045F            break;
000f8c c1d1      	RJMP _0x1E6
                 ; 0000 0460 
                 ; 0000 0461            case 1:
                 _0x1E7:
000f8d 30e1      	CPI  R30,LOW(0x1)
000f8e e0a0      	LDI  R26,HIGH(0x1)
000f8f 07fa      	CPC  R31,R26
000f90 f541      	BRNE _0x1E8
                 ; 0000 0462                     //kaki kanan
                 ; 0000 0463                     servo[5] = 1500;
000f91 940e 20c4 	CALL SUBOPT_0x90
                 ; 0000 0464                     servo[4] = 1500; //R5 - kiri
000f93 940e 20c7 	CALL SUBOPT_0x91
                 ; 0000 0465                     servo[3] = 1500; //R4 - maju
000f95 940e 20ca 	CALL SUBOPT_0x92
                 ; 0000 0466                     servo[2] = 1500; //R3 - maju
000f97 940e 20cd 	CALL SUBOPT_0x93
                 ; 0000 0467                     servo[1] = 1500; //R2 - maju
000f99 940e 20d0 	CALL SUBOPT_0x94
                 ; 0000 0468                     servo[0] = 1500; //R1 - kiri
000f9b 940e 20d3 	CALL SUBOPT_0x95
                 ; 0000 0469                     //kaki kiri
                 ; 0000 046A                     servo[11] = 1500;
                 ; 0000 046B                     servo[10] = 1500; //L5 - kanan
000f9d 940e 20dc 	CALL SUBOPT_0x96
                 ; 0000 046C                     servo[9]  = 1500; //L4 - maju    984
000f9f 940e 20df 	CALL SUBOPT_0x97
                 ; 0000 046D                     servo[8]  = 1500; //L3 - maju
000fa1 940e 20e2 	CALL SUBOPT_0x98
                 ; 0000 046E                     servo[7]  = 1500; //L2 - maju
000fa3 940e 20e5 	CALL SUBOPT_0x99
                 ; 0000 046F                     servo[6]  = 1500; //L1 - kanan
000fa5 940e 20a7 	CALL SUBOPT_0x89
                 ; 0000 0470                     //tangan kanan
                 ; 0000 0471                     servo[14] = 1500; //R3 - CW
000fa7 940e 20ae 	CALL SUBOPT_0x8A
                 ; 0000 0472                     servo[13] = 800; //R2 - turun
000fa9 940e 20e8 	CALL SUBOPT_0x9A
                 ; 0000 0473                     servo[12] = 1500; //R1 - mundur
000fab 940e 20b8 	CALL SUBOPT_0x8C
                 ; 0000 0474                     //tangan kiri
                 ; 0000 0475                     servo[15]  = 1500; //L1 - maju
000fad 940e 20bb 	CALL SUBOPT_0x8D
                 ; 0000 0476                     servo[16]  = 2100; //L2 - naik
000faf 940e 20ed 	CALL SUBOPT_0x9B
                 ; 0000 0477                     servo[17]  = 1500; //L3 - CW
                 ; 0000 0478                     delay_ms(de);
000fb1 01d8      	MOVW R26,R16
000fb2 940e 241f 	CALL _delay_ms
                 ; 0000 0479 
                 ; 0000 047A                     tangi=2;
000fb4 e0e2      	LDI  R30,LOW(2)
000fb5 e0f0      	LDI  R31,HIGH(2)
                +
000fb6 2ebe     +MOV R11 , R30
000fb7 2ecf     +MOV R12 , R31
                 	__PUTW1R 11,12
                 ; 0000 047B            break;
000fb8 c1a5      	RJMP _0x1E6
                 ; 0000 047C 
                 ; 0000 047D 
                 ; 0000 047E            case 2:
                 _0x1E8:
000fb9 30e2      	CPI  R30,LOW(0x2)
000fba e0a0      	LDI  R26,HIGH(0x2)
000fbb 07fa      	CPC  R31,R26
000fbc f561      	BRNE _0x1E9
                 ; 0000 047F                     //kaki kanan
                 ; 0000 0480                     servo[5] = 1500;
000fbd 940e 20c4 	CALL SUBOPT_0x90
                 ; 0000 0481                     servo[4] = 1500; //R5 - kiri
000fbf 940e 20c7 	CALL SUBOPT_0x91
                 ; 0000 0482                     servo[3] = 800; //R4 - maju
000fc1 940e 20f4 	CALL SUBOPT_0x9C
                 ; 0000 0483                     servo[2] = 1500; //R3 - maju
000fc3 940e 20cd 	CALL SUBOPT_0x93
                 ; 0000 0484                     servo[1] = 1500; //R2 - maju
000fc5 940e 20d0 	CALL SUBOPT_0x94
                 ; 0000 0485                     servo[0] = 1500; //R1 - kiri
000fc7 940e 20d3 	CALL SUBOPT_0x95
                 ; 0000 0486                     //kaki kiri
                 ; 0000 0487                     servo[11] = 1500;
                 ; 0000 0488                     servo[10] = 1500; //L5 - kanan
000fc9 940e 20dc 	CALL SUBOPT_0x96
                 ; 0000 0489                     servo[9]  = 2100; //L4 - maju    984
                +
000fcb e3ea     +LDI R30 , LOW ( _servo + ( 18 ) )
000fcc e0fa     +LDI R31 , HIGH ( _servo + ( 18 ) )
                 	__POINTW1MN _servo,18
000fcd 940e 20f7 	CALL SUBOPT_0x9D
                 ; 0000 048A                     servo[8]  = 1500; //L3 - maju
000fcf 940e 20e2 	CALL SUBOPT_0x98
                 ; 0000 048B                     servo[7]  = 1500; //L2 - maju
000fd1 940e 20e5 	CALL SUBOPT_0x99
                 ; 0000 048C                     servo[6]  = 1500; //L1 - kanan
000fd3 940e 20fc 	CALL SUBOPT_0x9E
                 ; 0000 048D                     //tangan kanan
                 ; 0000 048E                     servo[14] = 500; //R3 - CW
000fd5 940e 20ff 	CALL SUBOPT_0x9F
                 ; 0000 048F                     servo[13] = 800; //R2 - turun
000fd7 940e 20e8 	CALL SUBOPT_0x9A
                 ; 0000 0490                     servo[12] = 1000; //R1 - mundur
                +
000fd9 e4e0     +LDI R30 , LOW ( _servo + ( 24 ) )
000fda e0fa     +LDI R31 , HIGH ( _servo + ( 24 ) )
                 	__POINTW1MN _servo,24
000fdb 940e 2104 	CALL SUBOPT_0xA0
                 ; 0000 0491                     //tangan kiri
                 ; 0000 0492                     servo[15]  = 1500; //L1 - maju
000fdd 940e 20bb 	CALL SUBOPT_0x8D
                 ; 0000 0493                     servo[16]  = 2100; //L2 - naik
000fdf 940e 20ed 	CALL SUBOPT_0x9B
                 ; 0000 0494                     servo[17]  = 1500; //L3 - CW
                 ; 0000 0495                     delay_ms(de);
000fe1 01d8      	MOVW R26,R16
000fe2 940e 241f 	CALL _delay_ms
                 ; 0000 0496 
                 ; 0000 0497                     tangi=3;
000fe4 e0e3      	LDI  R30,LOW(3)
000fe5 e0f0      	LDI  R31,HIGH(3)
                +
000fe6 2ebe     +MOV R11 , R30
000fe7 2ecf     +MOV R12 , R31
                 	__PUTW1R 11,12
                 ; 0000 0498            break;
000fe8 c175      	RJMP _0x1E6
                 ; 0000 0499 
                 ; 0000 049A            case 3:
                 _0x1E9:
000fe9 30e3      	CPI  R30,LOW(0x3)
000fea e0a0      	LDI  R26,HIGH(0x3)
000feb 07fa      	CPC  R31,R26
000fec f541      	BRNE _0x1EA
                 ; 0000 049B                     //kaki kanan
                 ; 0000 049C                     servo[5] = 1500;
000fed 940e 20c4 	CALL SUBOPT_0x90
                 ; 0000 049D                     servo[4] = 1500; //R5 - kiri
000fef 940e 20c7 	CALL SUBOPT_0x91
                 ; 0000 049E                     servo[3] = 1500; //R4 - maju
000ff1 940e 20ca 	CALL SUBOPT_0x92
                 ; 0000 049F                     servo[2] = 1500; //R3 - maju
000ff3 940e 20cd 	CALL SUBOPT_0x93
                 ; 0000 04A0                     servo[1] = 1500; //R2 - maju
000ff5 940e 20d0 	CALL SUBOPT_0x94
                 ; 0000 04A1                     servo[0] = 1500; //R1 - kiri
000ff7 940e 20d3 	CALL SUBOPT_0x95
                 ; 0000 04A2                     //kaki kiri
                 ; 0000 04A3                     servo[11] = 1500;
                 ; 0000 04A4                     servo[10] = 1500; //L5 - kanan
000ff9 940e 20dc 	CALL SUBOPT_0x96
                 ; 0000 04A5                     servo[9]  = 1500; //L4 - maju    984
000ffb 940e 20df 	CALL SUBOPT_0x97
                 ; 0000 04A6                     servo[8]  = 1500; //L3 - maju
000ffd 940e 20e2 	CALL SUBOPT_0x98
                 ; 0000 04A7                     servo[7]  = 1500; //L2 - maju
000fff 940e 20e5 	CALL SUBOPT_0x99
                 ; 0000 04A8                     servo[6]  = 1500; //L1 - kanan
001001 940e 20fc 	CALL SUBOPT_0x9E
                 ; 0000 04A9                     //tangan kanan
                 ; 0000 04AA                     servo[14] = 500; //R3 - CW
001003 940e 20ff 	CALL SUBOPT_0x9F
                 ; 0000 04AB                     servo[13] = 800; //R2 - turun
001005 940e 20e8 	CALL SUBOPT_0x9A
                 ; 0000 04AC                     servo[12] = 1500; //R1 - mundur
001007 940e 20b8 	CALL SUBOPT_0x8C
                 ; 0000 04AD                     //tangan kiri
                 ; 0000 04AE                     servo[15]  = 1500; //L1 - maju
001009 940e 20bb 	CALL SUBOPT_0x8D
                 ; 0000 04AF                     servo[16]  = 2100; //L2 - naik
00100b 940e 20ed 	CALL SUBOPT_0x9B
                 ; 0000 04B0                     servo[17]  = 1500; //L3 - CW
                 ; 0000 04B1                     delay_ms(de);
00100d 01d8      	MOVW R26,R16
00100e 940e 241f 	CALL _delay_ms
                 ; 0000 04B2 
                 ; 0000 04B3                     tangi=4;
001010 e0e4      	LDI  R30,LOW(4)
001011 e0f0      	LDI  R31,HIGH(4)
                +
001012 2ebe     +MOV R11 , R30
001013 2ecf     +MOV R12 , R31
                 	__PUTW1R 11,12
                 ; 0000 04B4            break;
001014 c149      	RJMP _0x1E6
                 ; 0000 04B5 
                 ; 0000 04B6            case 4:
                 _0x1EA:
001015 30e4      	CPI  R30,LOW(0x4)
001016 e0a0      	LDI  R26,HIGH(0x4)
001017 07fa      	CPC  R31,R26
001018 f551      	BRNE _0x1EB
                 ; 0000 04B7                     //kaki kanan
                 ; 0000 04B8                     servo[5] = 1500;
001019 940e 20c4 	CALL SUBOPT_0x90
                 ; 0000 04B9                     servo[4] = 1500; //R5 - kiri
00101b 940e 20c7 	CALL SUBOPT_0x91
                 ; 0000 04BA                     servo[3] = 1500; //R4 - maju
00101d 940e 20ca 	CALL SUBOPT_0x92
                 ; 0000 04BB                     servo[2] = 1500; //R3 - maju
00101f 940e 20cd 	CALL SUBOPT_0x93
                 ; 0000 04BC                     servo[1] = 1500; //R2 - maju
001021 940e 20d0 	CALL SUBOPT_0x94
                 ; 0000 04BD                     servo[0] = 1500; //R1 - kiri
001023 940e 20d3 	CALL SUBOPT_0x95
                 ; 0000 04BE                     //kaki kiri
                 ; 0000 04BF                     servo[11] = 1500;
                 ; 0000 04C0                     servo[10] = 1500; //L5 - kanan
001025 940e 20dc 	CALL SUBOPT_0x96
                 ; 0000 04C1                     servo[9]  = 1500; //L4 - maju    984
001027 940e 20df 	CALL SUBOPT_0x97
                 ; 0000 04C2                     servo[8]  = 1500; //L3 - maju
001029 940e 20e2 	CALL SUBOPT_0x98
                 ; 0000 04C3                     servo[7]  = 1500; //L2 - maju
00102b 940e 20e5 	CALL SUBOPT_0x99
                 ; 0000 04C4                     servo[6]  = 1500; //L1 - kanan
00102d 940e 20a7 	CALL SUBOPT_0x89
                 ; 0000 04C5                     //tangan kanan
                 ; 0000 04C6                     servo[14] = 1500; //R3 - CW
00102f 940e 20ae 	CALL SUBOPT_0x8A
                 ; 0000 04C7                     servo[13] = 1500; //R2 - turun
001031 940e 20b3 	CALL SUBOPT_0x8B
                 ; 0000 04C8                     servo[12] = 1500; //R1 - mundur
001033 940e 20b8 	CALL SUBOPT_0x8C
                 ; 0000 04C9                     //tangan kiri
                 ; 0000 04CA                     servo[15]  = 1500; //L1 - maju
001035 940e 20bb 	CALL SUBOPT_0x8D
                 ; 0000 04CB                     servo[16]  = 1500; //L2 - naik
001037 940e 20be 	CALL SUBOPT_0x8E
                 ; 0000 04CC                     servo[17]  = 1500; //L3 - CW
001039 940e 20c1 	CALL SUBOPT_0x8F
                 ; 0000 04CD                     delay_ms(de);
00103b 01d8      	MOVW R26,R16
00103c 940e 241f 	CALL _delay_ms
                 ; 0000 04CE 
                 ; 0000 04CF                     tangi=5;
00103e e0e5      	LDI  R30,LOW(5)
00103f e0f0      	LDI  R31,HIGH(5)
                +
001040 2ebe     +MOV R11 , R30
001041 2ecf     +MOV R12 , R31
                 	__PUTW1R 11,12
                 ; 0000 04D0            break;
001042 c11b      	RJMP _0x1E6
                 ; 0000 04D1 
                 ; 0000 04D2            case 5:
                 _0x1EB:
001043 30e5      	CPI  R30,LOW(0x5)
001044 e0a0      	LDI  R26,HIGH(0x5)
001045 07fa      	CPC  R31,R26
001046 f4f1      	BRNE _0x1EC
                 ; 0000 04D3                     //kaki kanan
                 ; 0000 04D4                     servo[5] = 1500;
001047 940e 20c4 	CALL SUBOPT_0x90
                 ; 0000 04D5                     servo[4] = 1500; //R5 - kiri
001049 940e 20c7 	CALL SUBOPT_0x91
                 ; 0000 04D6                     servo[3] = 984;  //R4 - maju
00104b 940e 2109 	CALL SUBOPT_0xA1
                 ; 0000 04D7                     servo[2] = 2508; //R3 - maju
                 ; 0000 04D8                     servo[1] = 1006; //R2 - maju
                 ; 0000 04D9                     servo[0] = 1500; //R1 - kiri
                 ; 0000 04DA                     //kaki kiri
                 ; 0000 04DB                     servo[11] = 1500;
                 ; 0000 04DC                     servo[10] = 1500; //L5 - kanan
00104d 940e 20dc 	CALL SUBOPT_0x96
                 ; 0000 04DD                     servo[9]  = 984;  //L4 - maju    984
00104f 940e 211c 	CALL SUBOPT_0xA2
                 ; 0000 04DE                     servo[8]  = 2508; //L3 - maju
                 ; 0000 04DF                     servo[7]  = 1006; //L2 - maju
                 ; 0000 04E0                     servo[6]  = 1500; //L1 - kanan
                 ; 0000 04E1                     //tangan kanan
                 ; 0000 04E2                     servo[14] = 1500; //R3 - CW
001051 940e 20ae 	CALL SUBOPT_0x8A
                 ; 0000 04E3                     servo[13] = 1500; //R2 - turun
001053 940e 20b3 	CALL SUBOPT_0x8B
                 ; 0000 04E4                     servo[12] = 1500; //R1 - mundur
001055 940e 20b8 	CALL SUBOPT_0x8C
                 ; 0000 04E5                     //tangan kiri
                 ; 0000 04E6                     servo[15]  = 1500; //L1 - maju
001057 940e 20bb 	CALL SUBOPT_0x8D
                 ; 0000 04E7                     servo[16]  = 1500; //L2 - naik
001059 940e 20be 	CALL SUBOPT_0x8E
                 ; 0000 04E8                     servo[17]  = 1500; //L3 - CW
00105b 940e 20c1 	CALL SUBOPT_0x8F
                 ; 0000 04E9                     delay_ms(lay);
00105d 01d9      	MOVW R26,R18
00105e 940e 241f 	CALL _delay_ms
                 ; 0000 04EA 
                 ; 0000 04EB                     tangi=6;
001060 e0e6      	LDI  R30,LOW(6)
001061 e0f0      	LDI  R31,HIGH(6)
                +
001062 2ebe     +MOV R11 , R30
001063 2ecf     +MOV R12 , R31
                 	__PUTW1R 11,12
                 ; 0000 04EC            break;
001064 c0f9      	RJMP _0x1E6
                 ; 0000 04ED 
                 ; 0000 04EE 
                 ; 0000 04EF            case 6:
                 _0x1EC:
001065 30e6      	CPI  R30,LOW(0x6)
001066 e0a0      	LDI  R26,HIGH(0x6)
001067 07fa      	CPC  R31,R26
001068 f4e1      	BRNE _0x1ED
                 ; 0000 04F0                     //kaki kanan
                 ; 0000 04F1                     servo[5] = 1500;
001069 940e 20c4 	CALL SUBOPT_0x90
                 ; 0000 04F2                     servo[4] = 1500; //R5 - kiri
00106b 940e 20c7 	CALL SUBOPT_0x91
                 ; 0000 04F3                     servo[3] = 984;  //R4 - maju
00106d 940e 2109 	CALL SUBOPT_0xA1
                 ; 0000 04F4                     servo[2] = 2508; //R3 - maju
                 ; 0000 04F5                     servo[1] = 1006; //R2 - maju
                 ; 0000 04F6                     servo[0] = 1500; //R1 - kiri
                 ; 0000 04F7                     //kaki kiri
                 ; 0000 04F8                     servo[11] = 1500;
                 ; 0000 04F9                     servo[10] = 1500; //L5 - kanan
00106f 940e 20dc 	CALL SUBOPT_0x96
                 ; 0000 04FA                     servo[9]  = 984;  //L4 - maju    984
001071 940e 211c 	CALL SUBOPT_0xA2
                 ; 0000 04FB                     servo[8]  = 2508; //L3 - maju
                 ; 0000 04FC                     servo[7]  = 1006; //L2 - maju
                 ; 0000 04FD                     servo[6]  = 1500; //L1 - kanan
                 ; 0000 04FE                     //tangan kanan
                 ; 0000 04FF                     servo[14] = 1500; //R3 - CW
001073 940e 20ae 	CALL SUBOPT_0x8A
                 ; 0000 0500                     servo[13] = 2100; //R2 - turun
001075 940e 20f7 	CALL SUBOPT_0x9D
                 ; 0000 0501                     servo[12] = 1500; //R1 - mundur
001077 940e 20b8 	CALL SUBOPT_0x8C
                 ; 0000 0502                     //tangan kiri
                 ; 0000 0503                     servo[17]  = 1500; //L3 - CW
001079 940e 20c1 	CALL SUBOPT_0x8F
                 ; 0000 0504                     servo[16]  = 900; //L2 - naik
00107b 940e 212f 	CALL SUBOPT_0xA3
                 ; 0000 0505                     servo[15]  = 1500; //L1 - maju
                 ; 0000 0506                     delay_ms(lay);
00107d 01d9      	MOVW R26,R18
00107e 940e 241f 	CALL _delay_ms
                 ; 0000 0507 
                 ; 0000 0508                     tangi=7;
001080 e0e7      	LDI  R30,LOW(7)
001081 e0f0      	LDI  R31,HIGH(7)
                +
001082 2ebe     +MOV R11 , R30
001083 2ecf     +MOV R12 , R31
                 	__PUTW1R 11,12
                 ; 0000 0509            break;
001084 c0d9      	RJMP _0x1E6
                 ; 0000 050A 
                 ; 0000 050B            case 7:
                 _0x1ED:
001085 30e7      	CPI  R30,LOW(0x7)
001086 e0a0      	LDI  R26,HIGH(0x7)
001087 07fa      	CPC  R31,R26
001088 f4e1      	BRNE _0x1EE
                 ; 0000 050C                     //kaki kanan
                 ; 0000 050D                     servo[5] = 1500;
001089 940e 20c4 	CALL SUBOPT_0x90
                 ; 0000 050E                     servo[4] = 1500; //R5 - kiri
00108b 940e 20c7 	CALL SUBOPT_0x91
                 ; 0000 050F                     servo[3] = 984;  //R4 - maju
00108d 940e 2109 	CALL SUBOPT_0xA1
                 ; 0000 0510                     servo[2] = 2508; //R3 - maju
                 ; 0000 0511                     servo[1] = 1006; //R2 - maju
                 ; 0000 0512                     servo[0] = 1500; //R1 - kiri
                 ; 0000 0513                     //kaki kiri
                 ; 0000 0514                     servo[11] = 1500;
                 ; 0000 0515                     servo[10] = 1500; //L5 - kanan
00108f 940e 20dc 	CALL SUBOPT_0x96
                 ; 0000 0516                     servo[9]  = 984;  //L4 - maju    984
001091 940e 2136 	CALL SUBOPT_0xA4
                 ; 0000 0517                     servo[8]  = 2508; //L3 - maju
                 ; 0000 0518                     servo[7]  = 1006; //L2 - maju
                 ; 0000 0519                     servo[6]  = 1500; //L1 - kanan
                 ; 0000 051A                     //tangan kanan
                 ; 0000 051B                     servo[14] = 500; //R3 - CW
001093 940e 20ff 	CALL SUBOPT_0x9F
                 ; 0000 051C                     servo[13] = 2100; //R2 - turun
001095 940e 20f7 	CALL SUBOPT_0x9D
                 ; 0000 051D                     servo[12] = 1500; //R1 - mundur
001097 940e 20b8 	CALL SUBOPT_0x8C
                 ; 0000 051E                     //tangan kiri
                 ; 0000 051F                     servo[17]  = 2500; //L3 - CW
001099 940e 2149 	CALL SUBOPT_0xA5
                 ; 0000 0520                     servo[16]  = 900; //L2 - naik
00109b 940e 212f 	CALL SUBOPT_0xA3
                 ; 0000 0521                     servo[15]  = 1500; //L1 - maju
                 ; 0000 0522                     delay_ms(lay);
00109d 01d9      	MOVW R26,R18
00109e 940e 241f 	CALL _delay_ms
                 ; 0000 0523 
                 ; 0000 0524                     tangi=8;
0010a0 e0e8      	LDI  R30,LOW(8)
0010a1 e0f0      	LDI  R31,HIGH(8)
                +
0010a2 2ebe     +MOV R11 , R30
0010a3 2ecf     +MOV R12 , R31
                 	__PUTW1R 11,12
                 ; 0000 0525            break;
0010a4 c0b9      	RJMP _0x1E6
                 ; 0000 0526 
                 ; 0000 0527            case 8:
                 _0x1EE:
0010a5 30e8      	CPI  R30,LOW(0x8)
0010a6 e0a0      	LDI  R26,HIGH(0x8)
0010a7 07fa      	CPC  R31,R26
0010a8 f501      	BRNE _0x1EF
                 ; 0000 0528                     //kaki kanan
                 ; 0000 0529                     servo[5] = 1500;
0010a9 940e 20c4 	CALL SUBOPT_0x90
                 ; 0000 052A                     servo[4] = 1500; //R5 - kiri
0010ab 940e 20c7 	CALL SUBOPT_0x91
                 ; 0000 052B                     servo[3] = 500;  //R4 - maju
0010ad 940e 2150 	CALL SUBOPT_0xA6
                 ; 0000 052C                     servo[2] = 2508; //R3 - maju
                 ; 0000 052D                     servo[1] = 1006; //R2 - maju
0010af 940e 215f 	CALL SUBOPT_0xA7
                 ; 0000 052E                     servo[0] = 1460; //R1 - kiri
0010b1 940e 2164 	CALL SUBOPT_0xA8
                 ; 0000 052F                     //kaki kiri
                 ; 0000 0530                     servo[11] = 1500;
                 ; 0000 0531                     servo[10] = 1500; //L5 - kanan
0010b3 940e 20dc 	CALL SUBOPT_0x96
                 ; 0000 0532                     servo[9]  = 470;  //L4 - maju    984
0010b5 940e 216d 	CALL SUBOPT_0xA9
                 ; 0000 0533                     servo[8]  = 2508; //L3 - maju
                 ; 0000 0534                     servo[7]  = 1006; //L2 - maju
                 ; 0000 0535                     servo[6]  = 1500; //L1 - kanan
0010b7 940e 20fc 	CALL SUBOPT_0x9E
                 ; 0000 0536                     //tangan kanan
                 ; 0000 0537                     servo[14] = 460; //R3 - CW
0010b9 940e 217c 	CALL SUBOPT_0xAA
                 ; 0000 0538                     servo[13] = 2100; //R2 - turun
0010bb 940e 20f7 	CALL SUBOPT_0x9D
                 ; 0000 0539                     servo[12] = 1600; //R1 - mundur
0010bd 940e 2181 	CALL SUBOPT_0xAB
                 ; 0000 053A                     //tangan kiri
                 ; 0000 053B                     servo[17]  = 2500; //L3 - CW
                 ; 0000 053C                     servo[16]  = 850; //L2 - naik
0010bf 940e 2188 	CALL SUBOPT_0xAC
                 ; 0000 053D                     servo[15]  = 1500; //L1 - maju
                 ; 0000 053E                     delay_ms(lay);
0010c1 01d9      	MOVW R26,R18
0010c2 940e 241f 	CALL _delay_ms
                 ; 0000 053F 
                 ; 0000 0540                     tangi=9;
0010c4 e0e9      	LDI  R30,LOW(9)
0010c5 e0f0      	LDI  R31,HIGH(9)
                +
0010c6 2ebe     +MOV R11 , R30
0010c7 2ecf     +MOV R12 , R31
                 	__PUTW1R 11,12
                 ; 0000 0541            break;
0010c8 c095      	RJMP _0x1E6
                 ; 0000 0542 
                 ; 0000 0543            case 9:
                 _0x1EF:
0010c9 30e9      	CPI  R30,LOW(0x9)
0010ca e0a0      	LDI  R26,HIGH(0x9)
0010cb 07fa      	CPC  R31,R26
0010cc f4f9      	BRNE _0x1F0
                 ; 0000 0544                     //kaki kanan
                 ; 0000 0545                     servo[5] = 1500;
0010cd 940e 20c4 	CALL SUBOPT_0x90
                 ; 0000 0546                     servo[4] = 1500; //R5 - kiri
0010cf 940e 20c7 	CALL SUBOPT_0x91
                 ; 0000 0547                     servo[3] = 480;  //R4 - maju
0010d1 940e 218f 	CALL SUBOPT_0xAD
                 ; 0000 0548                     servo[2] = 2508; //R3 - maju
                 ; 0000 0549                     servo[1] = 1006; //R2 - maju
                 ; 0000 054A                     servo[0] = 1460; //R1 - kiri
0010d3 940e 2164 	CALL SUBOPT_0xA8
                 ; 0000 054B                     //kaki kiri
                 ; 0000 054C                     servo[11] = 1500;
                 ; 0000 054D                     servo[10] = 1500; //L5 - kanan
0010d5 940e 20dc 	CALL SUBOPT_0x96
                 ; 0000 054E                     servo[9]  = 500;  //L4 - maju    984
0010d7 940e 219e 	CALL SUBOPT_0xAE
                 ; 0000 054F                     servo[8]  = 2508; //L3 - maju
                 ; 0000 0550                     servo[7]  = 1006; //L2 - maju
0010d9 940e 215f 	CALL SUBOPT_0xA7
                 ; 0000 0551                     servo[6]  = 1500; //L1 - kanan
0010db 940e 20fc 	CALL SUBOPT_0x9E
                 ; 0000 0552                     //tangan kanan
                 ; 0000 0553                     servo[14] = 500; //R3 - CW
0010dd 940e 20ff 	CALL SUBOPT_0x9F
                 ; 0000 0554                     servo[13] = 2150; //R2 - turun
0010df 940e 21ad 	CALL SUBOPT_0xAF
                 ; 0000 0555                     servo[12] = 1700; //R1 - mundur
                 ; 0000 0556                     //tangan kiri
                 ; 0000 0557                     servo[17]  = 2500; //L3 - CW
                 ; 0000 0558                     servo[16]  = 800; //L2 - naik
                +
0010e1 e4e8     +LDI R30 , LOW ( _servo + ( 32 ) )
0010e2 e0fa     +LDI R31 , HIGH ( _servo + ( 32 ) )
                 	__POINTW1MN _servo,32
0010e3 940e 20e8 	CALL SUBOPT_0x9A
                 ; 0000 0559                     servo[15]  = 1400; //L1 - maju
0010e5 940e 21b8 	CALL SUBOPT_0xB0
                 ; 0000 055A                     delay_ms(de);
                 ; 0000 055B 
                 ; 0000 055C                     tangi=10;
0010e7 e0ea      	LDI  R30,LOW(10)
0010e8 e0f0      	LDI  R31,HIGH(10)
                +
0010e9 2ebe     +MOV R11 , R30
0010ea 2ecf     +MOV R12 , R31
                 	__PUTW1R 11,12
                 ; 0000 055D            break;
0010eb c072      	RJMP _0x1E6
                 ; 0000 055E 
                 ; 0000 055F            case 10:
                 _0x1F0:
0010ec 30ea      	CPI  R30,LOW(0xA)
0010ed e0a0      	LDI  R26,HIGH(0xA)
0010ee 07fa      	CPC  R31,R26
0010ef f509      	BRNE _0x1F1
                 ; 0000 0560                     //kaki kanan
                 ; 0000 0561                     servo[5] = 1500;
0010f0 940e 20c4 	CALL SUBOPT_0x90
                 ; 0000 0562                     servo[4] = 1500; //R5 - kiri
0010f2 940e 20c7 	CALL SUBOPT_0x91
                 ; 0000 0563                     servo[3] = 500;  //R4 - maju
0010f4 940e 2150 	CALL SUBOPT_0xA6
                 ; 0000 0564                     servo[2] = 2508; //R3 - maju
                 ; 0000 0565                     servo[1] = 1306; //R2 - maju
0010f6 940e 21c1 	CALL SUBOPT_0xB1
                 ; 0000 0566                     servo[0] = 1500; //R1 - kiri
0010f8 940e 20d3 	CALL SUBOPT_0x95
                 ; 0000 0567                     //kaki kiri
                 ; 0000 0568                     servo[11] = 1500;
                 ; 0000 0569                     servo[10] = 1500; //L5 - kanan
0010fa 940e 20dc 	CALL SUBOPT_0x96
                 ; 0000 056A                     servo[9]  = 500;  //L4 - maju    984
0010fc 940e 219e 	CALL SUBOPT_0xAE
                 ; 0000 056B                     servo[8]  = 2508; //L3 - maju
                 ; 0000 056C                     servo[7]  = 1306; //L2 - maju
0010fe 940e 21c1 	CALL SUBOPT_0xB1
                 ; 0000 056D                     servo[6]  = 1500; //L1 - kanan
001100 940e 20fc 	CALL SUBOPT_0x9E
                 ; 0000 056E                     //tangan kanan
                 ; 0000 056F                     servo[14] = 500; //R3 - CW
001102 940e 20ff 	CALL SUBOPT_0x9F
                 ; 0000 0570                     servo[13] = 2100; //R2 - turun
001104 940e 20f7 	CALL SUBOPT_0x9D
                 ; 0000 0571                     servo[12] = 1800; //R1 - mundur
001106 940e 21c6 	CALL SUBOPT_0xB2
                 ; 0000 0572                     //tangan kiri
                 ; 0000 0573                     servo[17]  = 2500; //L3 - CW
001108 940e 2149 	CALL SUBOPT_0xA5
                 ; 0000 0574                     servo[16]  = 900; //L2 - naik
00110a 940e 21c9 	CALL SUBOPT_0xB3
                 ; 0000 0575                     servo[15]  = 1200; //L1 - maju
                 ; 0000 0576                     delay_ms(de);
                 ; 0000 0577 
                 ; 0000 0578                     tangi=11;
00110c e0eb      	LDI  R30,LOW(11)
00110d e0f0      	LDI  R31,HIGH(11)
                +
00110e 2ebe     +MOV R11 , R30
00110f 2ecf     +MOV R12 , R31
                 	__PUTW1R 11,12
                 ; 0000 0579            break;
001110 c04d      	RJMP _0x1E6
                 ; 0000 057A 
                 ; 0000 057B            case 11:
                 _0x1F1:
001111 30eb      	CPI  R30,LOW(0xB)
001112 e0a0      	LDI  R26,HIGH(0xB)
001113 07fa      	CPC  R31,R26
001114 f4f9      	BRNE _0x1F2
                 ; 0000 057C                     //kaki kanan
                 ; 0000 057D                     servo[5] = 1500;
001115 940e 20c4 	CALL SUBOPT_0x90
                 ; 0000 057E                     servo[4] = 1500; //R5 - kiri
001117 940e 20c7 	CALL SUBOPT_0x91
                 ; 0000 057F                     servo[3] = 500;  //R4 - maju
001119 940e 2150 	CALL SUBOPT_0xA6
                 ; 0000 0580                     servo[2] = 2508; //R3 - maju
                 ; 0000 0581                     servo[1] = 1306; //R2 - maju
00111b 940e 21c1 	CALL SUBOPT_0xB1
                 ; 0000 0582                     servo[0] = 1500; //R1 - kiri
00111d 940e 20d3 	CALL SUBOPT_0x95
                 ; 0000 0583                     //kaki kiri
                 ; 0000 0584                     servo[11] = 1500;
                 ; 0000 0585                     servo[10] = 1500; //L5 - kanan
00111f 940e 20dc 	CALL SUBOPT_0x96
                 ; 0000 0586                     servo[9]  = 500;  //L4 - maju    984
001121 940e 219e 	CALL SUBOPT_0xAE
                 ; 0000 0587                     servo[8]  = 2508; //L3 - maju
                 ; 0000 0588                     servo[7]  = 1306; //L2 - maju
001123 940e 21c1 	CALL SUBOPT_0xB1
                 ; 0000 0589                     servo[6]  = 1500; //L1 - kanan
001125 940e 20fc 	CALL SUBOPT_0x9E
                 ; 0000 058A                     //tangan kanan
                 ; 0000 058B                     servo[14] = 1600; //R3 - CW
001127 940e 21d8 	CALL SUBOPT_0xB4
                 ; 0000 058C                     servo[13] = 1000; //R2 - turun
001129 940e 2104 	CALL SUBOPT_0xA0
                 ; 0000 058D                     servo[12] = 1800; //R1 - mundur
00112b 940e 21c6 	CALL SUBOPT_0xB2
                 ; 0000 058E                     //tangan kiri
                 ; 0000 058F                     servo[17]  = 1400; //L3 - CW
00112d 940e 21dd 	CALL SUBOPT_0xB5
                 ; 0000 0590                     servo[16]  = 2000; //L2 - naik
                 ; 0000 0591                     servo[15]  = 1200; //L1 - maju
                 ; 0000 0592                     delay_ms(de);
                 ; 0000 0593 
                 ; 0000 0594                     tangi=12;
00112f e0ec      	LDI  R30,LOW(12)
001130 e0f0      	LDI  R31,HIGH(12)
                +
001131 2ebe     +MOV R11 , R30
001132 2ecf     +MOV R12 , R31
                 	__PUTW1R 11,12
                 ; 0000 0595            break;
001133 c02a      	RJMP _0x1E6
                 ; 0000 0596 
                 ; 0000 0597            case 12:
                 _0x1F2:
001134 30ec      	CPI  R30,LOW(0xC)
001135 e0a0      	LDI  R26,HIGH(0xC)
001136 07fa      	CPC  R31,R26
001137 f509      	BRNE _0x1F3
                 ; 0000 0598                     //kaki kanan
                 ; 0000 0599                     servo[5] = 1500;
001138 940e 20c4 	CALL SUBOPT_0x90
                 ; 0000 059A                     servo[4] = 1500; //R5 - kiri
00113a 940e 20c7 	CALL SUBOPT_0x91
                 ; 0000 059B                     servo[3] = 800;  //R4 - maju
00113c 940e 20f4 	CALL SUBOPT_0x9C
                 ; 0000 059C                     servo[2] = 2508; //R3 - maju
00113e 940e 21f2 	CALL SUBOPT_0xB6
                 ; 0000 059D                     servo[1] = 1056; //R2 - maju
                 ; 0000 059E                     servo[0] = 1500; //R1 - kiri
                 ; 0000 059F                     //kaki kiri
                 ; 0000 05A0                     servo[11] = 1500;
                 ; 0000 05A1                     servo[10] = 1500; //L5 - kanan
001140 940e 20dc 	CALL SUBOPT_0x96
                 ; 0000 05A2                     servo[9]  = 800;  //L4 - maju    984
                +
001142 e3ea     +LDI R30 , LOW ( _servo + ( 18 ) )
001143 e0fa     +LDI R31 , HIGH ( _servo + ( 18 ) )
                 	__POINTW1MN _servo,18
001144 940e 20e8 	CALL SUBOPT_0x9A
                 ; 0000 05A3                     servo[8]  = 2508; //L3 - maju
001146 940e 21ff 	CALL SUBOPT_0xB7
                 ; 0000 05A4                     servo[7]  = 1056; //L2 - maju
                 ; 0000 05A5                     servo[6]  = 1500; //L1 - kanan
                 ; 0000 05A6                     //tangan kanan
                 ; 0000 05A7                     servo[14] = 1200; //R3 - CW
001148 940e 220c 	CALL SUBOPT_0xB8
                 ; 0000 05A8                     servo[13] = 1000; //R2 - turun
00114a 940e 2104 	CALL SUBOPT_0xA0
                 ; 0000 05A9                     servo[12] = 1800; //R1 - mundur
00114c 940e 21c6 	CALL SUBOPT_0xB2
                 ; 0000 05AA                     //tangan kiri
                 ; 0000 05AB                     servo[17]  = 1800; //L3 - CW
                +
00114e e4ea     +LDI R30 , LOW ( _servo + ( 34 ) )
00114f e0fa     +LDI R31 , HIGH ( _servo + ( 34 ) )
                 	__POINTW1MN _servo,34
001150 940e 1f58 	CALL SUBOPT_0x6F
                 ; 0000 05AC                     servo[16]  = 2000; //L2 - naik
001152 940e 2211 	CALL SUBOPT_0xB9
                 ; 0000 05AD                     servo[15]  = 1200; //L1 - maju
                 ; 0000 05AE                     delay_ms(de);
                 ; 0000 05AF 
                 ; 0000 05B0                     countTick=0;
                 ; 0000 05B1                     tangi=13;
001154 e0ed      	LDI  R30,LOW(13)
001155 e0f0      	LDI  R31,HIGH(13)
                +
001156 2ebe     +MOV R11 , R30
001157 2ecf     +MOV R12 , R31
                 	__PUTW1R 11,12
                 ; 0000 05B2            break;
001158 c005      	RJMP _0x1E6
                 ; 0000 05B3 
                 ; 0000 05B4            case 13:
                 _0x1F3:
001159 30ed      	CPI  R30,LOW(0xD)
00115a e0a0      	LDI  R26,HIGH(0xD)
00115b 07fa      	CPC  R31,R26
00115c f409      	BRNE _0x1E6
                 ; 0000 05B5                     bangkit();
00115d d13c      	RCALL _bangkit
                 ; 0000 05B6            break;
                 ; 0000 05B7           }
                 _0x1E6:
                 ; 0000 05B8     }
00115e c137      	RJMP _0x20A0009
                 ;
                 ;void bangun_tengkurap()
                 ; 0000 05BB    {
                 _bangun_tengkurap:
                 ; 0000 05BC     int de  = 1000;
                 ; 0000 05BD     int lay = 50;
                 ; 0000 05BE     //tango = 6;
                 ; 0000 05BF           switch(tango)
00115f 940e 2063 	CALL SUBOPT_0x87
                 ;	de -> R16,R17
                 ;	lay -> R18,R19
                +
001161 2de9     +MOV R30 , R9
001162 2dfa     +MOV R31 , R10
                 	__GETW1R 9,10
                 ; 0000 05C0           {
                 ; 0000 05C1            case 0:
001163 9730      	SBIW R30,0
001164 f4b1      	BRNE _0x1F8
                 ; 0000 05C2                      //ndas
                 ; 0000 05C3                     servo[18]  = 500; //L1 - maju
001165 940e 206a 	CALL SUBOPT_0x88
                 ; 0000 05C4                     servo[19]  = 2000; //L2 - naik
                 ; 0000 05C5                     //kaki kanan
                 ; 0000 05C6                     servo[5] = 1500;
                 ; 0000 05C7                     servo[4] = 1500; //R5 - kiri
                 ; 0000 05C8                     servo[3] = 1500; //R4 - maju
                 ; 0000 05C9                     servo[2] = 1500; //R3 - maju
                 ; 0000 05CA                     servo[1] = 1500; //R2 - maju
                 ; 0000 05CB                     servo[0] = 1500; //R1 - kiri
                 ; 0000 05CC                     //kaki kiri
                 ; 0000 05CD                     servo[11] = 1500;
                 ; 0000 05CE                     servo[10] = 1500; //L5 - kanan
                 ; 0000 05CF                     servo[9]  = 1500; //L4 - maju    984
                 ; 0000 05D0                     servo[8]  = 1500; //L3 - maju
                 ; 0000 05D1                     servo[7]  = 1500; //L2 - maju
                 ; 0000 05D2                     servo[6]  = 1500; //L1 - kanan
001167 940e 20a7 	CALL SUBOPT_0x89
                 ; 0000 05D3                     //tangan kanan
                 ; 0000 05D4                     servo[14] = 1500; //R3 - CW
001169 940e 20ae 	CALL SUBOPT_0x8A
                 ; 0000 05D5                     servo[13] = 1500; //R2 - turun
00116b 940e 20b3 	CALL SUBOPT_0x8B
                 ; 0000 05D6                     servo[12] = 1500; //R1 - mundur
00116d 940e 20b8 	CALL SUBOPT_0x8C
                 ; 0000 05D7                     //tangan kiri
                 ; 0000 05D8                     servo[15]  = 1500; //L1 - maju
00116f 940e 20bb 	CALL SUBOPT_0x8D
                 ; 0000 05D9                     servo[16]  = 1500; //L2 - naik
001171 940e 20be 	CALL SUBOPT_0x8E
                 ; 0000 05DA                     servo[17]  = 1500; //L3 - CW
001173 940e 20c1 	CALL SUBOPT_0x8F
                 ; 0000 05DB                     delay_ms(de);
001175 01d8      	MOVW R26,R16
001176 940e 241f 	CALL _delay_ms
                 ; 0000 05DC 
                 ; 0000 05DD                     tango=0;
001178 2499      	CLR  R9
001179 24aa      	CLR  R10
                 ; 0000 05DE            break;
00117a c11b      	RJMP _0x1F7
                 ; 0000 05DF 
                 ; 0000 05E0            case 1:
                 _0x1F8:
00117b 30e1      	CPI  R30,LOW(0x1)
00117c e0a0      	LDI  R26,HIGH(0x1)
00117d 07fa      	CPC  R31,R26
00117e f4f1      	BRNE _0x1F9
                 ; 0000 05E1                     //kaki kanan
                 ; 0000 05E2                     servo[5] = 1500;
00117f 940e 20c4 	CALL SUBOPT_0x90
                 ; 0000 05E3                     servo[4] = 1500; //R5 - kiri
001181 940e 20c7 	CALL SUBOPT_0x91
                 ; 0000 05E4                     servo[3] = 984;  //R4 - maju
001183 940e 2109 	CALL SUBOPT_0xA1
                 ; 0000 05E5                     servo[2] = 2508; //R3 - maju
                 ; 0000 05E6                     servo[1] = 1006; //R2 - maju
                 ; 0000 05E7                     servo[0] = 1500; //R1 - kiri
                 ; 0000 05E8                     //kaki kiri
                 ; 0000 05E9                     servo[11] = 1500;
                 ; 0000 05EA                     servo[10] = 1500; //L5 - kanan
001185 940e 20dc 	CALL SUBOPT_0x96
                 ; 0000 05EB                     servo[9]  = 984;  //L4 - maju    984
001187 940e 211c 	CALL SUBOPT_0xA2
                 ; 0000 05EC                     servo[8]  = 2508; //L3 - maju
                 ; 0000 05ED                     servo[7]  = 1006; //L2 - maju
                 ; 0000 05EE                     servo[6]  = 1500; //L1 - kanan
                 ; 0000 05EF                     //tangan kanan
                 ; 0000 05F0                     servo[14] = 1500; //R3 - CW
001189 940e 20ae 	CALL SUBOPT_0x8A
                 ; 0000 05F1                     servo[13] = 1500; //R2 - turun
00118b 940e 20b3 	CALL SUBOPT_0x8B
                 ; 0000 05F2                     servo[12] = 1500; //R1 - mundur
00118d 940e 20b8 	CALL SUBOPT_0x8C
                 ; 0000 05F3                     //tangan kiri
                 ; 0000 05F4                     servo[15]  = 1500; //L1 - maju
00118f 940e 20bb 	CALL SUBOPT_0x8D
                 ; 0000 05F5                     servo[16]  = 1500; //L2 - naik
001191 940e 20be 	CALL SUBOPT_0x8E
                 ; 0000 05F6                     servo[17]  = 1500; //L3 - CW
001193 940e 20c1 	CALL SUBOPT_0x8F
                 ; 0000 05F7                     delay_ms(lay);
001195 01d9      	MOVW R26,R18
001196 940e 241f 	CALL _delay_ms
                 ; 0000 05F8 
                 ; 0000 05F9                     tango=2;
001198 e0e2      	LDI  R30,LOW(2)
001199 e0f0      	LDI  R31,HIGH(2)
                +
00119a 2e9e     +MOV R9 , R30
00119b 2eaf     +MOV R10 , R31
                 	__PUTW1R 9,10
                 ; 0000 05FA            break;
00119c c0f9      	RJMP _0x1F7
                 ; 0000 05FB 
                 ; 0000 05FC 
                 ; 0000 05FD            case 2:
                 _0x1F9:
00119d 30e2      	CPI  R30,LOW(0x2)
00119e e0a0      	LDI  R26,HIGH(0x2)
00119f 07fa      	CPC  R31,R26
0011a0 f4e1      	BRNE _0x1FA
                 ; 0000 05FE                     //kaki kanan
                 ; 0000 05FF                     servo[5] = 1500;
0011a1 940e 20c4 	CALL SUBOPT_0x90
                 ; 0000 0600                     servo[4] = 1500; //R5 - kiri
0011a3 940e 20c7 	CALL SUBOPT_0x91
                 ; 0000 0601                     servo[3] = 984;  //R4 - maju
0011a5 940e 2109 	CALL SUBOPT_0xA1
                 ; 0000 0602                     servo[2] = 2508; //R3 - maju
                 ; 0000 0603                     servo[1] = 1006; //R2 - maju
                 ; 0000 0604                     servo[0] = 1500; //R1 - kiri
                 ; 0000 0605                     //kaki kiri
                 ; 0000 0606                     servo[11] = 1500;
                 ; 0000 0607                     servo[10] = 1500; //L5 - kanan
0011a7 940e 20dc 	CALL SUBOPT_0x96
                 ; 0000 0608                     servo[9]  = 984;  //L4 - maju    984
0011a9 940e 211c 	CALL SUBOPT_0xA2
                 ; 0000 0609                     servo[8]  = 2508; //L3 - maju
                 ; 0000 060A                     servo[7]  = 1006; //L2 - maju
                 ; 0000 060B                     servo[6]  = 1500; //L1 - kanan
                 ; 0000 060C                     //tangan kanan
                 ; 0000 060D                     servo[14] = 1500; //R3 - CW
0011ab 940e 20ae 	CALL SUBOPT_0x8A
                 ; 0000 060E                     servo[13] = 2100; //R2 - turun
0011ad 940e 20f7 	CALL SUBOPT_0x9D
                 ; 0000 060F                     servo[12] = 1500; //R1 - mundur
0011af 940e 20b8 	CALL SUBOPT_0x8C
                 ; 0000 0610                     //tangan kiri
                 ; 0000 0611                     servo[17]  = 1500; //L3 - CW
0011b1 940e 20c1 	CALL SUBOPT_0x8F
                 ; 0000 0612                     servo[16]  = 900; //L2 - naik
0011b3 940e 212f 	CALL SUBOPT_0xA3
                 ; 0000 0613                     servo[15]  = 1500; //L1 - maju
                 ; 0000 0614                     delay_ms(lay);
0011b5 01d9      	MOVW R26,R18
0011b6 940e 241f 	CALL _delay_ms
                 ; 0000 0615 
                 ; 0000 0616                     tango=3;
0011b8 e0e3      	LDI  R30,LOW(3)
0011b9 e0f0      	LDI  R31,HIGH(3)
                +
0011ba 2e9e     +MOV R9 , R30
0011bb 2eaf     +MOV R10 , R31
                 	__PUTW1R 9,10
                 ; 0000 0617            break;
0011bc c0d9      	RJMP _0x1F7
                 ; 0000 0618 
                 ; 0000 0619            case 3:
                 _0x1FA:
0011bd 30e3      	CPI  R30,LOW(0x3)
0011be e0a0      	LDI  R26,HIGH(0x3)
0011bf 07fa      	CPC  R31,R26
0011c0 f4e1      	BRNE _0x1FB
                 ; 0000 061A                     //kaki kanan
                 ; 0000 061B                     servo[5] = 1500;
0011c1 940e 20c4 	CALL SUBOPT_0x90
                 ; 0000 061C                     servo[4] = 1500; //R5 - kiri
0011c3 940e 20c7 	CALL SUBOPT_0x91
                 ; 0000 061D                     servo[3] = 984;  //R4 - maju
0011c5 940e 2109 	CALL SUBOPT_0xA1
                 ; 0000 061E                     servo[2] = 2508; //R3 - maju
                 ; 0000 061F                     servo[1] = 1006; //R2 - maju
                 ; 0000 0620                     servo[0] = 1500; //R1 - kiri
                 ; 0000 0621                     //kaki kiri
                 ; 0000 0622                     servo[11] = 1500;
                 ; 0000 0623                     servo[10] = 1500; //L5 - kanan
0011c7 940e 20dc 	CALL SUBOPT_0x96
                 ; 0000 0624                     servo[9]  = 984;  //L4 - maju    984
0011c9 940e 2136 	CALL SUBOPT_0xA4
                 ; 0000 0625                     servo[8]  = 2508; //L3 - maju
                 ; 0000 0626                     servo[7]  = 1006; //L2 - maju
                 ; 0000 0627                     servo[6]  = 1500; //L1 - kanan
                 ; 0000 0628                     //tangan kanan
                 ; 0000 0629                     servo[14] = 500; //R3 - CW
0011cb 940e 20ff 	CALL SUBOPT_0x9F
                 ; 0000 062A                     servo[13] = 2100; //R2 - turun
0011cd 940e 20f7 	CALL SUBOPT_0x9D
                 ; 0000 062B                     servo[12] = 1500; //R1 - mundur
0011cf 940e 20b8 	CALL SUBOPT_0x8C
                 ; 0000 062C                     //tangan kiri
                 ; 0000 062D                     servo[17]  = 2500; //L3 - CW
0011d1 940e 2149 	CALL SUBOPT_0xA5
                 ; 0000 062E                     servo[16]  = 900; //L2 - naik
0011d3 940e 212f 	CALL SUBOPT_0xA3
                 ; 0000 062F                     servo[15]  = 1500; //L1 - maju
                 ; 0000 0630                     delay_ms(lay);
0011d5 01d9      	MOVW R26,R18
0011d6 940e 241f 	CALL _delay_ms
                 ; 0000 0631 
                 ; 0000 0632                     tango=4;
0011d8 e0e4      	LDI  R30,LOW(4)
0011d9 e0f0      	LDI  R31,HIGH(4)
                +
0011da 2e9e     +MOV R9 , R30
0011db 2eaf     +MOV R10 , R31
                 	__PUTW1R 9,10
                 ; 0000 0633            break;
0011dc c0b9      	RJMP _0x1F7
                 ; 0000 0634 
                 ; 0000 0635            case 4:
                 _0x1FB:
0011dd 30e4      	CPI  R30,LOW(0x4)
0011de e0a0      	LDI  R26,HIGH(0x4)
0011df 07fa      	CPC  R31,R26
0011e0 f501      	BRNE _0x1FC
                 ; 0000 0636                     //kaki kanan
                 ; 0000 0637                     servo[5] = 1500;
0011e1 940e 20c4 	CALL SUBOPT_0x90
                 ; 0000 0638                     servo[4] = 1500; //R5 - kiri
0011e3 940e 20c7 	CALL SUBOPT_0x91
                 ; 0000 0639                     servo[3] = 500;  //R4 - maju
0011e5 940e 2150 	CALL SUBOPT_0xA6
                 ; 0000 063A                     servo[2] = 2508; //R3 - maju
                 ; 0000 063B                     servo[1] = 1006; //R2 - maju
0011e7 940e 215f 	CALL SUBOPT_0xA7
                 ; 0000 063C                     servo[0] = 1460; //R1 - kiri
0011e9 940e 2164 	CALL SUBOPT_0xA8
                 ; 0000 063D                     //kaki kiri
                 ; 0000 063E                     servo[11] = 1500;
                 ; 0000 063F                     servo[10] = 1500; //L5 - kanan
0011eb 940e 20dc 	CALL SUBOPT_0x96
                 ; 0000 0640                     servo[9]  = 470;  //L4 - maju    984
0011ed 940e 216d 	CALL SUBOPT_0xA9
                 ; 0000 0641                     servo[8]  = 2508; //L3 - maju
                 ; 0000 0642                     servo[7]  = 1006; //L2 - maju
                 ; 0000 0643                     servo[6]  = 1500; //L1 - kanan
0011ef 940e 20fc 	CALL SUBOPT_0x9E
                 ; 0000 0644                     //tangan kanan
                 ; 0000 0645                     servo[14] = 460; //R3 - CW
0011f1 940e 217c 	CALL SUBOPT_0xAA
                 ; 0000 0646                     servo[13] = 2100; //R2 - turun
0011f3 940e 20f7 	CALL SUBOPT_0x9D
                 ; 0000 0647                     servo[12] = 1600; //R1 - mundur
0011f5 940e 2181 	CALL SUBOPT_0xAB
                 ; 0000 0648                     //tangan kiri
                 ; 0000 0649                     servo[17]  = 2500; //L3 - CW
                 ; 0000 064A                     servo[16]  = 850; //L2 - naik
0011f7 940e 2188 	CALL SUBOPT_0xAC
                 ; 0000 064B                     servo[15]  = 1500; //L1 - maju
                 ; 0000 064C                     delay_ms(lay);
0011f9 01d9      	MOVW R26,R18
0011fa 940e 241f 	CALL _delay_ms
                 ; 0000 064D 
                 ; 0000 064E                     tango=5;
0011fc e0e5      	LDI  R30,LOW(5)
0011fd e0f0      	LDI  R31,HIGH(5)
                +
0011fe 2e9e     +MOV R9 , R30
0011ff 2eaf     +MOV R10 , R31
                 	__PUTW1R 9,10
                 ; 0000 064F            break;
001200 c095      	RJMP _0x1F7
                 ; 0000 0650 
                 ; 0000 0651            case 5:
                 _0x1FC:
001201 30e5      	CPI  R30,LOW(0x5)
001202 e0a0      	LDI  R26,HIGH(0x5)
001203 07fa      	CPC  R31,R26
001204 f4f9      	BRNE _0x1FD
                 ; 0000 0652                     //kaki kanan
                 ; 0000 0653                     servo[5] = 1500;
001205 940e 20c4 	CALL SUBOPT_0x90
                 ; 0000 0654                     servo[4] = 1500; //R5 - kiri
001207 940e 20c7 	CALL SUBOPT_0x91
                 ; 0000 0655                     servo[3] = 480;  //R4 - maju
001209 940e 218f 	CALL SUBOPT_0xAD
                 ; 0000 0656                     servo[2] = 2508; //R3 - maju
                 ; 0000 0657                     servo[1] = 1006; //R2 - maju
                 ; 0000 0658                     servo[0] = 1460; //R1 - kiri
00120b 940e 2164 	CALL SUBOPT_0xA8
                 ; 0000 0659                     //kaki kiri
                 ; 0000 065A                     servo[11] = 1500;
                 ; 0000 065B                     servo[10] = 1500; //L5 - kanan
00120d 940e 20dc 	CALL SUBOPT_0x96
                 ; 0000 065C                     servo[9]  = 500;  //L4 - maju    984
00120f 940e 219e 	CALL SUBOPT_0xAE
                 ; 0000 065D                     servo[8]  = 2508; //L3 - maju
                 ; 0000 065E                     servo[7]  = 1006; //L2 - maju
001211 940e 215f 	CALL SUBOPT_0xA7
                 ; 0000 065F                     servo[6]  = 1500; //L1 - kanan
001213 940e 20fc 	CALL SUBOPT_0x9E
                 ; 0000 0660                     //tangan kanan
                 ; 0000 0661                     servo[14] = 500; //R3 - CW
001215 940e 20ff 	CALL SUBOPT_0x9F
                 ; 0000 0662                     servo[13] = 2150; //R2 - turun
001217 940e 21ad 	CALL SUBOPT_0xAF
                 ; 0000 0663                     servo[12] = 1700; //R1 - mundur
                 ; 0000 0664                     //tangan kiri
                 ; 0000 0665                     servo[17]  = 2500; //L3 - CW
                 ; 0000 0666                     servo[16]  = 800; //L2 - naik
                +
001219 e4e8     +LDI R30 , LOW ( _servo + ( 32 ) )
00121a e0fa     +LDI R31 , HIGH ( _servo + ( 32 ) )
                 	__POINTW1MN _servo,32
00121b 940e 20e8 	CALL SUBOPT_0x9A
                 ; 0000 0667                     servo[15]  = 1400; //L1 - maju
00121d 940e 21b8 	CALL SUBOPT_0xB0
                 ; 0000 0668                     delay_ms(de);
                 ; 0000 0669 
                 ; 0000 066A                     tango=6;
00121f e0e6      	LDI  R30,LOW(6)
001220 e0f0      	LDI  R31,HIGH(6)
                +
001221 2e9e     +MOV R9 , R30
001222 2eaf     +MOV R10 , R31
                 	__PUTW1R 9,10
                 ; 0000 066B            break;
001223 c072      	RJMP _0x1F7
                 ; 0000 066C 
                 ; 0000 066D            case 6:
                 _0x1FD:
001224 30e6      	CPI  R30,LOW(0x6)
001225 e0a0      	LDI  R26,HIGH(0x6)
001226 07fa      	CPC  R31,R26
001227 f509      	BRNE _0x1FE
                 ; 0000 066E                     //kaki kanan
                 ; 0000 066F                     servo[5] = 1500;
001228 940e 20c4 	CALL SUBOPT_0x90
                 ; 0000 0670                     servo[4] = 1500; //R5 - kiri
00122a 940e 20c7 	CALL SUBOPT_0x91
                 ; 0000 0671                     servo[3] = 500;  //R4 - maju
00122c 940e 2150 	CALL SUBOPT_0xA6
                 ; 0000 0672                     servo[2] = 2508; //R3 - maju
                 ; 0000 0673                     servo[1] = 1306; //R2 - maju
00122e 940e 21c1 	CALL SUBOPT_0xB1
                 ; 0000 0674                     servo[0] = 1500; //R1 - kiri
001230 940e 20d3 	CALL SUBOPT_0x95
                 ; 0000 0675                     //kaki kiri
                 ; 0000 0676                     servo[11] = 1500;
                 ; 0000 0677                     servo[10] = 1500; //L5 - kanan
001232 940e 20dc 	CALL SUBOPT_0x96
                 ; 0000 0678                     servo[9]  = 500;  //L4 - maju    984
001234 940e 219e 	CALL SUBOPT_0xAE
                 ; 0000 0679                     servo[8]  = 2508; //L3 - maju
                 ; 0000 067A                     servo[7]  = 1306; //L2 - maju
001236 940e 21c1 	CALL SUBOPT_0xB1
                 ; 0000 067B                     servo[6]  = 1500; //L1 - kanan
001238 940e 20fc 	CALL SUBOPT_0x9E
                 ; 0000 067C                     //tangan kanan
                 ; 0000 067D                     servo[14] = 500; //R3 - CW
00123a 940e 20ff 	CALL SUBOPT_0x9F
                 ; 0000 067E                     servo[13] = 2100; //R2 - turun
00123c 940e 20f7 	CALL SUBOPT_0x9D
                 ; 0000 067F                     servo[12] = 1800; //R1 - mundur
00123e 940e 21c6 	CALL SUBOPT_0xB2
                 ; 0000 0680                     //tangan kiri
                 ; 0000 0681                     servo[17]  = 2500; //L3 - CW
001240 940e 2149 	CALL SUBOPT_0xA5
                 ; 0000 0682                     servo[16]  = 900; //L2 - naik
001242 940e 21c9 	CALL SUBOPT_0xB3
                 ; 0000 0683                     servo[15]  = 1200; //L1 - maju
                 ; 0000 0684                     delay_ms(de);
                 ; 0000 0685 
                 ; 0000 0686                     tango=7;
001244 e0e7      	LDI  R30,LOW(7)
001245 e0f0      	LDI  R31,HIGH(7)
                +
001246 2e9e     +MOV R9 , R30
001247 2eaf     +MOV R10 , R31
                 	__PUTW1R 9,10
                 ; 0000 0687            break;
001248 c04d      	RJMP _0x1F7
                 ; 0000 0688 
                 ; 0000 0689            case 7:
                 _0x1FE:
001249 30e7      	CPI  R30,LOW(0x7)
00124a e0a0      	LDI  R26,HIGH(0x7)
00124b 07fa      	CPC  R31,R26
00124c f4f9      	BRNE _0x1FF
                 ; 0000 068A                     //kaki kanan
                 ; 0000 068B                     servo[5] = 1500;
00124d 940e 20c4 	CALL SUBOPT_0x90
                 ; 0000 068C                     servo[4] = 1500; //R5 - kiri
00124f 940e 20c7 	CALL SUBOPT_0x91
                 ; 0000 068D                     servo[3] = 500;  //R4 - maju
001251 940e 2150 	CALL SUBOPT_0xA6
                 ; 0000 068E                     servo[2] = 2508; //R3 - maju
                 ; 0000 068F                     servo[1] = 1306; //R2 - maju
001253 940e 21c1 	CALL SUBOPT_0xB1
                 ; 0000 0690                     servo[0] = 1500; //R1 - kiri
001255 940e 20d3 	CALL SUBOPT_0x95
                 ; 0000 0691                     //kaki kiri
                 ; 0000 0692                     servo[11] = 1500;
                 ; 0000 0693                     servo[10] = 1500; //L5 - kanan
001257 940e 20dc 	CALL SUBOPT_0x96
                 ; 0000 0694                     servo[9]  = 500;  //L4 - maju    984
001259 940e 219e 	CALL SUBOPT_0xAE
                 ; 0000 0695                     servo[8]  = 2508; //L3 - maju
                 ; 0000 0696                     servo[7]  = 1306; //L2 - maju
00125b 940e 21c1 	CALL SUBOPT_0xB1
                 ; 0000 0697                     servo[6]  = 1500; //L1 - kanan
00125d 940e 20fc 	CALL SUBOPT_0x9E
                 ; 0000 0698                     //tangan kanan
                 ; 0000 0699                     servo[14] = 1600; //R3 - CW
00125f 940e 21d8 	CALL SUBOPT_0xB4
                 ; 0000 069A                     servo[13] = 1000; //R2 - turun
001261 940e 2104 	CALL SUBOPT_0xA0
                 ; 0000 069B                     servo[12] = 1800; //R1 - mundur
001263 940e 21c6 	CALL SUBOPT_0xB2
                 ; 0000 069C                     //tangan kiri
                 ; 0000 069D                     servo[17]  = 1400; //L3 - CW
001265 940e 21dd 	CALL SUBOPT_0xB5
                 ; 0000 069E                     servo[16]  = 2000; //L2 - naik
                 ; 0000 069F                     servo[15]  = 1200; //L1 - maju
                 ; 0000 06A0                     delay_ms(de);
                 ; 0000 06A1 
                 ; 0000 06A2                     tango=8;
001267 e0e8      	LDI  R30,LOW(8)
001268 e0f0      	LDI  R31,HIGH(8)
                +
001269 2e9e     +MOV R9 , R30
00126a 2eaf     +MOV R10 , R31
                 	__PUTW1R 9,10
                 ; 0000 06A3            break;
00126b c02a      	RJMP _0x1F7
                 ; 0000 06A4 
                 ; 0000 06A5            case 8:
                 _0x1FF:
00126c 30e8      	CPI  R30,LOW(0x8)
00126d e0a0      	LDI  R26,HIGH(0x8)
00126e 07fa      	CPC  R31,R26
00126f f509      	BRNE _0x200
                 ; 0000 06A6                     //kaki kanan
                 ; 0000 06A7                     servo[5] = 1500;
001270 940e 20c4 	CALL SUBOPT_0x90
                 ; 0000 06A8                     servo[4] = 1500; //R5 - kiri
001272 940e 20c7 	CALL SUBOPT_0x91
                 ; 0000 06A9                     servo[3] = 800;  //R4 - maju
001274 940e 20f4 	CALL SUBOPT_0x9C
                 ; 0000 06AA                     servo[2] = 2508; //R3 - maju
001276 940e 21f2 	CALL SUBOPT_0xB6
                 ; 0000 06AB                     servo[1] = 1056; //R2 - maju
                 ; 0000 06AC                     servo[0] = 1500; //R1 - kiri
                 ; 0000 06AD                     //kaki kiri
                 ; 0000 06AE                     servo[11] = 1500;
                 ; 0000 06AF                     servo[10] = 1500; //L5 - kanan
001278 940e 20dc 	CALL SUBOPT_0x96
                 ; 0000 06B0                     servo[9]  = 800;  //L4 - maju    984
                +
00127a e3ea     +LDI R30 , LOW ( _servo + ( 18 ) )
00127b e0fa     +LDI R31 , HIGH ( _servo + ( 18 ) )
                 	__POINTW1MN _servo,18
00127c 940e 20e8 	CALL SUBOPT_0x9A
                 ; 0000 06B1                     servo[8]  = 2508; //L3 - maju
00127e 940e 21ff 	CALL SUBOPT_0xB7
                 ; 0000 06B2                     servo[7]  = 1056; //L2 - maju
                 ; 0000 06B3                     servo[6]  = 1500; //L1 - kanan
                 ; 0000 06B4                     //tangan kanan
                 ; 0000 06B5                     servo[14] = 1200; //R3 - CW
001280 940e 220c 	CALL SUBOPT_0xB8
                 ; 0000 06B6                     servo[13] = 1000; //R2 - turun
001282 940e 2104 	CALL SUBOPT_0xA0
                 ; 0000 06B7                     servo[12] = 1800; //R1 - mundur
001284 940e 21c6 	CALL SUBOPT_0xB2
                 ; 0000 06B8                     //tangan kiri
                 ; 0000 06B9                     servo[17]  = 1800; //L3 - CW
                +
001286 e4ea     +LDI R30 , LOW ( _servo + ( 34 ) )
001287 e0fa     +LDI R31 , HIGH ( _servo + ( 34 ) )
                 	__POINTW1MN _servo,34
001288 940e 1f58 	CALL SUBOPT_0x6F
                 ; 0000 06BA                     servo[16]  = 2000; //L2 - naik
00128a 940e 2211 	CALL SUBOPT_0xB9
                 ; 0000 06BB                     servo[15]  = 1200; //L1 - maju
                 ; 0000 06BC                     delay_ms(de);
                 ; 0000 06BD 
                 ; 0000 06BE                     countTick=0;
                 ; 0000 06BF                     tango=9;
00128c e0e9      	LDI  R30,LOW(9)
00128d e0f0      	LDI  R31,HIGH(9)
                +
00128e 2e9e     +MOV R9 , R30
00128f 2eaf     +MOV R10 , R31
                 	__PUTW1R 9,10
                 ; 0000 06C0            break;
001290 c005      	RJMP _0x1F7
                 ; 0000 06C1 
                 ; 0000 06C2            case 9:
                 _0x200:
001291 30e9      	CPI  R30,LOW(0x9)
001292 e0a0      	LDI  R26,HIGH(0x9)
001293 07fa      	CPC  R31,R26
001294 f409      	BRNE _0x1F7
                 ; 0000 06C3                     bangkit();
001295 d004      	RCALL _bangkit
                 ; 0000 06C4            break;
                 ; 0000 06C5           }
                 _0x1F7:
                 ; 0000 06C6    }
                 _0x20A0009:
001296 940e 2719 	CALL __LOADLOCR4
001298 9624      	ADIW R28,4
001299 9508      	RET
                 ;
                 ;void bangkit()
                 ; 0000 06C9  {
                 _bangkit:
                 ; 0000 06CA   langkahMax=10;
00129a e0ea      	LDI  R30,LOW(10)
00129b e0f0      	LDI  R31,HIGH(10)
00129c 93e0 0a84 	STS  _langkahMax,R30
00129e 93f0 0a85 	STS  _langkahMax+1,R31
                 ; 0000 06CB   switch(0)
0012a0 e0e0      	LDI  R30,LOW(0)
                 ; 0000 06CC         {
                 ; 0000 06CD            case 0 :     //gait  mlaku
0012a1 30e0      	CPI  R30,0
0012a2 f011      	BREQ PC+3
0012a3 940c 1380 	JMP _0x204
                 ; 0000 06CE                 VY=10;
0012a5 940e 1f7f 	CALL SUBOPT_0x72
                 ; 0000 06CF                 if(counterDelay<=0)
0012a7 f414      	BRGE PC+3
0012a8 940c 1380 	JMP _0x206
                 ; 0000 06D0                 {
                 ; 0000 06D1                     switch(countTick)
                +
0012aa 2ded     +MOV R30 , R13
0012ab 2dfe     +MOV R31 , R14
                 	__GETW1R 13,14
                 ; 0000 06D2                     {
                 ; 0000 06D3                        case 0:
0012ac 9730      	SBIW R30,0
0012ad f499      	BRNE _0x20A
                 ; 0000 06D4                             X[0]=0; Y[0]=0; Z[0]=-80;
0012ae 940e 202c 	CALL SUBOPT_0x82
0012b0 940e 2036 	CALL SUBOPT_0x83
                +
0012b2 e0e0     +LDI R30 , LOW ( 0xC2A00000 )
0012b3 e0f0     +LDI R31 , HIGH ( 0xC2A00000 )
0012b4 ea60     +LDI R22 , BYTE3 ( 0xC2A00000 )
0012b5 ec72     +LDI R23 , BYTE4 ( 0xC2A00000 )
                 	__GETD1N 0xC2A00000
0012b6 940e 2223 	CALL SUBOPT_0xBA
                 ; 0000 06D5                             X[1]=0; Y[1]=0; Z[1]=-80;
0012b8 940e 2023 	CALL SUBOPT_0x80
                +
0012ba e0a0     +LDI R26 , LOW ( 0xC2A00000 )
0012bb e0b0     +LDI R27 , HIGH ( 0xC2A00000 )
0012bc ea80     +LDI R24 , BYTE3 ( 0xC2A00000 )
0012bd ec92     +LDI R25 , BYTE4 ( 0xC2A00000 )
                 	__GETD2N 0xC2A00000
0012be 940e 222f 	CALL SUBOPT_0xBB
                 ; 0000 06D6                             InputXYZ();
                 ; 0000 06D7                        break;
0012c0 c0a9      	RJMP _0x209
                 ; 0000 06D8                         case 1:
                 _0x20A:
0012c1 30e1      	CPI  R30,LOW(0x1)
0012c2 e0a0      	LDI  R26,HIGH(0x1)
0012c3 07fa      	CPC  R31,R26
0012c4 f499      	BRNE _0x20B
                 ; 0000 06D9                             X[0]=0; Y[0]=0; Z[0]=-70;
0012c5 940e 202c 	CALL SUBOPT_0x82
0012c7 940e 2036 	CALL SUBOPT_0x83
                +
0012c9 e0e0     +LDI R30 , LOW ( 0xC28C0000 )
0012ca e0f0     +LDI R31 , HIGH ( 0xC28C0000 )
0012cb e86c     +LDI R22 , BYTE3 ( 0xC28C0000 )
0012cc ec72     +LDI R23 , BYTE4 ( 0xC28C0000 )
                 	__GETD1N 0xC28C0000
0012cd 940e 2223 	CALL SUBOPT_0xBA
                 ; 0000 06DA                             X[1]=0; Y[1]=0; Z[1]=-70;
0012cf 940e 2023 	CALL SUBOPT_0x80
                +
0012d1 e0a0     +LDI R26 , LOW ( 0xC28C0000 )
0012d2 e0b0     +LDI R27 , HIGH ( 0xC28C0000 )
0012d3 e88c     +LDI R24 , BYTE3 ( 0xC28C0000 )
0012d4 ec92     +LDI R25 , BYTE4 ( 0xC28C0000 )
                 	__GETD2N 0xC28C0000
0012d5 940e 222f 	CALL SUBOPT_0xBB
                 ; 0000 06DB                             InputXYZ();
                 ; 0000 06DC 
                 ; 0000 06DD                         break;
0012d7 c092      	RJMP _0x209
                 ; 0000 06DE                         case 2:
                 _0x20B:
0012d8 30e2      	CPI  R30,LOW(0x2)
0012d9 e0a0      	LDI  R26,HIGH(0x2)
0012da 07fa      	CPC  R31,R26
0012db f499      	BRNE _0x20C
                 ; 0000 06DF                             X[0]=0; Y[0]=0; Z[0]=-60;
0012dc 940e 202c 	CALL SUBOPT_0x82
0012de 940e 2036 	CALL SUBOPT_0x83
                +
0012e0 e0e0     +LDI R30 , LOW ( 0xC2700000 )
0012e1 e0f0     +LDI R31 , HIGH ( 0xC2700000 )
0012e2 e760     +LDI R22 , BYTE3 ( 0xC2700000 )
0012e3 ec72     +LDI R23 , BYTE4 ( 0xC2700000 )
                 	__GETD1N 0xC2700000
0012e4 940e 2223 	CALL SUBOPT_0xBA
                 ; 0000 06E0                             X[1]=0; Y[1]=0; Z[1]=-60;
0012e6 940e 2023 	CALL SUBOPT_0x80
                +
0012e8 e0a0     +LDI R26 , LOW ( 0xC2700000 )
0012e9 e0b0     +LDI R27 , HIGH ( 0xC2700000 )
0012ea e780     +LDI R24 , BYTE3 ( 0xC2700000 )
0012eb ec92     +LDI R25 , BYTE4 ( 0xC2700000 )
                 	__GETD2N 0xC2700000
0012ec 940e 222f 	CALL SUBOPT_0xBB
                 ; 0000 06E1                             InputXYZ();
                 ; 0000 06E2 
                 ; 0000 06E3                         break;
0012ee c07b      	RJMP _0x209
                 ; 0000 06E4                         case 4:
                 _0x20C:
0012ef 30e4      	CPI  R30,LOW(0x4)
0012f0 e0a0      	LDI  R26,HIGH(0x4)
0012f1 07fa      	CPC  R31,R26
0012f2 f499      	BRNE _0x20D
                 ; 0000 06E5                             X[0]=0; Y[0]=0; Z[0]=-50;
0012f3 940e 202c 	CALL SUBOPT_0x82
0012f5 940e 2036 	CALL SUBOPT_0x83
                +
0012f7 e0e0     +LDI R30 , LOW ( 0xC2480000 )
0012f8 e0f0     +LDI R31 , HIGH ( 0xC2480000 )
0012f9 e468     +LDI R22 , BYTE3 ( 0xC2480000 )
0012fa ec72     +LDI R23 , BYTE4 ( 0xC2480000 )
                 	__GETD1N 0xC2480000
0012fb 940e 2223 	CALL SUBOPT_0xBA
                 ; 0000 06E6                             X[1]=0; Y[1]=0; Z[1]=-50;
0012fd 940e 2023 	CALL SUBOPT_0x80
                +
0012ff e0a0     +LDI R26 , LOW ( 0xC2480000 )
001300 e0b0     +LDI R27 , HIGH ( 0xC2480000 )
001301 e488     +LDI R24 , BYTE3 ( 0xC2480000 )
001302 ec92     +LDI R25 , BYTE4 ( 0xC2480000 )
                 	__GETD2N 0xC2480000
001303 940e 222f 	CALL SUBOPT_0xBB
                 ; 0000 06E7                             InputXYZ();
                 ; 0000 06E8                         break;
001305 c064      	RJMP _0x209
                 ; 0000 06E9                         case 5:
                 _0x20D:
001306 30e5      	CPI  R30,LOW(0x5)
001307 e0a0      	LDI  R26,HIGH(0x5)
001308 07fa      	CPC  R31,R26
001309 f489      	BRNE _0x20E
                 ; 0000 06EA                             X[0]=0 ; Y[0]=0; Z[0]=-40;
00130a 940e 202c 	CALL SUBOPT_0x82
00130c 940e 2036 	CALL SUBOPT_0x83
00130e 940e 204d 	CALL SUBOPT_0x85
                 ; 0000 06EB                             X[1]=0 ; Y[1]=0; Z[1]=-40;
001310 940e 2232 	CALL SUBOPT_0xBC
001312 940e 1fef 	CALL SUBOPT_0x7B
001314 940e 2023 	CALL SUBOPT_0x80
001316 940e 2027 	CALL SUBOPT_0x81
001318 940e 222f 	CALL SUBOPT_0xBB
                 ; 0000 06EC                             InputXYZ();
                 ; 0000 06ED 
                 ; 0000 06EE                         break;
00131a c04f      	RJMP _0x209
                 ; 0000 06EF                         case 6:
                 _0x20E:
00131b 30e6      	CPI  R30,LOW(0x6)
00131c e0a0      	LDI  R26,HIGH(0x6)
00131d 07fa      	CPC  R31,R26
00131e f499      	BRNE _0x20F
                 ; 0000 06F0                             X[0]=0; Y[0]=0; Z[0]=-30;
00131f 940e 202c 	CALL SUBOPT_0x82
001321 940e 2036 	CALL SUBOPT_0x83
                +
001323 e0e0     +LDI R30 , LOW ( 0xC1F00000 )
001324 e0f0     +LDI R31 , HIGH ( 0xC1F00000 )
001325 ef60     +LDI R22 , BYTE3 ( 0xC1F00000 )
001326 ec71     +LDI R23 , BYTE4 ( 0xC1F00000 )
                 	__GETD1N 0xC1F00000
001327 940e 2223 	CALL SUBOPT_0xBA
                 ; 0000 06F1                             X[1]=0; Y[1]=0; Z[1]=-30;
001329 940e 2023 	CALL SUBOPT_0x80
                +
00132b e0a0     +LDI R26 , LOW ( 0xC1F00000 )
00132c e0b0     +LDI R27 , HIGH ( 0xC1F00000 )
00132d ef80     +LDI R24 , BYTE3 ( 0xC1F00000 )
00132e ec91     +LDI R25 , BYTE4 ( 0xC1F00000 )
                 	__GETD2N 0xC1F00000
00132f 940e 222f 	CALL SUBOPT_0xBB
                 ; 0000 06F2                             InputXYZ();
                 ; 0000 06F3 
                 ; 0000 06F4                         break;
001331 c038      	RJMP _0x209
                 ; 0000 06F5                         case 7:
                 _0x20F:
001332 30e7      	CPI  R30,LOW(0x7)
001333 e0a0      	LDI  R26,HIGH(0x7)
001334 07fa      	CPC  R31,R26
001335 f499      	BRNE _0x210
                 ; 0000 06F6                             X[0]=0; Y[0]=0; Z[0]=-20;
001336 940e 202c 	CALL SUBOPT_0x82
001338 940e 2036 	CALL SUBOPT_0x83
                +
00133a e0e0     +LDI R30 , LOW ( 0xC1A00000 )
00133b e0f0     +LDI R31 , HIGH ( 0xC1A00000 )
00133c ea60     +LDI R22 , BYTE3 ( 0xC1A00000 )
00133d ec71     +LDI R23 , BYTE4 ( 0xC1A00000 )
                 	__GETD1N 0xC1A00000
00133e 940e 2223 	CALL SUBOPT_0xBA
                 ; 0000 06F7                             X[1]=0; Y[1]=0; Z[1]=-20;
001340 940e 2023 	CALL SUBOPT_0x80
                +
001342 e0a0     +LDI R26 , LOW ( 0xC1A00000 )
001343 e0b0     +LDI R27 , HIGH ( 0xC1A00000 )
001344 ea80     +LDI R24 , BYTE3 ( 0xC1A00000 )
001345 ec91     +LDI R25 , BYTE4 ( 0xC1A00000 )
                 	__GETD2N 0xC1A00000
001346 940e 222f 	CALL SUBOPT_0xBB
                 ; 0000 06F8                             InputXYZ();
                 ; 0000 06F9 
                 ; 0000 06FA                         break;
001348 c021      	RJMP _0x209
                 ; 0000 06FB                         case 8:
                 _0x210:
001349 30e8      	CPI  R30,LOW(0x8)
00134a e0a0      	LDI  R26,HIGH(0x8)
00134b 07fa      	CPC  R31,R26
00134c f479      	BRNE _0x211
                 ; 0000 06FC                             X[0]=0; Y[0]=0; Z[0]=-10;
00134d 940e 202c 	CALL SUBOPT_0x82
00134f 940e 2036 	CALL SUBOPT_0x83
001351 940e 2235 	CALL SUBOPT_0xBD
001353 940e 2223 	CALL SUBOPT_0xBA
                 ; 0000 06FD                             X[1]=0; Y[1]=0; Z[1]=-10;
001355 940e 2023 	CALL SUBOPT_0x80
001357 940e 223a 	CALL SUBOPT_0xBE
001359 940e 222f 	CALL SUBOPT_0xBB
                 ; 0000 06FE                             InputXYZ();
                 ; 0000 06FF 
                 ; 0000 0700                         break;
00135b c00e      	RJMP _0x209
                 ; 0000 0701                         case 9:
                 _0x211:
00135c 30e9      	CPI  R30,LOW(0x9)
00135d e0a0      	LDI  R26,HIGH(0x9)
00135e 07fa      	CPC  R31,R26
00135f f451      	BRNE _0x209
                 ; 0000 0702                             X[0]=0; Y[0]=0; Z[0]=0;
001360 940e 1c73 	CALL SUBOPT_0x16
                 ; 0000 0703                             X[1]=0; Y[1]=0; Z[1]=0;
                 ; 0000 0704                             InputXYZ();
001362 940e 0b81 	CALL _InputXYZ
                 ; 0000 0705 
                 ; 0000 0706                             sudah = 1;
001364 e0e1      	LDI  R30,LOW(1)
001365 e0f0      	LDI  R31,HIGH(1)
001366 93e0 0bda 	STS  _sudah,R30
001368 93f0 0bdb 	STS  _sudah+1,R31
                 ; 0000 0707                         break;
                 ; 0000 0708                     }
                 _0x209:
                 ; 0000 0709                     if(VX != 0 || VY != 0 | W != 0 )
00136a 940e 1d2f 	CALL SUBOPT_0x2B
00136c f419      	BRNE _0x214
00136d 940e 1f8c 	CALL SUBOPT_0x73
00136f f051      	BREQ _0x213
                 _0x214:
                 ; 0000 070A                     {
                 ; 0000 070B                         countTick++;
001370 940e 1fab 	CALL SUBOPT_0x74
                 ; 0000 070C                         if(countTick>9)
001372 e0e9      	LDI  R30,LOW(9)
001373 e0f0      	LDI  R31,HIGH(9)
001374 15ed      	CP   R30,R13
001375 05fe      	CPC  R31,R14
001376 f414      	BRGE _0x216
                 ; 0000 070D                            countTick=9;     //2
                +
001377 2ede     +MOV R13 , R30
001378 2eef     +MOV R14 , R31
                 	__PUTW1R 13,14
                 ; 0000 070E                     }
                 _0x216:
                 ; 0000 070F                     else
001379 c002      	RJMP _0x217
                 _0x213:
                 ; 0000 0710                     {
                 ; 0000 0711                         countTick=0;
00137a 24dd      	CLR  R13
00137b 24ee      	CLR  R14
                 ; 0000 0712                     }
                 _0x217:
                 ; 0000 0713 
                 ; 0000 0714                     counterDelay=1000; //3000
00137c eee8      	LDI  R30,LOW(1000)
00137d e0f3      	LDI  R31,HIGH(1000)
00137e 940e 1fb0 	CALL SUBOPT_0x75
                 ; 0000 0715                 }
                 ; 0000 0716             break;
                 _0x206:
                 ; 0000 0717         }
                 _0x204:
                 ; 0000 0718 
                 ; 0000 0719         speed=10; //10
001380 e0ea      	LDI  R30,LOW(10)
001381 e0f0      	LDI  R31,HIGH(10)
001382 93e0 0a88 	STS  _speed,R30
001384 93f0 0a89 	STS  _speed+1,R31
                 ; 0000 071A         if(counterTG>speed)
001386 91a0 0a78 	LDS  R26,_counterTG
001388 91b0 0a79 	LDS  R27,_counterTG+1
00138a 17ea      	CP   R30,R26
00138b 07fb      	CPC  R31,R27
00138c f414      	BRGE _0x218
                 ; 0000 071B         {
                 ; 0000 071C             counterTG=0;
00138d 940e 1fc2 	CALL SUBOPT_0x77
                 ; 0000 071D             taskGerakan();
                 ; 0000 071E         }
                 ; 0000 071F  }
                 _0x218:
00138f 9508      	RET
                 ;
                 ;void maju(){
                 ; 0000 0721 void maju(){
                 _maju:
                 ; 0000 0722     //servoInitError[7]=30;
                 ; 0000 0723     //tangan kanan
                 ; 0000 0724     servo[14] = 1600; //R3 - CW
001390 940e 223f 	CALL SUBOPT_0xBF
                 ; 0000 0725     servo[13] = 900; //R2 - turun
                 ; 0000 0726     servo[12] = 1900; //R1 - mundur
                 ; 0000 0727     //tangan kiri
                 ; 0000 0728     servo[17]  = 1400; //L3 - CW
001392 e7a8      	LDI  R26,LOW(1400)
001393 e0b5      	LDI  R27,HIGH(1400)
001394 940e 1f6e 	CALL SUBOPT_0x71
                 ; 0000 0729     servo[16]  = 2050; //L2 - naik
                 ; 0000 072A     servo[15]  = 1100; //L1 - maju
                 ; 0000 072B     switch(0)
                 ; 0000 072C         {
                 ; 0000 072D            case 0 :     //gait  mlaku
001396 f011      	BREQ PC+3
001397 940c 1414 	JMP _0x21B
                 ; 0000 072E                 VY=20;
                +
001399 e0e0     +LDI R30 , LOW ( 0x41A00000 )
00139a e0f0     +LDI R31 , HIGH ( 0x41A00000 )
00139b ea60     +LDI R22 , BYTE3 ( 0x41A00000 )
00139c e471     +LDI R23 , BYTE4 ( 0x41A00000 )
                 	__GETD1N 0x41A00000
00139d 940e 2244 	CALL SUBOPT_0xC0
                 ; 0000 072F                 if(counterDelay<=0)
00139f 940e 1beb 	CALL SUBOPT_0x2
0013a1 f414      	BRGE PC+3
0013a2 940c 1414 	JMP _0x21D
                 ; 0000 0730                 {
                 ; 0000 0731                     switch(countTick)
                +
0013a4 2ded     +MOV R30 , R13
0013a5 2dfe     +MOV R31 , R14
                 	__GETW1R 13,14
                 ; 0000 0732                     {
                 ; 0000 0733                        case 0:
0013a6 9730      	SBIW R30,0
0013a7 f409      	BRNE _0x221
                 ; 0000 0734                             X[0]=0; Y[0]=0; Z[0]=0;
0013a8 c044      	RJMP _0x282
                 ; 0000 0735                             X[1]=0; Y[1]=0; Z[1]=0;
                 ; 0000 0736                             InputXYZ();
                 ; 0000 0737                         break;
                 ; 0000 0738                         case 1:
                 _0x221:
0013a9 30e1      	CPI  R30,LOW(0x1)
0013aa e0a0      	LDI  R26,HIGH(0x1)
0013ab 07fa      	CPC  R31,R26
0013ac f449      	BRNE _0x222
                 ; 0000 0739                             X[0]=10; Y[0]=0; Z[0]=0;
0013ad 940e 224d 	CALL SUBOPT_0xC1
0013af 940e 2036 	CALL SUBOPT_0x83
0013b1 940e 225a 	CALL SUBOPT_0xC2
                 ; 0000 073A                             X[1]=-10; Y[1]=0; Z[1]=0;
0013b3 940e 223a 	CALL SUBOPT_0xBE
0013b5 c03c      	RJMP _0x283
                 ; 0000 073B                             InputXYZ();
                 ; 0000 073C                         break;
                 ; 0000 073D                         case 2:
                 _0x222:
0013b6 30e2      	CPI  R30,LOW(0x2)
0013b7 e0a0      	LDI  R26,HIGH(0x2)
0013b8 07fa      	CPC  R31,R26
0013b9 f469      	BRNE _0x223
                 ; 0000 073E                             X[0]=10; Y[0]=VY; Z[0]=-40;
0013ba 940e 224d 	CALL SUBOPT_0xC1
0013bc 940e 225f 	CALL SUBOPT_0xC3
0013be 940e 2268 	CALL SUBOPT_0xC4
0013c0 940e 204d 	CALL SUBOPT_0x85
                 ; 0000 073F                             X[1]=-10; Y[1]=0; Z[1]=0;
                +
0013c2 ebec     +LDI R30 , LOW ( _X + ( 4 ) )
0013c3 e0fa     +LDI R31 , HIGH ( _X + ( 4 ) )
                 	__POINTW1MN _X,4
0013c4 940e 223a 	CALL SUBOPT_0xBE
0013c6 c02b      	RJMP _0x283
                 ; 0000 0740                             InputXYZ();
                 ; 0000 0741                         break;
                 ; 0000 0742                         case 3:
                 _0x223:
0013c7 30e3      	CPI  R30,LOW(0x3)
0013c8 e0a0      	LDI  R26,HIGH(0x3)
0013c9 07fa      	CPC  R31,R26
0013ca f111      	BREQ _0x282
                 ; 0000 0743                             X[0]=0; Y[0]=0; Z[0]=0;
                 ; 0000 0744                             X[1]=0; Y[1]=0; Z[1]=0;
                 ; 0000 0745                             InputXYZ();
                 ; 0000 0746                         break;
                 ; 0000 0747                         case 4:
0013cb 30e4      	CPI  R30,LOW(0x4)
0013cc e0a0      	LDI  R26,HIGH(0x4)
0013cd 07fa      	CPC  R31,R26
0013ce f429      	BRNE _0x225
                 ; 0000 0748                             X[0]=-10; Y[0]=0; Z[0]=0;
0013cf 940e 1ff3 	CALL SUBOPT_0x7C
                 ; 0000 0749                             X[1]=10; Y[1]=0; Z[1]=0;
0013d1 940e 2012 	CALL SUBOPT_0x7D
0013d3 c01e      	RJMP _0x283
                 ; 0000 074A                             InputXYZ();
                 ; 0000 074B                         break;
                 ; 0000 074C                         case 5:
                 _0x225:
0013d4 30e5      	CPI  R30,LOW(0x5)
0013d5 e0a0      	LDI  R26,HIGH(0x5)
0013d6 07fa      	CPC  R31,R26
0013d7 f489      	BRNE _0x226
                 ; 0000 074D                             X[0]=-10; Y[0]=0; Z[0]=0;
0013d8 940e 1ff3 	CALL SUBOPT_0x7C
                 ; 0000 074E                             X[1]=10; Y[1]=VY; Z[1]=-40;
0013da 940e 2271 	CALL SUBOPT_0xC5
                +
0013dc 93e0 0ac4+STS _Y + ( 4 ) , R30
0013de 93f0 0ac5+STS _Y + ( 4 ) + 1 , R31
0013e0 9360 0ac6+STS _Y + ( 4 ) + 2 , R22
0013e2 9370 0ac7+STS _Y + ( 4 ) + 3 , R23
                 	__PUTD1MN _Y,4
                +
0013e4 ecec     +LDI R30 , LOW ( _Z + ( 4 ) )
0013e5 e0fa     +LDI R31 , HIGH ( _Z + ( 4 ) )
                 	__POINTW1MN _Z,4
0013e6 940e 2027 	CALL SUBOPT_0x81
0013e8 c011      	RJMP _0x284
                 ; 0000 074F                             InputXYZ();
                 ; 0000 0750                         break;
                 ; 0000 0751                         case 6:
                 _0x226:
0013e9 30e6      	CPI  R30,LOW(0x6)
0013ea e0a0      	LDI  R26,HIGH(0x6)
0013eb 07fa      	CPC  R31,R26
0013ec f489      	BRNE _0x220
                 ; 0000 0752                             X[0]=0; Y[0]=0; Z[0]=0;
                 _0x282:
0013ed e0e0      	LDI  R30,LOW(0)
0013ee 940e 2274 	CALL SUBOPT_0xC6
0013f0 940e 227d 	CALL SUBOPT_0xC7
                 ; 0000 0753                             X[1]=0; Y[1]=0; Z[1]=0;
                 _0x283:
0013f2 940e 26d6 	CALL __PUTDZ20
0013f4 940e 2280 	CALL SUBOPT_0xC8
0013f6 940e 2023 	CALL SUBOPT_0x80
0013f8 940e 1fea 	CALL SUBOPT_0x7A
                 _0x284:
0013fa 940e 26d6 	CALL __PUTDZ20
                 ; 0000 0754                             InputXYZ();
0013fc 940e 0b81 	CALL _InputXYZ
                 ; 0000 0755                         break;
                 ; 0000 0756                     }
                 _0x220:
                 ; 0000 0757                     if(VX != 0 || VY != 0 | W != 0 )
0013fe 940e 1d2f 	CALL SUBOPT_0x2B
001400 f419      	BRNE _0x229
001401 940e 1f8c 	CALL SUBOPT_0x73
001403 f051      	BREQ _0x228
                 _0x229:
                 ; 0000 0758                     {
                 ; 0000 0759                         countTick++;
001404 940e 1fab 	CALL SUBOPT_0x74
                 ; 0000 075A                         if(countTick>5)
001406 e0e5      	LDI  R30,LOW(5)
001407 e0f0      	LDI  R31,HIGH(5)
001408 15ed      	CP   R30,R13
001409 05fe      	CPC  R31,R14
00140a f414      	BRGE _0x22B
                 ; 0000 075B                            countTick=0;     //2
00140b 24dd      	CLR  R13
00140c 24ee      	CLR  R14
                 ; 0000 075C                     }
                 _0x22B:
                 ; 0000 075D                     else
00140d c002      	RJMP _0x22C
                 _0x228:
                 ; 0000 075E                     {
                 ; 0000 075F                         countTick=0;
00140e 24dd      	CLR  R13
00140f 24ee      	CLR  R14
                 ; 0000 0760                     }
                 _0x22C:
                 ; 0000 0761 
                 ; 0000 0762                     counterDelay=85; //65 80   85
001410 e5e5      	LDI  R30,LOW(85)
001411 e0f0      	LDI  R31,HIGH(85)
001412 940e 1fb0 	CALL SUBOPT_0x75
                 ; 0000 0763                 }
                 ; 0000 0764             break;
                 _0x21D:
                 ; 0000 0765         }
                 _0x21B:
                 ; 0000 0766 
                 ; 0000 0767         speed=1; //10
001414 940e 1fb5 	CALL SUBOPT_0x76
                 ; 0000 0768         if(counterTG>speed)
001416 f414      	BRGE _0x22D
                 ; 0000 0769         {
                 ; 0000 076A             counterTG=0;
001417 940e 1fc2 	CALL SUBOPT_0x77
                 ; 0000 076B             taskGerakan();
                 ; 0000 076C         }
                 ; 0000 076D }
                 _0x22D:
001419 9508      	RET
                 ;
                 ;void rotasi_kiri()
                 ; 0000 0770  {
                 _rotasi_kiri:
                 ; 0000 0771     //tangan kanan
                 ; 0000 0772     servo[14] = 1600; //R3 - CW
00141a 940e 223f 	CALL SUBOPT_0xBF
                 ; 0000 0773     servo[13] = 900; //R2 - turun
                 ; 0000 0774     servo[12] = 1900; //R1 - mundur
                 ; 0000 0775     //tangan kiri
                 ; 0000 0776     servo[17]  = 1400; //L3 - CW
00141c e7a8      	LDI  R26,LOW(1400)
00141d e0b5      	LDI  R27,HIGH(1400)
00141e 940e 1f6e 	CALL SUBOPT_0x71
                 ; 0000 0777     servo[16]  = 2050; //L2 - naik
                 ; 0000 0778     servo[15]  = 1100; //L1 - maju
                 ; 0000 0779     switch(0)
                 ; 0000 077A         {
                 ; 0000 077B            case 0 :     //gait  mlaku
001420 f011      	BREQ PC+3
001421 940c 14e9 	JMP _0x230
                 ; 0000 077C                 VY=30;
                +
001423 e0e0     +LDI R30 , LOW ( 0x41F00000 )
001424 e0f0     +LDI R31 , HIGH ( 0x41F00000 )
001425 ef60     +LDI R22 , BYTE3 ( 0x41F00000 )
001426 e471     +LDI R23 , BYTE4 ( 0x41F00000 )
                 	__GETD1N 0x41F00000
001427 940e 2244 	CALL SUBOPT_0xC0
                 ; 0000 077D                 VX=35;
                +
001429 e0e0     +LDI R30 , LOW ( 0x420C0000 )
00142a e0f0     +LDI R31 , HIGH ( 0x420C0000 )
00142b e06c     +LDI R22 , BYTE3 ( 0x420C0000 )
00142c e472     +LDI R23 , BYTE4 ( 0x420C0000 )
                 	__GETD1N 0x420C0000
00142d 93e0 0a8c 	STS  _VX,R30
00142f 93f0 0a8d 	STS  _VX+1,R31
001431 9360 0a8e 	STS  _VX+2,R22
001433 9370 0a8f 	STS  _VX+3,R23
                 ; 0000 077E                 VZ=40;
                +
001435 e0e0     +LDI R30 , LOW ( 0x42200000 )
001436 e0f0     +LDI R31 , HIGH ( 0x42200000 )
001437 e260     +LDI R22 , BYTE3 ( 0x42200000 )
001438 e472     +LDI R23 , BYTE4 ( 0x42200000 )
                 	__GETD1N 0x42200000
001439 93e0 0a94 	STS  _VZ,R30
00143b 93f0 0a95 	STS  _VZ+1,R31
00143d 9360 0a96 	STS  _VZ+2,R22
00143f 9370 0a97 	STS  _VZ+3,R23
                 ; 0000 077F                 if(counterDelay<=0)
001441 940e 1beb 	CALL SUBOPT_0x2
001443 f414      	BRGE PC+3
001444 940c 14e9 	JMP _0x232
                 ; 0000 0780                 {
                 ; 0000 0781                     switch(countTick)
                +
001446 2ded     +MOV R30 , R13
001447 2dfe     +MOV R31 , R14
                 	__GETW1R 13,14
                 ; 0000 0782                     {
                 ; 0000 0783                        case 0:
001448 9730      	SBIW R30,0
001449 f449      	BRNE _0x236
                 ; 0000 0784                             X[0]=0; Y[0]=0; Z[0]=0;
00144a 940e 1fce 	CALL SUBOPT_0x79
                 ; 0000 0785                             X[1]=0; Y[1]=0; Z[1]=0;
00144c 940e 1fea 	CALL SUBOPT_0x7A
00144e 940e 1fef 	CALL SUBOPT_0x7B
001450 940e 1c6d 	CALL SUBOPT_0x14
001452 c078      	RJMP _0x285
                 ; 0000 0786                             InputXYZ();
                 ; 0000 0787                         break;
                 ; 0000 0788                         case 1:
                 _0x236:
001453 30e1      	CPI  R30,LOW(0x1)
001454 e0a0      	LDI  R26,HIGH(0x1)
001455 07fa      	CPC  R31,R26
001456 f471      	BRNE _0x237
                 ; 0000 0789                             X[0]=VX; Y[0]=0; Z[0]=0;
001457 940e 2283 	CALL SUBOPT_0xC9
001459 940e 228c 	CALL SUBOPT_0xCA
00145b 940e 2036 	CALL SUBOPT_0x83
00145d e0e0      	LDI  R30,LOW(0)
00145e 940e 205a 	CALL SUBOPT_0x86
                 ; 0000 078A                             X[1]=-VX; Y[1]=0; Z[1]=0;
001460 940e 2295 	CALL SUBOPT_0xCB
001462 940e 1c6d 	CALL SUBOPT_0x14
001464 c066      	RJMP _0x285
                 ; 0000 078B                             InputXYZ();
                 ; 0000 078C                         break;
                 ; 0000 078D                         case 2:
                 _0x237:
001465 30e2      	CPI  R30,LOW(0x2)
001466 e0a0      	LDI  R26,HIGH(0x2)
001467 07fa      	CPC  R31,R26
001468 f4d9      	BRNE _0x238
                 ; 0000 078E                             X[0]=VX; Y[0]=VY; Z[0]=-VZ;
001469 940e 2283 	CALL SUBOPT_0xC9
00146b 940e 22a1 	CALL SUBOPT_0xCC
00146d 91e0 0a94 	LDS  R30,_VZ
00146f 91f0 0a95 	LDS  R31,_VZ+1
001471 9160 0a96 	LDS  R22,_VZ+2
001473 9170 0a97 	LDS  R23,_VZ+3
001475 940e 2429 	CALL __ANEGF1
001477 93e0 0ac8 	STS  _Z,R30
001479 93f0 0ac9 	STS  _Z+1,R31
00147b 9360 0aca 	STS  _Z+2,R22
00147d 9370 0acb 	STS  _Z+3,R23
                 ; 0000 078F                             X[1]=-VX; Y[1]=0; Z[1]=0;
00147f 940e 2295 	CALL SUBOPT_0xCB
001481 940e 1c6d 	CALL SUBOPT_0x14
001483 c047      	RJMP _0x285
                 ; 0000 0790                             InputXYZ();
                 ; 0000 0791                         break;
                 ; 0000 0792                         case 3:
                 _0x238:
001484 30e3      	CPI  R30,LOW(0x3)
001485 e0a0      	LDI  R26,HIGH(0x3)
001486 07fa      	CPC  R31,R26
001487 f469      	BRNE _0x239
                 ; 0000 0793                             X[0]=0; Y[0]=VY; Z[0]=0;
001488 940e 202c 	CALL SUBOPT_0x82
00148a 940e 225f 	CALL SUBOPT_0xC3
00148c 940e 2268 	CALL SUBOPT_0xC4
00148e 940e 227d 	CALL SUBOPT_0xC7
                 ; 0000 0794                             X[1]=0; Y[1]=VY; Z[1]=0;
001490 940e 1c6d 	CALL SUBOPT_0x14
001492 940e 225f 	CALL SUBOPT_0xC3
001494 c02e      	RJMP _0x286
                 ; 0000 0795                             InputXYZ();
                 ; 0000 0796                         break;
                 ; 0000 0797                         case 4:
                 _0x239:
001495 30e4      	CPI  R30,LOW(0x4)
001496 e0a0      	LDI  R26,HIGH(0x4)
001497 07fa      	CPC  R31,R26
001498 f449      	BRNE _0x23A
                 ; 0000 0798                             X[0]=-10; Y[0]=VY; Z[0]=0;
001499 940e 2235 	CALL SUBOPT_0xBD
00149b 940e 22a1 	CALL SUBOPT_0xCC
00149d 940e 225a 	CALL SUBOPT_0xC2
                 ; 0000 0799                             X[1]=10; Y[1]=VY; Z[1]=0;
00149f 940e 2271 	CALL SUBOPT_0xC5
0014a1 c021      	RJMP _0x286
                 ; 0000 079A                             InputXYZ();
                 ; 0000 079B                         break;
                 ; 0000 079C                         case 5:
                 _0x23A:
0014a2 30e5      	CPI  R30,LOW(0x5)
0014a3 e0a0      	LDI  R26,HIGH(0x5)
0014a4 07fa      	CPC  R31,R26
0014a5 f479      	BRNE _0x23B
                 ; 0000 079D                             X[0]=-10; Y[0]=VY; Z[0]=0;
0014a6 940e 2235 	CALL SUBOPT_0xBD
0014a8 940e 22a1 	CALL SUBOPT_0xCC
0014aa 940e 225a 	CALL SUBOPT_0xC2
                 ; 0000 079E                             X[1]=10; Y[1]=0; Z[1]=-40;
0014ac 940e 2012 	CALL SUBOPT_0x7D
0014ae 940e 1fef 	CALL SUBOPT_0x7B
0014b0 940e 2023 	CALL SUBOPT_0x80
0014b2 940e 2027 	CALL SUBOPT_0x81
0014b4 c01a      	RJMP _0x287
                 ; 0000 079F                             InputXYZ();
                 ; 0000 07A0                         break;
                 ; 0000 07A1                         case 6:
                 _0x23B:
0014b5 30e6      	CPI  R30,LOW(0x6)
0014b6 e0a0      	LDI  R26,HIGH(0x6)
0014b7 07fa      	CPC  R31,R26
0014b8 f4d1      	BRNE _0x235
                 ; 0000 07A2                             X[0]=0; Y[0]=0; Z[0]=0;
0014b9 940e 1fce 	CALL SUBOPT_0x79
                 ; 0000 07A3                             X[1]=0; Y[1]=-VY; Z[1]=0;
0014bb 940e 1fea 	CALL SUBOPT_0x7A
0014bd 940e 1c6d 	CALL SUBOPT_0x14
0014bf 940e 225f 	CALL SUBOPT_0xC3
0014c1 940e 2429 	CALL __ANEGF1
                 _0x286:
                +
0014c3 93e0 0ac4+STS _Y + ( 4 ) , R30
0014c5 93f0 0ac5+STS _Y + ( 4 ) + 1 , R31
0014c7 9360 0ac6+STS _Y + ( 4 ) + 2 , R22
0014c9 9370 0ac7+STS _Y + ( 4 ) + 3 , R23
                 	__PUTD1MN _Y,4
                 _0x285:
                +
0014cb ecec     +LDI R30 , LOW ( _Z + ( 4 ) )
0014cc e0fa     +LDI R31 , HIGH ( _Z + ( 4 ) )
                 	__POINTW1MN _Z,4
0014cd 940e 1fea 	CALL SUBOPT_0x7A
                 _0x287:
0014cf 940e 26d6 	CALL __PUTDZ20
                 ; 0000 07A4                             InputXYZ();
0014d1 940e 0b81 	CALL _InputXYZ
                 ; 0000 07A5                         break;
                 ; 0000 07A6                     }
                 _0x235:
                 ; 0000 07A7                     if(VX != 0 || VY != 0 | W != 0 )
0014d3 940e 1d2f 	CALL SUBOPT_0x2B
0014d5 f419      	BRNE _0x23E
0014d6 940e 1f8c 	CALL SUBOPT_0x73
0014d8 f051      	BREQ _0x23D
                 _0x23E:
                 ; 0000 07A8                     {
                 ; 0000 07A9                         countTick++;
0014d9 940e 1fab 	CALL SUBOPT_0x74
                 ; 0000 07AA                         if(countTick>2)
0014db e0e2      	LDI  R30,LOW(2)
0014dc e0f0      	LDI  R31,HIGH(2)
0014dd 15ed      	CP   R30,R13
0014de 05fe      	CPC  R31,R14
0014df f414      	BRGE _0x240
                 ; 0000 07AB                            countTick=0;     //2
0014e0 24dd      	CLR  R13
0014e1 24ee      	CLR  R14
                 ; 0000 07AC                     }
                 _0x240:
                 ; 0000 07AD                     else
0014e2 c002      	RJMP _0x241
                 _0x23D:
                 ; 0000 07AE                     {
                 ; 0000 07AF                         countTick=0;
0014e3 24dd      	CLR  R13
0014e4 24ee      	CLR  R14
                 ; 0000 07B0                     }
                 _0x241:
                 ; 0000 07B1 
                 ; 0000 07B2                     counterDelay=130; //65 80
0014e5 e8e2      	LDI  R30,LOW(130)
0014e6 e0f0      	LDI  R31,HIGH(130)
0014e7 940e 1fb0 	CALL SUBOPT_0x75
                 ; 0000 07B3                 }
                 ; 0000 07B4             break;
                 _0x232:
                 ; 0000 07B5         }
                 _0x230:
                 ; 0000 07B6 
                 ; 0000 07B7         speed=1; //10
0014e9 940e 1fb5 	CALL SUBOPT_0x76
                 ; 0000 07B8         if(counterTG>speed)
0014eb f414      	BRGE _0x242
                 ; 0000 07B9         {
                 ; 0000 07BA             counterTG=0;
0014ec 940e 1fc2 	CALL SUBOPT_0x77
                 ; 0000 07BB             taskGerakan();
                 ; 0000 07BC         }
                 ; 0000 07BD  }
                 _0x242:
0014ee 9508      	RET
                 ;
                 ;void rotasi_kanan()
                 ; 0000 07C0  {
                 _rotasi_kanan:
                 ; 0000 07C1   //tangan kanan
                 ; 0000 07C2     servo[14] = 1800; //R3 - CW
                +
0014ef e4e4     +LDI R30 , LOW ( _servo + ( 28 ) )
0014f0 e0fa     +LDI R31 , HIGH ( _servo + ( 28 ) )
                 	__POINTW1MN _servo,28
0014f1 940e 1f58 	CALL SUBOPT_0x6F
                 ; 0000 07C3     servo[13] = 900; //R2 - turun
                +
0014f3 e4e2     +LDI R30 , LOW ( _servo + ( 26 ) )
0014f4 e0fa     +LDI R31 , HIGH ( _servo + ( 26 ) )
                 	__POINTW1MN _servo,26
0014f5 e8a4      	LDI  R26,LOW(900)
0014f6 e0b3      	LDI  R27,HIGH(900)
0014f7 83a0      	STD  Z+0,R26
0014f8 83b1      	STD  Z+1,R27
                 ; 0000 07C4     servo[12] = 1900; //R1 - mundur
                +
0014f9 e4e0     +LDI R30 , LOW ( _servo + ( 24 ) )
0014fa e0fa     +LDI R31 , HIGH ( _servo + ( 24 ) )
                 	__POINTW1MN _servo,24
0014fb e6ac      	LDI  R26,LOW(1900)
0014fc e0b7      	LDI  R27,HIGH(1900)
0014fd 83a0      	STD  Z+0,R26
0014fe 83b1      	STD  Z+1,R27
                 ; 0000 07C5     //tangan kiri
                 ; 0000 07C6     servo[17]  = 1200; //L3 - CW
                +
0014ff e4ea     +LDI R30 , LOW ( _servo + ( 34 ) )
001500 e0fa     +LDI R31 , HIGH ( _servo + ( 34 ) )
                 	__POINTW1MN _servo,34
001501 eba0      	LDI  R26,LOW(1200)
001502 e0b4      	LDI  R27,HIGH(1200)
001503 940e 1f6e 	CALL SUBOPT_0x71
                 ; 0000 07C7     servo[16]  = 2050; //L2 - naik
                 ; 0000 07C8     servo[15]  = 1100; //L1 - maju
                 ; 0000 07C9     switch(0)
                 ; 0000 07CA         {
                 ; 0000 07CB            case 0 :     //gait  mlaku
001505 f011      	BREQ PC+3
001506 940c 1589 	JMP _0x245
                 ; 0000 07CC                 VY=10;
001508 940e 1f7f 	CALL SUBOPT_0x72
                 ; 0000 07CD                 if(counterDelay<=0)
00150a f414      	BRGE PC+3
00150b 940c 1589 	JMP _0x247
                 ; 0000 07CE                 {
                 ; 0000 07CF                     switch(countTick)
                +
00150d 2ded     +MOV R30 , R13
00150e 2dfe     +MOV R31 , R14
                 	__GETW1R 13,14
                 ; 0000 07D0                     {
                 ; 0000 07D1                        case 0:
00150f 9730      	SBIW R30,0
001510 f439      	BRNE _0x24B
                 ; 0000 07D2                             X[0]=0; Y[0]=0; Z[0]=0;
001511 940e 1fce 	CALL SUBOPT_0x79
                 ; 0000 07D3                             X[1]=0; Y[1]=0; Z[1]=0;
001513 940e 1fea 	CALL SUBOPT_0x7A
001515 940e 1fef 	CALL SUBOPT_0x7B
001517 c051      	RJMP _0x288
                 ; 0000 07D4                             InputXYZ();
                 ; 0000 07D5                         break;
                 ; 0000 07D6                         case 1:
                 _0x24B:
001518 30e1      	CPI  R30,LOW(0x1)
001519 e0a0      	LDI  R26,HIGH(0x1)
00151a 07fa      	CPC  R31,R26
00151b f449      	BRNE _0x24C
                 ; 0000 07D7                             X[0]=-15; Y[0]=0; Z[0]=0;
00151c 940e 22a4 	CALL SUBOPT_0xCD
00151e 940e 225a 	CALL SUBOPT_0xC2
                 ; 0000 07D8                             X[1]=15; Y[1]=0; Z[1]=0;
001520 940e 2017 	CALL SUBOPT_0x7E
001522 940e 1fef 	CALL SUBOPT_0x7B
001524 c044      	RJMP _0x288
                 ; 0000 07D9                             InputXYZ();
                 ; 0000 07DA                         break;
                 ; 0000 07DB                         case 2:
                 _0x24C:
001525 30e2      	CPI  R30,LOW(0x2)
001526 e0a0      	LDI  R26,HIGH(0x2)
001527 07fa      	CPC  R31,R26
001528 f489      	BRNE _0x24D
                 ; 0000 07DC                             X[0]=-15; Y[0]=0; Z[0]=0;
001529 940e 22a4 	CALL SUBOPT_0xCD
00152b 940e 225a 	CALL SUBOPT_0xC2
                 ; 0000 07DD                             X[1]=15; Y[1]=25; Z[1]=-50;
00152d 940e 2017 	CALL SUBOPT_0x7E
00152f 940e 1c6d 	CALL SUBOPT_0x14
001531 940e 22aa 	CALL SUBOPT_0xCE
001533 940e 2023 	CALL SUBOPT_0x80
                +
001535 e0a0     +LDI R26 , LOW ( 0xC2480000 )
001536 e0b0     +LDI R27 , HIGH ( 0xC2480000 )
001537 e488     +LDI R24 , BYTE3 ( 0xC2480000 )
001538 ec92     +LDI R25 , BYTE4 ( 0xC2480000 )
                 	__GETD2N 0xC2480000
001539 c035      	RJMP _0x289
                 ; 0000 07DE                             InputXYZ();
                 ; 0000 07DF                         break;
                 ; 0000 07E0                         case 3:
                 _0x24D:
00153a 30e3      	CPI  R30,LOW(0x3)
00153b e0a0      	LDI  R26,HIGH(0x3)
00153c 07fa      	CPC  R31,R26
00153d f111      	BREQ _0x28A
                 ; 0000 07E1                             X[0]=0; Y[0]=0; Z[0]=0;
                 ; 0000 07E2                             X[1]=0; Y[1]=25; Z[1]=0;
                 ; 0000 07E3                             InputXYZ();
                 ; 0000 07E4                         break;
                 ; 0000 07E5                         case 4:
00153e 30e4      	CPI  R30,LOW(0x4)
00153f e0a0      	LDI  R26,HIGH(0x4)
001540 07fa      	CPC  R31,R26
001541 f459      	BRNE _0x24F
                 ; 0000 07E6                             X[0]=10; Y[0]=0; Z[0]=0;
001542 940e 224d 	CALL SUBOPT_0xC1
001544 940e 2036 	CALL SUBOPT_0x83
001546 940e 225a 	CALL SUBOPT_0xC2
                 ; 0000 07E7                             X[1]=-10; Y[1]=0; Z[1]=0;
001548 940e 223a 	CALL SUBOPT_0xBE
00154a 940e 1fef 	CALL SUBOPT_0x7B
00154c c01c      	RJMP _0x288
                 ; 0000 07E8                             InputXYZ();
                 ; 0000 07E9                         break;
                 ; 0000 07EA                         case 5:
                 _0x24F:
00154d 30e5      	CPI  R30,LOW(0x5)
00154e e0a0      	LDI  R26,HIGH(0x5)
00154f 07fa      	CPC  R31,R26
001550 f459      	BRNE _0x250
                 ; 0000 07EB                             X[0]=10; Y[0]=0; Z[0]=-40;
001551 940e 224d 	CALL SUBOPT_0xC1
001553 940e 2036 	CALL SUBOPT_0x83
001555 940e 204d 	CALL SUBOPT_0x85
                 ; 0000 07EC                             X[1]=-10; Y[1]=25; Z[1]=0;
                +
001557 ebec     +LDI R30 , LOW ( _X + ( 4 ) )
001558 e0fa     +LDI R31 , HIGH ( _X + ( 4 ) )
                 	__POINTW1MN _X,4
001559 940e 223a 	CALL SUBOPT_0xBE
00155b c009      	RJMP _0x28B
                 ; 0000 07ED                             InputXYZ();
                 ; 0000 07EE                         break;
                 ; 0000 07EF                         case 6:
                 _0x250:
00155c 30e6      	CPI  R30,LOW(0x6)
00155d e0a0      	LDI  R26,HIGH(0x6)
00155e 07fa      	CPC  R31,R26
00155f f499      	BRNE _0x24A
                 ; 0000 07F0                             X[0]=0; Y[0]=0; Z[0]=0;
                 _0x28A:
001560 e0e0      	LDI  R30,LOW(0)
001561 940e 2274 	CALL SUBOPT_0xC6
001563 940e 227d 	CALL SUBOPT_0xC7
                 ; 0000 07F1                             X[1]=0; Y[1]=25; Z[1]=0;
                 _0x28B:
001565 940e 26d6 	CALL __PUTDZ20
001567 940e 22aa 	CALL SUBOPT_0xCE
                 _0x288:
001569 940e 26d6 	CALL __PUTDZ20
                +
00156b ecec     +LDI R30 , LOW ( _Z + ( 4 ) )
00156c e0fa     +LDI R31 , HIGH ( _Z + ( 4 ) )
                 	__POINTW1MN _Z,4
00156d 940e 1fea 	CALL SUBOPT_0x7A
                 _0x289:
00156f 940e 26d6 	CALL __PUTDZ20
                 ; 0000 07F2                             InputXYZ();
001571 940e 0b81 	CALL _InputXYZ
                 ; 0000 07F3                         break;
                 ; 0000 07F4                     }
                 _0x24A:
                 ; 0000 07F5                     if(VX != 0 || VY != 0 | W != 0 )
001573 940e 1d2f 	CALL SUBOPT_0x2B
001575 f419      	BRNE _0x253
001576 940e 1f8c 	CALL SUBOPT_0x73
001578 f051      	BREQ _0x252
                 _0x253:
                 ; 0000 07F6                     {
                 ; 0000 07F7                         countTick++;
001579 940e 1fab 	CALL SUBOPT_0x74
                 ; 0000 07F8                         if(countTick>6)
00157b e0e6      	LDI  R30,LOW(6)
00157c e0f0      	LDI  R31,HIGH(6)
00157d 15ed      	CP   R30,R13
00157e 05fe      	CPC  R31,R14
00157f f414      	BRGE _0x255
                 ; 0000 07F9                            countTick=0;     //2
001580 24dd      	CLR  R13
001581 24ee      	CLR  R14
                 ; 0000 07FA                     }
                 _0x255:
                 ; 0000 07FB                     else
001582 c002      	RJMP _0x256
                 _0x252:
                 ; 0000 07FC                     {
                 ; 0000 07FD                         countTick=0;
001583 24dd      	CLR  R13
001584 24ee      	CLR  R14
                 ; 0000 07FE                     }
                 _0x256:
                 ; 0000 07FF 
                 ; 0000 0800                     counterDelay=60; //65 80
001585 e3ec      	LDI  R30,LOW(60)
001586 e0f0      	LDI  R31,HIGH(60)
001587 940e 1fb0 	CALL SUBOPT_0x75
                 ; 0000 0801                 }
                 ; 0000 0802             break;
                 _0x247:
                 ; 0000 0803         }
                 _0x245:
                 ; 0000 0804 
                 ; 0000 0805         speed=1; //10
001589 940e 1fb5 	CALL SUBOPT_0x76
                 ; 0000 0806         if(counterTG>speed)
00158b f414      	BRGE _0x257
                 ; 0000 0807         {
                 ; 0000 0808             counterTG=0;
00158c 940e 1fc2 	CALL SUBOPT_0x77
                 ; 0000 0809             taskGerakan();
                 ; 0000 080A         }
                 ; 0000 080B  }
                 _0x257:
00158e 9508      	RET
                 ;
                 	#ifndef __SLEEP_DEFINED__
                 	#endif
                 
                 	.CSEG
                 _putchar:
00158f 93aa      	ST   -Y,R26
                 _0x2000006:
001590 91e0 00c0 	LDS  R30,192
001592 72e0      	ANDI R30,LOW(0x20)
001593 f3e1      	BREQ _0x2000006
001594 81e8      	LD   R30,Y
001595 93e0 00c6 	STS  198,R30
001597 9621      	ADIW R28,1
001598 9508      	RET
                 _put_usart_G100:
001599 93ba      	ST   -Y,R27
00159a 93aa      	ST   -Y,R26
00159b 81aa      	LDD  R26,Y+2
00159c dff2      	RCALL _putchar
00159d 81a8      	LD   R26,Y
00159e 81b9      	LDD  R27,Y+1
00159f 940e 1be5 	CALL SUBOPT_0x1
0015a1 9623      	ADIW R28,3
0015a2 9508      	RET
                 __ftoe_G100:
0015a3 940e 22b1 	CALL SUBOPT_0xCF
0015a5 e8e0      	LDI  R30,LOW(128)
0015a6 83ea      	STD  Y+2,R30
0015a7 e3ef      	LDI  R30,LOW(63)
0015a8 83eb      	STD  Y+3,R30
0015a9 940e 2712 	CALL __SAVELOCR4
0015ab 85ee      	LDD  R30,Y+14
0015ac 85ff      	LDD  R31,Y+14+1
0015ad 3fef      	CPI  R30,LOW(0xFFFF)
0015ae efaf      	LDI  R26,HIGH(0xFFFF)
0015af 07fa      	CPC  R31,R26
0015b0 f449      	BRNE _0x200001F
0015b1 85e8      	LDD  R30,Y+8
0015b2 85f9      	LDD  R31,Y+8+1
0015b3 93fa      	ST   -Y,R31
0015b4 93ea      	ST   -Y,R30
                +
0015b5 e9a2     +LDI R26 , LOW ( 2 * _0x2000000 + ( 0 ) )
0015b6 e0b2     +LDI R27 , HIGH ( 2 * _0x2000000 + ( 0 ) )
                 	__POINTW2FN _0x2000000,0
0015b7 940e 1bb7 	CALL _strcpyf
0015b9 c0b4      	RJMP _0x20A0008
                 _0x200001F:
0015ba 3fef      	CPI  R30,LOW(0x7FFF)
0015bb e7af      	LDI  R26,HIGH(0x7FFF)
0015bc 07fa      	CPC  R31,R26
0015bd f449      	BRNE _0x200001E
0015be 85e8      	LDD  R30,Y+8
0015bf 85f9      	LDD  R31,Y+8+1
0015c0 93fa      	ST   -Y,R31
0015c1 93ea      	ST   -Y,R30
                +
0015c2 e9a3     +LDI R26 , LOW ( 2 * _0x2000000 + ( 1 ) )
0015c3 e0b2     +LDI R27 , HIGH ( 2 * _0x2000000 + ( 1 ) )
                 	__POINTW2FN _0x2000000,1
0015c4 940e 1bb7 	CALL _strcpyf
0015c6 c0a7      	RJMP _0x20A0008
                 _0x200001E:
0015c7 85ab      	LDD  R26,Y+11
0015c8 30a7      	CPI  R26,LOW(0x7)
0015c9 f010      	BRLO _0x2000021
0015ca e0e6      	LDI  R30,LOW(6)
0015cb 87eb      	STD  Y+11,R30
                 _0x2000021:
0015cc 851b      	LDD  R17,Y+11
                 _0x2000022:
0015cd 2fe1      	MOV  R30,R17
0015ce 5011      	SUBI R17,1
0015cf 30e0      	CPI  R30,0
0015d0 f019      	BREQ _0x2000024
0015d1 940e 22b8 	CALL SUBOPT_0xD0
0015d3 cff9      	RJMP _0x2000022
                 _0x2000024:
                +
0015d4 85ec     +LDD R30 , Y + 12
0015d5 85fd     +LDD R31 , Y + 12 + 1
0015d6 856e     +LDD R22 , Y + 12 + 2
0015d7 857f     +LDD R23 , Y + 12 + 3
                 	__GETD1S 12
0015d8 940e 2702 	CALL __CPD10
0015da f421      	BRNE _0x2000025
0015db e030      	LDI  R19,LOW(0)
0015dc 940e 22b8 	CALL SUBOPT_0xD0
0015de c02e      	RJMP _0x2000026
                 _0x2000025:
0015df 853b      	LDD  R19,Y+11
0015e0 940e 22c7 	CALL SUBOPT_0xD1
0015e2 f009      	BREQ PC+2
0015e3 f410      	BRCC PC+3
0015e4 940c 15f1 	JMP  _0x2000027
0015e6 940e 22b8 	CALL SUBOPT_0xD0
                 _0x2000028:
0015e8 940e 22c7 	CALL SUBOPT_0xD1
0015ea f028      	BRLO _0x200002A
0015eb 940e 22d2 	CALL SUBOPT_0xD2
0015ed 940e 22d7 	CALL SUBOPT_0xD3
0015ef cff8      	RJMP _0x2000028
                 _0x200002A:
0015f0 c00d      	RJMP _0x200002B
                 _0x2000027:
                 _0x200002C:
0015f1 940e 22c7 	CALL SUBOPT_0xD1
0015f3 f440      	BRSH _0x200002E
0015f4 940e 22d2 	CALL SUBOPT_0xD2
0015f6 940e 22e3 	CALL SUBOPT_0xD4
0015f8 940e 22ea 	CALL SUBOPT_0xD5
0015fa 5031      	SUBI R19,LOW(1)
0015fb cff5      	RJMP _0x200002C
                 _0x200002E:
0015fc 940e 22b8 	CALL SUBOPT_0xD0
                 _0x200002B:
                +
0015fe 85ec     +LDD R30 , Y + 12
0015ff 85fd     +LDD R31 , Y + 12 + 1
001600 856e     +LDD R22 , Y + 12 + 2
001601 857f     +LDD R23 , Y + 12 + 3
                 	__GETD1S 12
001602 940e 22ef 	CALL SUBOPT_0xD6
001604 940e 22ea 	CALL SUBOPT_0xD5
001606 940e 22c7 	CALL SUBOPT_0xD1
001608 f020      	BRLO _0x200002F
001609 940e 22d2 	CALL SUBOPT_0xD2
00160b 940e 22d7 	CALL SUBOPT_0xD3
                 _0x200002F:
                 _0x2000026:
00160d e010      	LDI  R17,LOW(0)
                 _0x2000030:
00160e 85eb      	LDD  R30,Y+11
00160f 17e1      	CP   R30,R17
001610 f188      	BRLO _0x2000032
001611 940e 22f6 	CALL SUBOPT_0xD7
001613 940e 22fb 	CALL SUBOPT_0xD8
001615 940e 22ef 	CALL SUBOPT_0xD6
001617 01df      	MOVW R26,R30
001618 01cb      	MOVW R24,R22
001619 940e 19df 	CALL _floor
                +
00161b 83ec     +STD Y + 4 , R30
00161c 83fd     +STD Y + 4 + 1 , R31
00161d 836e     +STD Y + 4 + 2 , R22
00161e 837f     +STD Y + 4 + 3 , R23
                 	__PUTD1S 4
00161f 940e 2302 	CALL SUBOPT_0xD9
001621 940e 22d2 	CALL SUBOPT_0xD2
001623 940e 256d 	CALL __DIVF21
001625 940e 245c 	CALL __CFD1U
001627 2f0e      	MOV  R16,R30
001628 940e 2307 	CALL SUBOPT_0xDA
00162a 940e 230e 	CALL SUBOPT_0xDB
00162c 27ff      	CLR  R31
00162d 2766      	CLR  R22
00162e 2777      	CLR  R23
00162f 940e 2495 	CALL __CDF1
001631 940e 2313 	CALL SUBOPT_0xDC
001633 940e 22d2 	CALL SUBOPT_0xD2
001635 940e 1df8 	CALL SUBOPT_0x46
001637 940e 22ea 	CALL SUBOPT_0xD5
001639 2fe1      	MOV  R30,R17
00163a 5f1f      	SUBI R17,-1
00163b 30e0      	CPI  R30,0
00163c f689      	BRNE _0x2000030
00163d 940e 2307 	CALL SUBOPT_0xDA
00163f e2ee      	LDI  R30,LOW(46)
001640 93ec      	ST   X,R30
001641 cfcc      	RJMP _0x2000030
                 _0x2000032:
001642 940e 2317 	CALL SUBOPT_0xDD
001644 9731      	SBIW R30,1
001645 85aa      	LDD  R26,Y+10
001646 83a0      	STD  Z+0,R26
001647 3030      	CPI  R19,0
001648 f42c      	BRGE _0x2000034
001649 9531      	NEG  R19
00164a 85a8      	LDD  R26,Y+8
00164b 85b9      	LDD  R27,Y+8+1
00164c e2ed      	LDI  R30,LOW(45)
00164d c003      	RJMP _0x2000114
                 _0x2000034:
00164e 85a8      	LDD  R26,Y+8
00164f 85b9      	LDD  R27,Y+8+1
001650 e2eb      	LDI  R30,LOW(43)
                 _0x2000114:
001651 93ec      	ST   X,R30
001652 940e 2317 	CALL SUBOPT_0xDD
001654 940e 2317 	CALL SUBOPT_0xDD
001656 9731      	SBIW R30,1
001657 01bf      	MOVW R22,R30
001658 2fa3      	MOV  R26,R19
001659 e0ea      	LDI  R30,LOW(10)
00165a 940e 264c 	CALL __DIVB21
00165c 5de0      	SUBI R30,-LOW(48)
00165d 01db      	MOVW R26,R22
00165e 93ec      	ST   X,R30
00165f 940e 2317 	CALL SUBOPT_0xDD
001661 9731      	SBIW R30,1
001662 01bf      	MOVW R22,R30
001663 2fa3      	MOV  R26,R19
001664 e0ea      	LDI  R30,LOW(10)
001665 940e 268e 	CALL __MODB21
001667 5de0      	SUBI R30,-LOW(48)
001668 01db      	MOVW R26,R22
001669 93ec      	ST   X,R30
00166a 85a8      	LDD  R26,Y+8
00166b 85b9      	LDD  R27,Y+8+1
00166c e0e0      	LDI  R30,LOW(0)
00166d 93ec      	ST   X,R30
                 _0x20A0008:
00166e 940e 2719 	CALL __LOADLOCR4
001670 9660      	ADIW R28,16
001671 9508      	RET
                 __print_G100:
001672 93ba      	ST   -Y,R27
001673 93aa      	ST   -Y,R26
001674 97ef      	SBIW R28,63
001675 9761      	SBIW R28,17
001676 940e 2710 	CALL __SAVELOCR6
001678 e010      	LDI  R17,0
                +
001679 01fe     +MOVW R30 , R28
00167a 5ae8     +SUBI R30 , LOW ( - 88 )
00167b 4fff     +SBCI R31 , HIGH ( - 88 )
00167c 9001     +LD R0 , Z +
00167d 81f0     +LD R31 , Z
00167e 2de0     +MOV R30 , R0
                 	__GETW1SX 88
00167f 87e8      	STD  Y+8,R30
001680 87f9      	STD  Y+8+1,R31
                +
001681 01fe     +MOVW R30 , R28
001682 5aea     +SUBI R30 , LOW ( - 86 )
001683 4fff     +SBCI R31 , HIGH ( - 86 )
001684 9001     +LD R0 , Z +
001685 81f0     +LD R31 , Z
001686 2de0     +MOV R30 , R0
                 	__GETW1SX 86
001687 83ee      	STD  Y+6,R30
001688 83ff      	STD  Y+6+1,R31
001689 81ae      	LDD  R26,Y+6
00168a 81bf      	LDD  R27,Y+6+1
00168b e0e0      	LDI  R30,LOW(0)
00168c e0f0      	LDI  R31,HIGH(0)
00168d 93ed      	ST   X+,R30
00168e 93fc      	ST   X,R31
                 _0x2000036:
00168f 01de      	MOVW R26,R28
001690 5aa4      	SUBI R26,LOW(-(92))
001691 4fbf      	SBCI R27,HIGH(-(92))
001692 940e 1be5 	CALL SUBOPT_0x1
001694 9731      	SBIW R30,1
001695 91e4      	LPM  R30,Z
001696 2f2e      	MOV  R18,R30
001697 30e0      	CPI  R30,0
001698 f411      	BRNE PC+3
001699 940c 1885 	JMP _0x2000038
00169b 2fe1      	MOV  R30,R17
00169c 30e0      	CPI  R30,0
00169d f439      	BRNE _0x200003C
00169e 3225      	CPI  R18,37
00169f f411      	BRNE _0x200003D
0016a0 e011      	LDI  R17,LOW(1)
0016a1 c002      	RJMP _0x200003E
                 _0x200003D:
0016a2 940e 231d 	CALL SUBOPT_0xDE
                 _0x200003E:
0016a4 c1df      	RJMP _0x200003B
                 _0x200003C:
0016a5 30e1      	CPI  R30,LOW(0x1)
0016a6 f4c1      	BRNE _0x200003F
0016a7 3225      	CPI  R18,37
0016a8 f419      	BRNE _0x2000040
0016a9 940e 231d 	CALL SUBOPT_0xDE
0016ab c1d7      	RJMP _0x2000115
                 _0x2000040:
0016ac e012      	LDI  R17,LOW(2)
0016ad e0e0      	LDI  R30,LOW(0)
0016ae 8bed      	STD  Y+21,R30
0016af e000      	LDI  R16,LOW(0)
0016b0 322d      	CPI  R18,45
0016b1 f411      	BRNE _0x2000041
0016b2 e001      	LDI  R16,LOW(1)
0016b3 c1d0      	RJMP _0x200003B
                 _0x2000041:
0016b4 322b      	CPI  R18,43
0016b5 f419      	BRNE _0x2000042
0016b6 e2eb      	LDI  R30,LOW(43)
0016b7 8bed      	STD  Y+21,R30
0016b8 c1cb      	RJMP _0x200003B
                 _0x2000042:
0016b9 3220      	CPI  R18,32
0016ba f419      	BRNE _0x2000043
0016bb e2e0      	LDI  R30,LOW(32)
0016bc 8bed      	STD  Y+21,R30
0016bd c1c6      	RJMP _0x200003B
                 _0x2000043:
0016be c002      	RJMP _0x2000044
                 _0x200003F:
0016bf 30e2      	CPI  R30,LOW(0x2)
0016c0 f439      	BRNE _0x2000045
                 _0x2000044:
0016c1 e050      	LDI  R21,LOW(0)
0016c2 e013      	LDI  R17,LOW(3)
0016c3 3320      	CPI  R18,48
0016c4 f411      	BRNE _0x2000046
0016c5 6800      	ORI  R16,LOW(128)
0016c6 c1bd      	RJMP _0x200003B
                 _0x2000046:
0016c7 c002      	RJMP _0x2000047
                 _0x2000045:
0016c8 30e3      	CPI  R30,LOW(0x3)
0016c9 f491      	BRNE _0x2000048
                 _0x2000047:
0016ca 3320      	CPI  R18,48
0016cb f010      	BRLO _0x200004A
0016cc 332a      	CPI  R18,58
0016cd f008      	BRLO _0x200004B
                 _0x200004A:
0016ce c007      	RJMP _0x2000049
                 _0x200004B:
0016cf e0aa      	LDI  R26,LOW(10)
0016d0 9f5a      	MUL  R21,R26
0016d1 2d50      	MOV  R21,R0
0016d2 2fe2      	MOV  R30,R18
0016d3 53e0      	SUBI R30,LOW(48)
0016d4 0f5e      	ADD  R21,R30
0016d5 c1ae      	RJMP _0x200003B
                 _0x2000049:
0016d6 e040      	LDI  R20,LOW(0)
0016d7 322e      	CPI  R18,46
0016d8 f411      	BRNE _0x200004C
0016d9 e014      	LDI  R17,LOW(4)
0016da c1a9      	RJMP _0x200003B
                 _0x200004C:
0016db c00f      	RJMP _0x200004D
                 _0x2000048:
0016dc 30e4      	CPI  R30,LOW(0x4)
0016dd f499      	BRNE _0x200004F
0016de 3320      	CPI  R18,48
0016df f010      	BRLO _0x2000051
0016e0 332a      	CPI  R18,58
0016e1 f008      	BRLO _0x2000052
                 _0x2000051:
0016e2 c008      	RJMP _0x2000050
                 _0x2000052:
0016e3 6200      	ORI  R16,LOW(32)
0016e4 e0aa      	LDI  R26,LOW(10)
0016e5 9f4a      	MUL  R20,R26
0016e6 2d40      	MOV  R20,R0
0016e7 2fe2      	MOV  R30,R18
0016e8 53e0      	SUBI R30,LOW(48)
0016e9 0f4e      	ADD  R20,R30
0016ea c199      	RJMP _0x200003B
                 _0x2000050:
                 _0x200004D:
0016eb 362c      	CPI  R18,108
0016ec f419      	BRNE _0x2000053
0016ed 6002      	ORI  R16,LOW(2)
0016ee e015      	LDI  R17,LOW(5)
0016ef c194      	RJMP _0x200003B
                 _0x2000053:
0016f0 c004      	RJMP _0x2000054
                 _0x200004F:
0016f1 30e5      	CPI  R30,LOW(0x5)
0016f2 f011      	BREQ PC+3
0016f3 940c 1884 	JMP _0x200003B
                 _0x2000054:
0016f5 2fe2      	MOV  R30,R18
0016f6 36e3      	CPI  R30,LOW(0x63)
0016f7 f459      	BRNE _0x2000059
0016f8 940e 2324 	CALL SUBOPT_0xDF
0016fa 940e 232b 	CALL SUBOPT_0xE0
0016fc 940e 2324 	CALL SUBOPT_0xDF
0016fe 81a4      	LDD  R26,Z+4
0016ff 93aa      	ST   -Y,R26
001700 940e 2332 	CALL SUBOPT_0xE1
001702 c180      	RJMP _0x200005A
                 _0x2000059:
001703 34e5      	CPI  R30,LOW(0x45)
001704 f011      	BREQ _0x200005D
001705 36e5      	CPI  R30,LOW(0x65)
001706 f409      	BRNE _0x200005E
                 _0x200005D:
001707 c004      	RJMP _0x200005F
                 _0x200005E:
001708 36e6      	CPI  R30,LOW(0x66)
001709 f011      	BREQ PC+3
00170a 940c 1752 	JMP _0x2000060
                 _0x200005F:
00170c 01fe      	MOVW R30,R28
00170d 9676      	ADIW R30,22
00170e 87ee      	STD  Y+14,R30
00170f 87ff      	STD  Y+14+1,R31
001710 940e 2338 	CALL SUBOPT_0xE2
001712 940e 26bc 	CALL __GETD1P
001714 940e 233f 	CALL SUBOPT_0xE3
001716 940e 2344 	CALL SUBOPT_0xE4
001718 85ad      	LDD  R26,Y+13
001719 23aa      	TST  R26
00171a f022      	BRMI _0x2000061
00171b 89ad      	LDD  R26,Y+21
00171c 32ab      	CPI  R26,LOW(0x2B)
00171d f049      	BREQ _0x2000063
00171e c017      	RJMP _0x2000064
                 _0x2000061:
00171f 940e 2346 	CALL SUBOPT_0xE5
001721 940e 2429 	CALL __ANEGF1
001723 940e 233f 	CALL SUBOPT_0xE3
001725 e2ed      	LDI  R30,LOW(45)
001726 8bed      	STD  Y+21,R30
                 _0x2000063:
001727 ff07      	SBRS R16,7
001728 c005      	RJMP _0x2000065
001729 89ed      	LDD  R30,Y+21
00172a 93ea      	ST   -Y,R30
00172b 940e 2332 	CALL SUBOPT_0xE1
00172d c008      	RJMP _0x2000066
                 _0x2000065:
00172e 85ee      	LDD  R30,Y+14
00172f 85ff      	LDD  R31,Y+14+1
001730 9631      	ADIW R30,1
001731 87ee      	STD  Y+14,R30
001732 87ff      	STD  Y+14+1,R31
001733 9731      	SBIW R30,1
001734 89ad      	LDD  R26,Y+21
001735 83a0      	STD  Z+0,R26
                 _0x2000066:
                 _0x2000064:
001736 ff05      	SBRS R16,5
001737 e046      	LDI  R20,LOW(6)
001738 3626      	CPI  R18,102
001739 f451      	BRNE _0x2000068
00173a 940e 2346 	CALL SUBOPT_0xE5
00173c 940e 26db 	CALL __PUTPARD1
00173e 934a      	ST   -Y,R20
00173f 89ab      	LDD  R26,Y+19
001740 89bc      	LDD  R27,Y+19+1
001741 940e 18ea 	CALL _ftoa
001743 c009      	RJMP _0x2000069
                 _0x2000068:
001744 940e 2346 	CALL SUBOPT_0xE5
001746 940e 26db 	CALL __PUTPARD1
001748 934a      	ST   -Y,R20
001749 932a      	ST   -Y,R18
00174a 89ac      	LDD  R26,Y+20
00174b 89bd      	LDD  R27,Y+20+1
00174c de56      	RCALL __ftoe_G100
                 _0x2000069:
00174d 01fe      	MOVW R30,R28
00174e 9676      	ADIW R30,22
00174f 940e 234b 	CALL SUBOPT_0xE6
001751 c01e      	RJMP _0x200006A
                 _0x2000060:
001752 37e3      	CPI  R30,LOW(0x73)
001753 f439      	BRNE _0x200006C
001754 940e 2344 	CALL SUBOPT_0xE4
001756 940e 2353 	CALL SUBOPT_0xE7
001758 940e 234b 	CALL SUBOPT_0xE6
00175a c00e      	RJMP _0x200006D
                 _0x200006C:
00175b 37e0      	CPI  R30,LOW(0x70)
00175c f4c1      	BRNE _0x200006F
00175d 940e 2344 	CALL SUBOPT_0xE4
00175f 940e 2353 	CALL SUBOPT_0xE7
001761 87ee      	STD  Y+14,R30
001762 87ff      	STD  Y+14+1,R31
001763 85ae      	LDD  R26,Y+14
001764 85bf      	LDD  R27,Y+14+1
001765 940e 1bd0 	CALL _strlenf
001767 2f1e      	MOV  R17,R30
001768 6008      	ORI  R16,LOW(8)
                 _0x200006D:
001769 770f      	ANDI R16,LOW(127)
00176a 3040      	CPI  R20,0
00176b f011      	BREQ _0x2000071
00176c 1741      	CP   R20,R17
00176d f008      	BRLO _0x2000072
                 _0x2000071:
00176e c001      	RJMP _0x2000070
                 _0x2000072:
00176f 2f14      	MOV  R17,R20
                 _0x2000070:
                 _0x200006A:
001770 e040      	LDI  R20,LOW(0)
001771 e0e0      	LDI  R30,LOW(0)
001772 8bec      	STD  Y+20,R30
001773 e030      	LDI  R19,LOW(0)
001774 c06e      	RJMP _0x2000073
                 _0x200006F:
001775 36e4      	CPI  R30,LOW(0x64)
001776 f011      	BREQ _0x2000076
001777 36e9      	CPI  R30,LOW(0x69)
001778 f411      	BRNE _0x2000077
                 _0x2000076:
001779 6004      	ORI  R16,LOW(4)
00177a c002      	RJMP _0x2000078
                 _0x2000077:
00177b 37e5      	CPI  R30,LOW(0x75)
00177c f4a1      	BRNE _0x2000079
                 _0x2000078:
00177d e0ea      	LDI  R30,LOW(10)
00177e 8bec      	STD  Y+20,R30
00177f ff01      	SBRS R16,1
001780 c008      	RJMP _0x200007A
                +
001781 e0e0     +LDI R30 , LOW ( 0x3B9ACA00 )
001782 ecfa     +LDI R31 , HIGH ( 0x3B9ACA00 )
001783 e96a     +LDI R22 , BYTE3 ( 0x3B9ACA00 )
001784 e37b     +LDI R23 , BYTE4 ( 0x3B9ACA00 )
                 	__GETD1N 0x3B9ACA00
001785 940e 2358 	CALL SUBOPT_0xE8
001787 e01a      	LDI  R17,LOW(10)
001788 c023      	RJMP _0x200007B
                 _0x200007A:
                +
001789 e1e0     +LDI R30 , LOW ( 0x2710 )
00178a e2f7     +LDI R31 , HIGH ( 0x2710 )
00178b e060     +LDI R22 , BYTE3 ( 0x2710 )
00178c e070     +LDI R23 , BYTE4 ( 0x2710 )
                 	__GETD1N 0x2710
00178d 940e 2358 	CALL SUBOPT_0xE8
00178f e015      	LDI  R17,LOW(5)
001790 c01b      	RJMP _0x200007B
                 _0x2000079:
001791 35e8      	CPI  R30,LOW(0x58)
001792 f411      	BRNE _0x200007D
001793 6008      	ORI  R16,LOW(8)
001794 c004      	RJMP _0x200007E
                 _0x200007D:
001795 37e8      	CPI  R30,LOW(0x78)
001796 f011      	BREQ PC+3
001797 940c 1883 	JMP _0x20000BC
                 _0x200007E:
001799 e1e0      	LDI  R30,LOW(16)
00179a 8bec      	STD  Y+20,R30
00179b ff01      	SBRS R16,1
00179c c008      	RJMP _0x2000080
                +
00179d e0e0     +LDI R30 , LOW ( 0x10000000 )
00179e e0f0     +LDI R31 , HIGH ( 0x10000000 )
00179f e060     +LDI R22 , BYTE3 ( 0x10000000 )
0017a0 e170     +LDI R23 , BYTE4 ( 0x10000000 )
                 	__GETD1N 0x10000000
0017a1 940e 2358 	CALL SUBOPT_0xE8
0017a3 e018      	LDI  R17,LOW(8)
0017a4 c007      	RJMP _0x200007B
                 _0x2000080:
                +
0017a5 e0e0     +LDI R30 , LOW ( 0x1000 )
0017a6 e1f0     +LDI R31 , HIGH ( 0x1000 )
0017a7 e060     +LDI R22 , BYTE3 ( 0x1000 )
0017a8 e070     +LDI R23 , BYTE4 ( 0x1000 )
                 	__GETD1N 0x1000
0017a9 940e 2358 	CALL SUBOPT_0xE8
0017ab e014      	LDI  R17,LOW(4)
                 _0x200007B:
0017ac 3040      	CPI  R20,0
0017ad f011      	BREQ _0x2000081
0017ae 770f      	ANDI R16,LOW(127)
0017af c001      	RJMP _0x2000082
                 _0x2000081:
0017b0 e041      	LDI  R20,LOW(1)
                 _0x2000082:
0017b1 ff01      	SBRS R16,1
0017b2 c008      	RJMP _0x2000083
0017b3 940e 2344 	CALL SUBOPT_0xE4
0017b5 940e 2338 	CALL SUBOPT_0xE2
0017b7 9614      	ADIW R26,4
0017b8 940e 26bc 	CALL __GETD1P
0017ba c00f      	RJMP _0x2000116
                 _0x2000083:
0017bb ff02      	SBRS R16,2
0017bc c007      	RJMP _0x2000085
0017bd 940e 2344 	CALL SUBOPT_0xE4
0017bf 940e 2353 	CALL SUBOPT_0xE7
0017c1 940e 2624 	CALL __CWD1
0017c3 c006      	RJMP _0x2000116
                 _0x2000085:
0017c4 940e 2344 	CALL SUBOPT_0xE4
0017c6 940e 2353 	CALL SUBOPT_0xE7
0017c8 2766      	CLR  R22
0017c9 2777      	CLR  R23
                 _0x2000116:
                +
0017ca 87ea     +STD Y + 10 , R30
0017cb 87fb     +STD Y + 10 + 1 , R31
0017cc 876c     +STD Y + 10 + 2 , R22
0017cd 877d     +STD Y + 10 + 3 , R23
                 	__PUTD1S 10
0017ce ff02      	SBRS R16,2
0017cf c012      	RJMP _0x2000087
0017d0 85ad      	LDD  R26,Y+13
0017d1 23aa      	TST  R26
0017d2 f442      	BRPL _0x2000088
0017d3 940e 2346 	CALL SUBOPT_0xE5
0017d5 940e 2611 	CALL __ANEGD1
0017d7 940e 233f 	CALL SUBOPT_0xE3
0017d9 e2ed      	LDI  R30,LOW(45)
0017da 8bed      	STD  Y+21,R30
                 _0x2000088:
0017db 89ed      	LDD  R30,Y+21
0017dc 30e0      	CPI  R30,0
0017dd f019      	BREQ _0x2000089
0017de 5f1f      	SUBI R17,-LOW(1)
0017df 5f4f      	SUBI R20,-LOW(1)
0017e0 c001      	RJMP _0x200008A
                 _0x2000089:
0017e1 7f0b      	ANDI R16,LOW(251)
                 _0x200008A:
                 _0x2000087:
0017e2 2f34      	MOV  R19,R20
                 _0x2000073:
0017e3 fd00      	SBRC R16,0
0017e4 c014      	RJMP _0x200008B
                 _0x200008C:
0017e5 1715      	CP   R17,R21
0017e6 f410      	BRSH _0x200008F
0017e7 1735      	CP   R19,R21
0017e8 f008      	BRLO _0x2000090
                 _0x200008F:
0017e9 c00f      	RJMP _0x200008E
                 _0x2000090:
0017ea ff07      	SBRS R16,7
0017eb c008      	RJMP _0x2000091
0017ec ff02      	SBRS R16,2
0017ed c004      	RJMP _0x2000092
0017ee 7f0b      	ANDI R16,LOW(251)
0017ef 892d      	LDD  R18,Y+21
0017f0 5011      	SUBI R17,LOW(1)
0017f1 c001      	RJMP _0x2000093
                 _0x2000092:
0017f2 e320      	LDI  R18,LOW(48)
                 _0x2000093:
0017f3 c001      	RJMP _0x2000094
                 _0x2000091:
0017f4 e220      	LDI  R18,LOW(32)
                 _0x2000094:
0017f5 940e 231d 	CALL SUBOPT_0xDE
0017f7 5051      	SUBI R21,LOW(1)
0017f8 cfec      	RJMP _0x200008C
                 _0x200008E:
                 _0x200008B:
                 _0x2000095:
0017f9 1714      	CP   R17,R20
0017fa f490      	BRSH _0x2000097
0017fb 6100      	ORI  R16,LOW(16)
0017fc ff02      	SBRS R16,2
0017fd c006      	RJMP _0x2000098
0017fe 940e 235d 	CALL SUBOPT_0xE9
001800 f009      	BREQ _0x2000099
001801 5051      	SUBI R21,LOW(1)
                 _0x2000099:
001802 5011      	SUBI R17,LOW(1)
001803 5041      	SUBI R20,LOW(1)
                 _0x2000098:
001804 e3e0      	LDI  R30,LOW(48)
001805 93ea      	ST   -Y,R30
001806 940e 2332 	CALL SUBOPT_0xE1
001808 3050      	CPI  R21,0
001809 f009      	BREQ _0x200009A
00180a 5051      	SUBI R21,LOW(1)
                 _0x200009A:
00180b 5041      	SUBI R20,LOW(1)
00180c cfec      	RJMP _0x2000095
                 _0x2000097:
00180d 2f31      	MOV  R19,R17
00180e 89ec      	LDD  R30,Y+20
00180f 30e0      	CPI  R30,0
001810 f4b9      	BRNE _0x200009B
                 _0x200009C:
001811 3030      	CPI  R19,0
001812 f0a1      	BREQ _0x200009E
001813 ff03      	SBRS R16,3
001814 c006      	RJMP _0x200009F
001815 85ee      	LDD  R30,Y+14
001816 85ff      	LDD  R31,Y+14+1
001817 9125      	LPM  R18,Z+
001818 87ee      	STD  Y+14,R30
001819 87ff      	STD  Y+14+1,R31
00181a c005      	RJMP _0x20000A0
                 _0x200009F:
00181b 85ae      	LDD  R26,Y+14
00181c 85bf      	LDD  R27,Y+14+1
00181d 912d      	LD   R18,X+
00181e 87ae      	STD  Y+14,R26
00181f 87bf      	STD  Y+14+1,R27
                 _0x20000A0:
001820 940e 231d 	CALL SUBOPT_0xDE
001822 3050      	CPI  R21,0
001823 f009      	BREQ _0x20000A1
001824 5051      	SUBI R21,LOW(1)
                 _0x20000A1:
001825 5031      	SUBI R19,LOW(1)
001826 cfea      	RJMP _0x200009C
                 _0x200009E:
001827 c051      	RJMP _0x20000A2
                 _0x200009B:
                 _0x20000A4:
001828 940e 236f 	CALL SUBOPT_0xEA
00182a 940e 2669 	CALL __DIVD21U
00182c 2f2e      	MOV  R18,R30
00182d 302a      	CPI  R18,10
00182e f030      	BRLO _0x20000A6
00182f ff03      	SBRS R16,3
001830 c002      	RJMP _0x20000A7
001831 5c29      	SUBI R18,-LOW(55)
001832 c001      	RJMP _0x20000A8
                 _0x20000A7:
001833 5a29      	SUBI R18,-LOW(87)
                 _0x20000A8:
001834 c001      	RJMP _0x20000A9
                 _0x20000A6:
001835 5d20      	SUBI R18,-LOW(48)
                 _0x20000A9:
001836 fd04      	SBRC R16,4
001837 c021      	RJMP _0x20000AB
001838 3321      	CPI  R18,49
001839 f460      	BRSH _0x20000AD
                +
00183a 89a8     +LDD R26 , Y + 16
00183b 89b9     +LDD R27 , Y + 16 + 1
00183c 898a     +LDD R24 , Y + 16 + 2
00183d 899b     +LDD R25 , Y + 16 + 3
                 	__GETD2S 16
                +
00183e 30a1     +CPI R26 , LOW ( 0x1 )
00183f e0e0     +LDI R30 , HIGH ( 0x1 )
001840 07be     +CPC R27 , R30
001841 e0e0     +LDI R30 , BYTE3 ( 0x1 )
001842 078e     +CPC R24 , R30
001843 e0e0     +LDI R30 , BYTE4 ( 0x1 )
001844 079e     +CPC R25 , R30
                 	__CPD2N 0x1
001845 f409      	BRNE _0x20000AC
                 _0x20000AD:
001846 c00b      	RJMP _0x20000AF
                 _0x20000AC:
001847 1743      	CP   R20,R19
001848 f440      	BRSH _0x2000117
001849 1753      	CP   R21,R19
00184a f010      	BRLO _0x20000B2
00184b ff00      	SBRS R16,0
00184c c001      	RJMP _0x20000B3
                 _0x20000B2:
00184d c010      	RJMP _0x20000B1
                 _0x20000B3:
00184e e220      	LDI  R18,LOW(32)
00184f ff07      	SBRS R16,7
001850 c008      	RJMP _0x20000B4
                 _0x2000117:
001851 e320      	LDI  R18,LOW(48)
                 _0x20000AF:
001852 6100      	ORI  R16,LOW(16)
001853 ff02      	SBRS R16,2
001854 c004      	RJMP _0x20000B5
001855 940e 235d 	CALL SUBOPT_0xE9
001857 f009      	BREQ _0x20000B6
001858 5051      	SUBI R21,LOW(1)
                 _0x20000B6:
                 _0x20000B5:
                 _0x20000B4:
                 _0x20000AB:
001859 940e 231d 	CALL SUBOPT_0xDE
00185b 3050      	CPI  R21,0
00185c f009      	BREQ _0x20000B7
00185d 5051      	SUBI R21,LOW(1)
                 _0x20000B7:
                 _0x20000B1:
00185e 5031      	SUBI R19,LOW(1)
00185f 940e 236f 	CALL SUBOPT_0xEA
001861 940e 269a 	CALL __MODD21U
001863 940e 233f 	CALL SUBOPT_0xE3
001865 89ec      	LDD  R30,Y+20
                +
001866 89a8     +LDD R26 , Y + 16
001867 89b9     +LDD R27 , Y + 16 + 1
001868 898a     +LDD R24 , Y + 16 + 2
001869 899b     +LDD R25 , Y + 16 + 3
                 	__GETD2S 16
00186a 27ff      	CLR  R31
00186b 2766      	CLR  R22
00186c 2777      	CLR  R23
00186d 940e 2669 	CALL __DIVD21U
00186f 940e 2358 	CALL SUBOPT_0xE8
                +
001871 89e8     +LDD R30 , Y + 16
001872 89f9     +LDD R31 , Y + 16 + 1
001873 896a     +LDD R22 , Y + 16 + 2
001874 897b     +LDD R23 , Y + 16 + 3
                 	__GETD1S 16
001875 940e 2702 	CALL __CPD10
001877 f009      	BREQ _0x20000A5
001878 cfaf      	RJMP _0x20000A4
                 _0x20000A5:
                 _0x20000A2:
001879 ff00      	SBRS R16,0
00187a c008      	RJMP _0x20000B8
                 _0x20000B9:
00187b 3050      	CPI  R21,0
00187c f031      	BREQ _0x20000BB
00187d 5051      	SUBI R21,LOW(1)
00187e e2e0      	LDI  R30,LOW(32)
00187f 93ea      	ST   -Y,R30
001880 940e 2332 	CALL SUBOPT_0xE1
001882 cff8      	RJMP _0x20000B9
                 _0x20000BB:
                 _0x20000B8:
                 _0x20000BC:
                 _0x200005A:
                 _0x2000115:
001883 e010      	LDI  R17,LOW(0)
                 _0x200003B:
001884 ce0a      	RJMP _0x2000036
                 _0x2000038:
001885 81ae      	LDD  R26,Y+6
001886 81bf      	LDD  R27,Y+6+1
001887 940e 26b8 	CALL __GETW1P
001889 940e 2717 	CALL __LOADLOCR6
00188b 96ef      	ADIW R28,63
00188c 966f      	ADIW R28,31
00188d 9508      	RET
                 _printf:
00188e 92ff      	PUSH R15
00188f 2ef8      	MOV  R15,R24
001890 9726      	SBIW R28,6
001891 931a      	ST   -Y,R17
001892 930a      	ST   -Y,R16
001893 01de      	MOVW R26,R28
001894 9614      	ADIW R26,4
001895 940e 2609 	CALL __ADDW2R15
001897 018d      	MOVW R16,R26
001898 e0e0      	LDI  R30,LOW(0)
001899 83ec      	STD  Y+4,R30
00189a 83ed      	STD  Y+4+1,R30
00189b 83ee      	STD  Y+6,R30
00189c 83ef      	STD  Y+6+1,R30
00189d 01de      	MOVW R26,R28
00189e 9618      	ADIW R26,8
00189f 940e 2609 	CALL __ADDW2R15
0018a1 940e 26b8 	CALL __GETW1P
0018a3 93fa      	ST   -Y,R31
0018a4 93ea      	ST   -Y,R30
0018a5 931a      	ST   -Y,R17
0018a6 930a      	ST   -Y,R16
0018a7 e9e9      	LDI  R30,LOW(_put_usart_G100)
0018a8 e1f5      	LDI  R31,HIGH(_put_usart_G100)
0018a9 93fa      	ST   -Y,R31
0018aa 93ea      	ST   -Y,R30
0018ab 01de      	MOVW R26,R28
0018ac 9618      	ADIW R26,8
0018ad ddc4      	RCALL __print_G100
0018ae 8119      	LDD  R17,Y+1
0018af 8108      	LDD  R16,Y+0
0018b0 9628      	ADIW R28,8
0018b1 90ff      	POP  R15
0018b2 9508      	RET
                 
                 	.CSEG
                 _atoi:
0018b3 93ba      	ST   -Y,R27
0018b4 93aa      	ST   -Y,R26
0018b5 81b9         	ldd  r27,y+1
0018b6 81a8         	ld   r26,y
                 __atoi0:
0018b7 91ec         	ld   r30,x
0018b8 2f8a              mov  r24,r26
0018b9 2fae      	MOV  R26,R30
0018ba 940e 1bac 	CALL _isspace
0018bc 2fa8              mov  r26,r24
0018bd 23ee         	tst  r30
0018be f011         	breq __atoi1
0018bf 9611         	adiw r26,1
0018c0 cff6         	rjmp __atoi0
                 __atoi1:
0018c1 94e8         	clt
0018c2 91ec         	ld   r30,x
0018c3 32ed         	cpi  r30,'-'
0018c4 f411         	brne __atoi2
0018c5 9468         	set
0018c6 c002         	rjmp __atoi3
                 __atoi2:
0018c7 32eb         	cpi  r30,'+'
0018c8 f409         	brne __atoi4
                 __atoi3:
0018c9 9611         	adiw r26,1
                 __atoi4:
0018ca 2766         	clr  r22
0018cb 2777         	clr  r23
                 __atoi5:
0018cc 91ec         	ld   r30,x
0018cd 2f8a              mov  r24,r26
0018ce 2fae      	MOV  R26,R30
0018cf 940e 1ba3 	CALL _isdigit
0018d1 2fa8              mov  r26,r24
0018d2 23ee         	tst  r30
0018d3 f079         	breq __atoi6
0018d4 01fb         	movw r30,r22
0018d5 0f66         	lsl  r22
0018d6 1f77         	rol  r23
0018d7 0f66         	lsl  r22
0018d8 1f77         	rol  r23
0018d9 0f6e         	add  r22,r30
0018da 1f7f         	adc  r23,r31
0018db 0f66         	lsl  r22
0018dc 1f77         	rol  r23
0018dd 91ed         	ld   r30,x+
0018de 27ff         	clr  r31
0018df 53e0         	subi r30,'0'
0018e0 0f6e         	add  r22,r30
0018e1 1f7f         	adc  r23,r31
0018e2 cfe9         	rjmp __atoi5
                 __atoi6:
0018e3 01fb         	movw r30,r22
0018e4 f41e         	brtc __atoi7
0018e5 95e0         	com  r30
0018e6 95f0         	com  r31
0018e7 9631         	adiw r30,1
                 __atoi7:
0018e8 9622         	adiw r28,2
0018e9 9508         	ret
                 _ftoa:
0018ea 940e 22b1 	CALL SUBOPT_0xCF
0018ec e0e0      	LDI  R30,LOW(0)
0018ed 83ea      	STD  Y+2,R30
0018ee e3ef      	LDI  R30,LOW(63)
0018ef 83eb      	STD  Y+3,R30
0018f0 931a      	ST   -Y,R17
0018f1 930a      	ST   -Y,R16
0018f2 85eb      	LDD  R30,Y+11
0018f3 85fc      	LDD  R31,Y+11+1
0018f4 3fef      	CPI  R30,LOW(0xFFFF)
0018f5 efaf      	LDI  R26,HIGH(0xFFFF)
0018f6 07fa      	CPC  R31,R26
0018f7 f439      	BRNE _0x202000D
0018f8 940e 2378 	CALL SUBOPT_0xEB
                +
0018fa e9aa     +LDI R26 , LOW ( 2 * _0x2020000 + ( 0 ) )
0018fb e0b2     +LDI R27 , HIGH ( 2 * _0x2020000 + ( 0 ) )
                 	__POINTW2FN _0x2020000,0
0018fc 940e 1bb7 	CALL _strcpyf
0018fe c0ab      	RJMP _0x20A0007
                 _0x202000D:
0018ff 3fef      	CPI  R30,LOW(0x7FFF)
001900 e7af      	LDI  R26,HIGH(0x7FFF)
001901 07fa      	CPC  R31,R26
001902 f439      	BRNE _0x202000C
001903 940e 2378 	CALL SUBOPT_0xEB
                +
001905 e9ab     +LDI R26 , LOW ( 2 * _0x2020000 + ( 1 ) )
001906 e0b2     +LDI R27 , HIGH ( 2 * _0x2020000 + ( 1 ) )
                 	__POINTW2FN _0x2020000,1
001907 940e 1bb7 	CALL _strcpyf
001909 c0a0      	RJMP _0x20A0007
                 _0x202000C:
00190a 85ac      	LDD  R26,Y+12
00190b 23aa      	TST  R26
00190c f462      	BRPL _0x202000F
                +
00190d 85e9     +LDD R30 , Y + 9
00190e 85fa     +LDD R31 , Y + 9 + 1
00190f 856b     +LDD R22 , Y + 9 + 2
001910 857c     +LDD R23 , Y + 9 + 3
                 	__GETD1S 9
001911 940e 2429 	CALL __ANEGF1
001913 940e 237d 	CALL SUBOPT_0xEC
001915 940e 2382 	CALL SUBOPT_0xED
001917 e2ed      	LDI  R30,LOW(45)
001918 93ec      	ST   X,R30
                 _0x202000F:
001919 85a8      	LDD  R26,Y+8
00191a 30a7      	CPI  R26,LOW(0x7)
00191b f010      	BRLO _0x2020010
00191c e0e6      	LDI  R30,LOW(6)
00191d 87e8      	STD  Y+8,R30
                 _0x2020010:
00191e 8518      	LDD  R17,Y+8
                 _0x2020011:
00191f 2fe1      	MOV  R30,R17
001920 5011      	SUBI R17,1
001921 30e0      	CPI  R30,0
001922 f039      	BREQ _0x2020013
001923 940e 2389 	CALL SUBOPT_0xEE
001925 940e 22fb 	CALL SUBOPT_0xD8
001927 940e 238e 	CALL SUBOPT_0xEF
001929 cff5      	RJMP _0x2020011
                 _0x2020013:
00192a 940e 2393 	CALL SUBOPT_0xF0
00192c 940e 24cf 	CALL __ADDF12
00192e 940e 237d 	CALL SUBOPT_0xEC
001930 e010      	LDI  R17,LOW(0)
001931 940e 239c 	CALL SUBOPT_0xF1
001933 940e 238e 	CALL SUBOPT_0xEF
                 _0x2020014:
001935 940e 2393 	CALL SUBOPT_0xF0
001937 940e 25b2 	CALL __CMPF12
001939 f088      	BRLO _0x2020016
00193a 940e 2389 	CALL SUBOPT_0xEE
00193c 940e 22e3 	CALL SUBOPT_0xD4
00193e 940e 238e 	CALL SUBOPT_0xEF
001940 5f1f      	SUBI R17,-LOW(1)
001941 3217      	CPI  R17,39
001942 f038      	BRLO _0x2020017
001943 940e 2378 	CALL SUBOPT_0xEB
                +
001945 e9af     +LDI R26 , LOW ( 2 * _0x2020000 + ( 5 ) )
001946 e0b2     +LDI R27 , HIGH ( 2 * _0x2020000 + ( 5 ) )
                 	__POINTW2FN _0x2020000,5
001947 940e 1bb7 	CALL _strcpyf
001949 c060      	RJMP _0x20A0007
                 _0x2020017:
00194a cfea      	RJMP _0x2020014
                 _0x2020016:
00194b 3010      	CPI  R17,0
00194c f429      	BRNE _0x2020018
00194d 940e 2382 	CALL SUBOPT_0xED
00194f e3e0      	LDI  R30,LOW(48)
001950 93ec      	ST   X,R30
001951 c02b      	RJMP _0x2020019
                 _0x2020018:
                 _0x202001A:
001952 2fe1      	MOV  R30,R17
001953 5011      	SUBI R17,1
001954 30e0      	CPI  R30,0
001955 f139      	BREQ _0x202001C
001956 940e 2389 	CALL SUBOPT_0xEE
001958 940e 22fb 	CALL SUBOPT_0xD8
00195a 940e 22ef 	CALL SUBOPT_0xD6
00195c 01df      	MOVW R26,R30
00195d 01cb      	MOVW R24,R22
00195e 940e 19df 	CALL _floor
001960 940e 238e 	CALL SUBOPT_0xEF
001962 940e 2393 	CALL SUBOPT_0xF0
001964 940e 256d 	CALL __DIVF21
001966 940e 245c 	CALL __CFD1U
001968 2f0e      	MOV  R16,R30
001969 940e 2382 	CALL SUBOPT_0xED
00196b 940e 230e 	CALL SUBOPT_0xDB
00196d e0f0      	LDI  R31,0
00196e 940e 2389 	CALL SUBOPT_0xEE
001970 940e 2624 	CALL __CWD1
001972 940e 2495 	CALL __CDF1
001974 940e 251f 	CALL __MULF12
001976 940e 23a1 	CALL SUBOPT_0xF2
001978 940e 1df8 	CALL SUBOPT_0x46
00197a 940e 237d 	CALL SUBOPT_0xEC
00197c cfd5      	RJMP _0x202001A
                 _0x202001C:
                 _0x2020019:
00197d 85e8      	LDD  R30,Y+8
00197e 30e0      	CPI  R30,0
00197f f131      	BREQ _0x20A0006
001980 940e 2382 	CALL SUBOPT_0xED
001982 e2ee      	LDI  R30,LOW(46)
001983 93ec      	ST   X,R30
                 _0x202001E:
001984 85e8      	LDD  R30,Y+8
001985 50e1      	SUBI R30,LOW(1)
001986 87e8      	STD  Y+8,R30
001987 5fef      	SUBI R30,-LOW(1)
001988 f0e9      	BREQ _0x2020020
001989 940e 23a1 	CALL SUBOPT_0xF2
00198b 940e 22e3 	CALL SUBOPT_0xD4
00198d 940e 237d 	CALL SUBOPT_0xEC
                +
00198f 85e9     +LDD R30 , Y + 9
001990 85fa     +LDD R31 , Y + 9 + 1
001991 856b     +LDD R22 , Y + 9 + 2
001992 857c     +LDD R23 , Y + 9 + 3
                 	__GETD1S 9
001993 940e 245c 	CALL __CFD1U
001995 2f0e      	MOV  R16,R30
001996 940e 2382 	CALL SUBOPT_0xED
001998 940e 230e 	CALL SUBOPT_0xDB
00199a e0f0      	LDI  R31,0
00199b 940e 23a1 	CALL SUBOPT_0xF2
00199d 940e 2624 	CALL __CWD1
00199f 940e 2495 	CALL __CDF1
0019a1 940e 1df8 	CALL SUBOPT_0x46
0019a3 940e 237d 	CALL SUBOPT_0xEC
0019a5 cfde      	RJMP _0x202001E
                 _0x2020020:
                 _0x20A0006:
0019a6 81ae      	LDD  R26,Y+6
0019a7 81bf      	LDD  R27,Y+6+1
0019a8 e0e0      	LDI  R30,LOW(0)
0019a9 93ec      	ST   X,R30
                 _0x20A0007:
0019aa 8119      	LDD  R17,Y+1
0019ab 8108      	LDD  R16,Y+0
0019ac 962d      	ADIW R28,13
0019ad 9508      	RET
                 
                 	.DSEG
                 
                 	.CSEG
                 
                 	.CSEG
                 _ftrunc:
0019ae 940e 26e0 	CALL __PUTPARD2
0019b0 817b         ldd  r23,y+3
0019b1 816a         ldd  r22,y+2
0019b2 81f9         ldd  r31,y+1
0019b3 81e8         ld   r30,y
0019b4 fb77         bst  r23,7
0019b5 0f77         lsl  r23
0019b6 fd67         sbrc r22,7
0019b7 6071         sbr  r23,1
0019b8 2f97         mov  r25,r23
0019b9 579e         subi r25,0x7e
0019ba f081         breq __ftrunc0
0019bb f078         brcs __ftrunc0
0019bc 3198         cpi  r25,24
0019bd f490         brsh __ftrunc1
0019be 27aa         clr  r26
0019bf 27bb         clr  r27
0019c0 2788         clr  r24
                 __ftrunc2:
0019c1 9408         sec
0019c2 9587         ror  r24
0019c3 95b7         ror  r27
0019c4 95a7         ror  r26
0019c5 959a         dec  r25
0019c6 f7d1         brne __ftrunc2
0019c7 23ea         and  r30,r26
0019c8 23fb         and  r31,r27
0019c9 2368         and  r22,r24
0019ca c005         rjmp __ftrunc1
                 __ftrunc0:
0019cb 94e8         clt
0019cc 2777         clr  r23
0019cd 27ee         clr  r30
0019ce 27ff         clr  r31
0019cf 2766         clr  r22
                 __ftrunc1:
0019d0 776f         cbr  r22,0x80
0019d1 9576         lsr  r23
0019d2 f408         brcc __ftrunc3
0019d3 6860         sbr  r22,0x80
                 __ftrunc3:
0019d4 f977         bld  r23,7
0019d5 91a9         ld   r26,y+
0019d6 91b9         ld   r27,y+
0019d7 9189         ld   r24,y+
0019d8 9199         ld   r25,y+
0019d9 17ea         cp   r30,r26
0019da 07fb         cpc  r31,r27
0019db 0768         cpc  r22,r24
0019dc 0779         cpc  r23,r25
0019dd fb97         bst  r25,7
0019de 9508         ret
                 _floor:
0019df 940e 23a6 	CALL SUBOPT_0xF3
0019e1 940e 19ae 	CALL _ftrunc
0019e3 940e 23ab 	CALL SUBOPT_0xF4
0019e5 f419          brne __floor1
                 __floor0:
0019e6 940e 23ae 	CALL SUBOPT_0xF5
0019e8 c163      	RJMP _0x20A0002
                 __floor1:
0019e9 f7e6          brtc __floor0
0019ea 940e 23b1 	CALL SUBOPT_0xF6
0019ec c15d      	RJMP _0x20A0004
                 _sin:
0019ed 940e 23b7 	CALL SUBOPT_0xF7
                +
0019ef e8e3     +LDI R30 , LOW ( 0x3E22F983 )
0019f0 eff9     +LDI R31 , HIGH ( 0x3E22F983 )
0019f1 e262     +LDI R22 , BYTE3 ( 0x3E22F983 )
0019f2 e37e     +LDI R23 , BYTE4 ( 0x3E22F983 )
                 	__GETD1N 0x3E22F983
0019f3 940e 251f 	CALL __MULF12
0019f5 940e 23c1 	CALL SUBOPT_0xF8
0019f7 dfe7      	RCALL _floor
0019f8 940e 23ca 	CALL SUBOPT_0xF9
0019fa 940e 1df8 	CALL SUBOPT_0x46
0019fc 940e 23c1 	CALL SUBOPT_0xF8
                +
0019fe e0e0     +LDI R30 , LOW ( 0x3F000000 )
0019ff e0f0     +LDI R31 , HIGH ( 0x3F000000 )
001a00 e060     +LDI R22 , BYTE3 ( 0x3F000000 )
001a01 e37f     +LDI R23 , BYTE4 ( 0x3F000000 )
                 	__GETD1N 0x3F000000
001a02 940e 25b2 	CALL __CMPF12
001a04 f009      	BREQ PC+2
001a05 f410      	BRCC PC+3
001a06 940c 1a11 	JMP  _0x2040017
001a08 940e 23cf 	CALL SUBOPT_0xFA
                +
001a0a e0a0     +LDI R26 , LOW ( 0x3F000000 )
001a0b e0b0     +LDI R27 , HIGH ( 0x3F000000 )
001a0c e080     +LDI R24 , BYTE3 ( 0x3F000000 )
001a0d e39f     +LDI R25 , BYTE4 ( 0x3F000000 )
                 	__GETD2N 0x3F000000
001a0e 940e 23d4 	CALL SUBOPT_0xFB
001a10 e011      	LDI  R17,LOW(1)
                 _0x2040017:
001a11 940e 23ca 	CALL SUBOPT_0xF9
                +
001a13 e0e0     +LDI R30 , LOW ( 0x3E800000 )
001a14 e0f0     +LDI R31 , HIGH ( 0x3E800000 )
001a15 e860     +LDI R22 , BYTE3 ( 0x3E800000 )
001a16 e37e     +LDI R23 , BYTE4 ( 0x3E800000 )
                 	__GETD1N 0x3E800000
001a17 940e 25b2 	CALL __CMPF12
001a19 f009      	BREQ PC+2
001a1a f410      	BRCC PC+3
001a1b 940c 1a25 	JMP  _0x2040018
001a1d 940e 23ca 	CALL SUBOPT_0xF9
                +
001a1f e0e0     +LDI R30 , LOW ( 0x3F000000 )
001a20 e0f0     +LDI R31 , HIGH ( 0x3F000000 )
001a21 e060     +LDI R22 , BYTE3 ( 0x3F000000 )
001a22 e37f     +LDI R23 , BYTE4 ( 0x3F000000 )
                 	__GETD1N 0x3F000000
001a23 940e 23d4 	CALL SUBOPT_0xFB
                 _0x2040018:
001a25 3010      	CPI  R17,0
001a26 f011      	BREQ _0x2040019
001a27 940e 23db 	CALL SUBOPT_0xFC
                 _0x2040019:
001a29 940e 23e3 	CALL SUBOPT_0xFD
                +
001a2b 83e9     +STD Y + 1 , R30
001a2c 83fa     +STD Y + 1 + 1 , R31
001a2d 836b     +STD Y + 1 + 2 , R22
001a2e 837c     +STD Y + 1 + 3 , R23
                 	__PUTD1S 1
001a2f 940e 23e8 	CALL SUBOPT_0xFE
                +
001a31 eba1     +LDI R26 , LOW ( 0x4226C4B1 )
001a32 ecb4     +LDI R27 , HIGH ( 0x4226C4B1 )
001a33 e286     +LDI R24 , BYTE3 ( 0x4226C4B1 )
001a34 e492     +LDI R25 , BYTE4 ( 0x4226C4B1 )
                 	__GETD2N 0x4226C4B1
001a35 940e 251f 	CALL __MULF12
001a37 01df      	MOVW R26,R30
001a38 01cb      	MOVW R24,R22
                +
001a39 e1ed     +LDI R30 , LOW ( 0x422DE51D )
001a3a eef5     +LDI R31 , HIGH ( 0x422DE51D )
001a3b e26d     +LDI R22 , BYTE3 ( 0x422DE51D )
001a3c e472     +LDI R23 , BYTE4 ( 0x422DE51D )
                 	__GETD1N 0x422DE51D
001a3d 940e 1df8 	CALL SUBOPT_0x46
001a3f 940e 23ed 	CALL SUBOPT_0xFF
                +
001a41 e4ac     +LDI R26 , LOW ( 0x4104534C )
001a42 e5b3     +LDI R27 , HIGH ( 0x4104534C )
001a43 e084     +LDI R24 , BYTE3 ( 0x4104534C )
001a44 e491     +LDI R25 , BYTE4 ( 0x4104534C )
                 	__GETD2N 0x4104534C
001a45 940e 24cf 	CALL __ADDF12
001a47 940e 23ca 	CALL SUBOPT_0xF9
001a49 940e 251f 	CALL __MULF12
001a4b 937f      	PUSH R23
001a4c 936f      	PUSH R22
001a4d 93ff      	PUSH R31
001a4e 93ef      	PUSH R30
001a4f 940e 23e8 	CALL SUBOPT_0xFE
                +
001a51 e1a1     +LDI R26 , LOW ( 0x3FDEED11 )
001a52 eebd     +LDI R27 , HIGH ( 0x3FDEED11 )
001a53 ed8e     +LDI R24 , BYTE3 ( 0x3FDEED11 )
001a54 e39f     +LDI R25 , BYTE4 ( 0x3FDEED11 )
                 	__GETD2N 0x3FDEED11
001a55 940e 24cf 	CALL __ADDF12
001a57 940e 23ed 	CALL SUBOPT_0xFF
                +
001a59 e5ae     +LDI R26 , LOW ( 0x3FA87B5E )
001a5a e7bb     +LDI R27 , HIGH ( 0x3FA87B5E )
001a5b ea88     +LDI R24 , BYTE3 ( 0x3FA87B5E )
001a5c e39f     +LDI R25 , BYTE4 ( 0x3FA87B5E )
                 	__GETD2N 0x3FA87B5E
001a5d 940e 24cf 	CALL __ADDF12
001a5f 91af      	POP  R26
001a60 91bf      	POP  R27
001a61 918f      	POP  R24
001a62 919f      	POP  R25
001a63 940e 256d 	CALL __DIVF21
001a65 c0c5      	RJMP _0x20A0005
                 _cos:
001a66 940e 23a6 	CALL SUBOPT_0xF3
                +
001a68 edeb     +LDI R30 , LOW ( 0x3FC90FDB )
001a69 e0ff     +LDI R31 , HIGH ( 0x3FC90FDB )
001a6a ec69     +LDI R22 , BYTE3 ( 0x3FC90FDB )
001a6b e37f     +LDI R23 , BYTE4 ( 0x3FC90FDB )
                 	__GETD1N 0x3FC90FDB
001a6c 940e 24c8 	CALL __SUBF12
001a6e 01df      	MOVW R26,R30
001a6f 01cb      	MOVW R24,R22
001a70 df7c      	RCALL _sin
001a71 c0da      	RJMP _0x20A0002
                 _xatan:
001a72 940e 26e0 	CALL __PUTPARD2
001a74 9724      	SBIW R28,4
001a75 940e 2302 	CALL SUBOPT_0xD9
001a77 940e 2313 	CALL SUBOPT_0xDC
001a79 940e 23ab 	CALL SUBOPT_0xF4
001a7b 940e 23ae 	CALL SUBOPT_0xF5
                +
001a7d e6a5     +LDI R26 , LOW ( 0x40CBD065 )
001a7e edb0     +LDI R27 , HIGH ( 0x40CBD065 )
001a7f ec8b     +LDI R24 , BYTE3 ( 0x40CBD065 )
001a80 e490     +LDI R25 , BYTE4 ( 0x40CBD065 )
                 	__GETD2N 0x40CBD065
001a81 940e 23f4 	CALL SUBOPT_0x100
001a83 940e 2313 	CALL SUBOPT_0xDC
001a85 937f      	PUSH R23
001a86 936f      	PUSH R22
001a87 93ff      	PUSH R31
001a88 93ef      	PUSH R30
001a89 940e 23ae 	CALL SUBOPT_0xF5
                +
001a8b e0a0     +LDI R26 , LOW ( 0x41296D00 )
001a8c e6bd     +LDI R27 , HIGH ( 0x41296D00 )
001a8d e289     +LDI R24 , BYTE3 ( 0x41296D00 )
001a8e e491     +LDI R25 , BYTE4 ( 0x41296D00 )
                 	__GETD2N 0x41296D00
001a8f 940e 24cf 	CALL __ADDF12
001a91 940e 23fd 	CALL SUBOPT_0x101
001a93 940e 23f4 	CALL SUBOPT_0x100
001a95 91af      	POP  R26
001a96 91bf      	POP  R27
001a97 918f      	POP  R24
001a98 919f      	POP  R25
001a99 940e 256d 	CALL __DIVF21
001a9b 9628      	ADIW R28,8
001a9c 9508      	RET
                 _yatan:
001a9d 940e 23a6 	CALL SUBOPT_0xF3
                +
001a9f eced     +LDI R30 , LOW ( 0x3ED413CD )
001aa0 e1f3     +LDI R31 , HIGH ( 0x3ED413CD )
001aa1 ed64     +LDI R22 , BYTE3 ( 0x3ED413CD )
001aa2 e37e     +LDI R23 , BYTE4 ( 0x3ED413CD )
                 	__GETD1N 0x3ED413CD
001aa3 940e 25b2 	CALL __CMPF12
001aa5 f420      	BRSH _0x2040020
001aa6 940e 23fd 	CALL SUBOPT_0x101
001aa8 dfc9      	RCALL _xatan
001aa9 c0a2      	RJMP _0x20A0002
                 _0x2040020:
001aaa 940e 23fd 	CALL SUBOPT_0x101
                +
001aac e7ea     +LDI R30 , LOW ( 0x401A827A )
001aad e8f2     +LDI R31 , HIGH ( 0x401A827A )
001aae e16a     +LDI R22 , BYTE3 ( 0x401A827A )
001aaf e470     +LDI R23 , BYTE4 ( 0x401A827A )
                 	__GETD1N 0x401A827A
001ab0 940e 25b2 	CALL __CMPF12
001ab2 f009      	BREQ PC+2
001ab3 f410      	BRCC PC+3
001ab4 940c 1abb 	JMP  _0x2040021
001ab6 940e 23b1 	CALL SUBOPT_0xF6
001ab8 940e 2400 	CALL SUBOPT_0x102
001aba c089      	RJMP _0x20A0003
                 _0x2040021:
001abb 940e 23b1 	CALL SUBOPT_0xF6
001abd 940e 24c8 	CALL __SUBF12
001abf 937f      	PUSH R23
001ac0 936f      	PUSH R22
001ac1 93ff      	PUSH R31
001ac2 93ef      	PUSH R30
001ac3 940e 23b1 	CALL SUBOPT_0xF6
001ac5 940e 24cf 	CALL __ADDF12
001ac7 91af      	POP  R26
001ac8 91bf      	POP  R27
001ac9 918f      	POP  R24
001aca 919f      	POP  R25
001acb 940e 2400 	CALL SUBOPT_0x102
                +
001acd edab     +LDI R26 , LOW ( 0x3F490FDB )
001ace e0bf     +LDI R27 , HIGH ( 0x3F490FDB )
001acf e489     +LDI R24 , BYTE3 ( 0x3F490FDB )
001ad0 e39f     +LDI R25 , BYTE4 ( 0x3F490FDB )
                 	__GETD2N 0x3F490FDB
001ad1 940e 24cf 	CALL __ADDF12
001ad3 c078      	RJMP _0x20A0002
                 _asin:
001ad4 940e 23b7 	CALL SUBOPT_0xF7
001ad6 940e 2406 	CALL SUBOPT_0x103
001ad8 f058      	BRLO _0x2040023
001ad9 940e 23ca 	CALL SUBOPT_0xF9
001adb 940e 239c 	CALL SUBOPT_0xF1
001add 940e 25b2 	CALL __CMPF12
001adf f019      	BREQ PC+4
001ae0 f010      	BRCS PC+3
001ae1 940c 1ae4 	JMP  _0x2040023
001ae3 c003      	RJMP _0x2040022
                 _0x2040023:
001ae4 940e 240d 	CALL SUBOPT_0x104
001ae6 c044      	RJMP _0x20A0005
                 _0x2040022:
001ae7 85a8      	LDD  R26,Y+8
001ae8 23aa      	TST  R26
001ae9 f41a      	BRPL _0x2040025
001aea 940e 23db 	CALL SUBOPT_0xFC
001aec e011      	LDI  R17,LOW(1)
                 _0x2040025:
001aed 940e 23e3 	CALL SUBOPT_0xFD
                +
001aef e0a0     +LDI R26 , LOW ( 0x3F800000 )
001af0 e0b0     +LDI R27 , HIGH ( 0x3F800000 )
001af1 e880     +LDI R24 , BYTE3 ( 0x3F800000 )
001af2 e39f     +LDI R25 , BYTE4 ( 0x3F800000 )
                 	__GETD2N 0x3F800000
001af3 940e 1df8 	CALL SUBOPT_0x46
001af5 01df      	MOVW R26,R30
001af6 01cb      	MOVW R24,R22
001af7 940e 25d2 	CALL _sqrt
                +
001af9 83e9     +STD Y + 1 , R30
001afa 83fa     +STD Y + 1 + 1 , R31
001afb 836b     +STD Y + 1 + 2 , R22
001afc 837c     +STD Y + 1 + 3 , R23
                 	__PUTD1S 1
001afd 940e 23ca 	CALL SUBOPT_0xF9
                +
001aff efe3     +LDI R30 , LOW ( 0x3F3504F3 )
001b00 e0f4     +LDI R31 , HIGH ( 0x3F3504F3 )
001b01 e365     +LDI R22 , BYTE3 ( 0x3F3504F3 )
001b02 e37f     +LDI R23 , BYTE4 ( 0x3F3504F3 )
                 	__GETD1N 0x3F3504F3
001b03 940e 25b2 	CALL __CMPF12
001b05 f009      	BREQ PC+2
001b06 f410      	BRCC PC+3
001b07 940c 1b18 	JMP  _0x2040026
001b09 940e 23cf 	CALL SUBOPT_0xFA
                +
001b0b 81a9     +LDD R26 , Y + 1
001b0c 81ba     +LDD R27 , Y + 1 + 1
001b0d 818b     +LDD R24 , Y + 1 + 2
001b0e 819c     +LDD R25 , Y + 1 + 3
                 	__GETD2S 1
001b0f 940e 2412 	CALL SUBOPT_0x105
                +
001b11 edab     +LDI R26 , LOW ( 0x3FC90FDB )
001b12 e0bf     +LDI R27 , HIGH ( 0x3FC90FDB )
001b13 ec89     +LDI R24 , BYTE3 ( 0x3FC90FDB )
001b14 e39f     +LDI R25 , BYTE4 ( 0x3FC90FDB )
                 	__GETD2N 0x3FC90FDB
001b15 940e 1df8 	CALL SUBOPT_0x46
001b17 c006      	RJMP _0x2040035
                 _0x2040026:
001b18 940e 23e8 	CALL SUBOPT_0xFE
001b1a 940e 23ca 	CALL SUBOPT_0xF9
001b1c 940e 2412 	CALL SUBOPT_0x105
                 _0x2040035:
                +
001b1e 83e9     +STD Y + 1 , R30
001b1f 83fa     +STD Y + 1 + 1 , R31
001b20 836b     +STD Y + 1 + 2 , R22
001b21 837c     +STD Y + 1 + 3 , R23
                 	__PUTD1S 1
001b22 3010      	CPI  R17,0
001b23 f029      	BREQ _0x2040028
001b24 940e 23e8 	CALL SUBOPT_0xFE
001b26 940e 2429 	CALL __ANEGF1
001b28 c002      	RJMP _0x20A0005
                 _0x2040028:
001b29 940e 23e8 	CALL SUBOPT_0xFE
                 _0x20A0005:
001b2b 8118      	LDD  R17,Y+0
001b2c 9629      	ADIW R28,9
001b2d 9508      	RET
                 _acos:
001b2e 940e 23a6 	CALL SUBOPT_0xF3
001b30 940e 2406 	CALL SUBOPT_0x103
001b32 f058      	BRLO _0x204002A
001b33 940e 23fd 	CALL SUBOPT_0x101
001b35 940e 239c 	CALL SUBOPT_0xF1
001b37 940e 25b2 	CALL __CMPF12
001b39 f019      	BREQ PC+4
001b3a f010      	BRCS PC+3
001b3b 940c 1b3e 	JMP  _0x204002A
001b3d c003      	RJMP _0x2040029
                 _0x204002A:
001b3e 940e 240d 	CALL SUBOPT_0x104
001b40 c00b      	RJMP _0x20A0002
                 _0x2040029:
001b41 940e 23fd 	CALL SUBOPT_0x101
001b43 df90      	RCALL _asin
                 _0x20A0003:
                +
001b44 edab     +LDI R26 , LOW ( 0x3FC90FDB )
001b45 e0bf     +LDI R27 , HIGH ( 0x3FC90FDB )
001b46 ec89     +LDI R24 , BYTE3 ( 0x3FC90FDB )
001b47 e39f     +LDI R25 , BYTE4 ( 0x3FC90FDB )
                 	__GETD2N 0x3FC90FDB
001b48 940e 26e5 	CALL __SWAPD12
                 _0x20A0004:
001b4a 940e 24c8 	CALL __SUBF12
                 _0x20A0002:
001b4c 9624      	ADIW R28,4
001b4d 9508      	RET
                 _atan2:
001b4e 940e 26e0 	CALL __PUTPARD2
001b50 9724      	SBIW R28,4
001b51 940e 2302 	CALL SUBOPT_0xD9
001b53 940e 2702 	CALL __CPD10
001b55 f4d9      	BRNE _0x204002D
                +
001b56 85e8     +LDD R30 , Y + 8
001b57 85f9     +LDD R31 , Y + 8 + 1
001b58 856a     +LDD R22 , Y + 8 + 2
001b59 857b     +LDD R23 , Y + 8 + 3
                 	__GETD1S 8
001b5a 940e 2702 	CALL __CPD10
001b5c f419      	BRNE _0x204002E
001b5d 940e 240d 	CALL SUBOPT_0x104
001b5f c041      	RJMP _0x20A0001
                 _0x204002E:
                +
001b60 85a8     +LDD R26 , Y + 8
001b61 85b9     +LDD R27 , Y + 8 + 1
001b62 858a     +LDD R24 , Y + 8 + 2
001b63 859b     +LDD R25 , Y + 8 + 3
                 	__GETD2S 8
001b64 940e 270a 	CALL __CPD02
001b66 f42c      	BRGE _0x204002F
                +
001b67 edeb     +LDI R30 , LOW ( 0x3FC90FDB )
001b68 e0ff     +LDI R31 , HIGH ( 0x3FC90FDB )
001b69 ec69     +LDI R22 , BYTE3 ( 0x3FC90FDB )
001b6a e37f     +LDI R23 , BYTE4 ( 0x3FC90FDB )
                 	__GETD1N 0x3FC90FDB
001b6b c035      	RJMP _0x20A0001
                 _0x204002F:
                +
001b6c edeb     +LDI R30 , LOW ( 0xBFC90FDB )
001b6d e0ff     +LDI R31 , HIGH ( 0xBFC90FDB )
001b6e ec69     +LDI R22 , BYTE3 ( 0xBFC90FDB )
001b6f eb7f     +LDI R23 , BYTE4 ( 0xBFC90FDB )
                 	__GETD1N 0xBFC90FDB
001b70 c030      	RJMP _0x20A0001
                 _0x204002D:
001b71 940e 2302 	CALL SUBOPT_0xD9
                +
001b73 85a8     +LDD R26 , Y + 8
001b74 85b9     +LDD R27 , Y + 8 + 1
001b75 858a     +LDD R24 , Y + 8 + 2
001b76 859b     +LDD R25 , Y + 8 + 3
                 	__GETD2S 8
001b77 940e 256d 	CALL __DIVF21
001b79 940e 23ab 	CALL SUBOPT_0xF4
001b7b 940e 22f6 	CALL SUBOPT_0xD7
001b7d 940e 270a 	CALL __CPD02
001b7f f464      	BRGE _0x2040030
001b80 85ab      	LDD  R26,Y+11
001b81 23aa      	TST  R26
001b82 f022      	BRMI _0x2040031
001b83 940e 23fd 	CALL SUBOPT_0x101
001b85 df17      	RCALL _yatan
001b86 c01a      	RJMP _0x20A0001
                 _0x2040031:
001b87 940e 2418 	CALL SUBOPT_0x106
001b89 940e 2429 	CALL __ANEGF1
001b8b c015      	RJMP _0x20A0001
                 _0x2040030:
001b8c 85ab      	LDD  R26,Y+11
001b8d 23aa      	TST  R26
001b8e f04a      	BRMI _0x2040032
001b8f 940e 2418 	CALL SUBOPT_0x106
                +
001b91 edab     +LDI R26 , LOW ( 0x40490FDB )
001b92 e0bf     +LDI R27 , HIGH ( 0x40490FDB )
001b93 e489     +LDI R24 , BYTE3 ( 0x40490FDB )
001b94 e490     +LDI R25 , BYTE4 ( 0x40490FDB )
                 	__GETD2N 0x40490FDB
001b95 940e 1df8 	CALL SUBOPT_0x46
001b97 c009      	RJMP _0x20A0001
                 _0x2040032:
001b98 940e 23fd 	CALL SUBOPT_0x101
001b9a df02      	RCALL _yatan
                +
001b9b edab     +LDI R26 , LOW ( 0xC0490FDB )
001b9c e0bf     +LDI R27 , HIGH ( 0xC0490FDB )
001b9d e489     +LDI R24 , BYTE3 ( 0xC0490FDB )
001b9e ec90     +LDI R25 , BYTE4 ( 0xC0490FDB )
                 	__GETD2N 0xC0490FDB
001b9f 940e 24cf 	CALL __ADDF12
                 _0x20A0001:
001ba1 962c      	ADIW R28,12
001ba2 9508      	RET
                 
                 	.CSEG
                 _isdigit:
001ba3 93aa      	ST   -Y,R26
001ba4 e0e1          ldi  r30,1
001ba5 91f9          ld   r31,y+
001ba6 33f0          cpi  r31,'0'
001ba7 f010          brlo isdigit0
001ba8 33fa          cpi  r31,'9'+1
001ba9 f008          brlo isdigit1
                 isdigit0:
001baa 27ee          clr  r30
                 isdigit1:
001bab 9508          ret
                 _isspace:
001bac 93aa      	ST   -Y,R26
001bad e0e1          ldi  r30,1
001bae 91f9          ld   r31,y+
001baf 32f0          cpi  r31,' '
001bb0 f029          breq isspace1
001bb1 30f9          cpi  r31,9
001bb2 f010          brlo isspace0
001bb3 30fe          cpi  r31,13+1
001bb4 f008          brlo isspace1
                 isspace0:
001bb5 27ee          clr  r30
                 isspace1:
001bb6 9508          ret
                 
                 	.CSEG
                 _strcpyf:
001bb7 93ba      	ST   -Y,R27
001bb8 93aa      	ST   -Y,R26
001bb9 91e9          ld   r30,y+
001bba 91f9          ld   r31,y+
001bbb 91a9          ld   r26,y+
001bbc 91b9          ld   r27,y+
001bbd 01cd          movw r24,r26
                 strcpyf0:
001bbe 9005      	lpm  r0,z+
001bbf 920d          st   x+,r0
001bc0 2000          tst  r0
001bc1 f7e1          brne strcpyf0
001bc2 01fc          movw r30,r24
001bc3 9508          ret
                 _strlen:
001bc4 93ba      	ST   -Y,R27
001bc5 93aa      	ST   -Y,R26
001bc6 91a9          ld   r26,y+
001bc7 91b9          ld   r27,y+
001bc8 27ee          clr  r30
001bc9 27ff          clr  r31
                 strlen0:
001bca 916d          ld   r22,x+
001bcb 2366          tst  r22
001bcc f011          breq strlen1
001bcd 9631          adiw r30,1
001bce cffb          rjmp strlen0
                 strlen1:
001bcf 9508          ret
                 _strlenf:
001bd0 93ba      	ST   -Y,R27
001bd1 93aa      	ST   -Y,R26
001bd2 27aa          clr  r26
001bd3 27bb          clr  r27
001bd4 91e9          ld   r30,y+
001bd5 91f9          ld   r31,y+
                 strlenf0:
001bd6 9005      	lpm  r0,z+
001bd7 2000          tst  r0
001bd8 f011          breq strlenf1
001bd9 9611          adiw r26,1
001bda cffb          rjmp strlenf0
                 strlenf1:
001bdb 01fd          movw r30,r26
001bdc 9508          ret
                 
                 	.DSEG
                 _servoInitError:
000a00           	.BYTE 0x28
                 
                 	.ESEG
                 _eServoInitError:
000000 dd
000001 ff
000002 17
000003 00        	.DB  0xDD,0xFF,0x17,0x0
000004 f5
000005 ff
000006 e9
000007 ff        	.DB  0xF5,0xFF,0xE9,0xFF
000008 d3
000009 ff
00000a 00
00000b 00        	.DB  0xD3,0xFF,0x0,0x0
00000c 2f
00000d 00
00000e f0
00000f ff        	.DB  0x2F,0x0,0xF0,0xFF
000010 19
000011 00
000012 b9
000013 ff        	.DB  0x19,0x0,0xB9,0xFF
000014 32
000015 00
000016 00
000017 00        	.DB  0x32,0x0,0x0,0x0
000018 00
000019 00
00001a 00
00001b 00        	.DB  0x0,0x0,0x0,0x0
00001c 00
00001d 00
00001e 00
00001f 00        	.DB  0x0,0x0,0x0,0x0
000020 00
000021 00
000022 00
000023 00        	.DB  0x0,0x0,0x0,0x0
000024 00
000025 00
000026 00
000027 00        	.DB  0x0,0x0,0x0,0x0
                 
                 	.DSEG
                 _servo:
000a28           	.BYTE 0x28
                 _servoSet:
000a50           	.BYTE 0x28
                 _counterTG:
000a78           	.BYTE 0x2
                 _counterDelay:
000a7a           	.BYTE 0x2
                 _countGerakan:
000a7c           	.BYTE 0x2
                 _I:
000a7e           	.BYTE 0x2
                 _index:
000a80           	.BYTE 0x2
                 _langkah:
000a82           	.BYTE 0x2
                 _langkahMax:
000a84           	.BYTE 0x2
                 _jumlahGerak:
000a86           	.BYTE 0x2
                 _speed:
000a88           	.BYTE 0x2
                 _countNo:
000a8a           	.BYTE 0x2
                 _VX:
000a8c           	.BYTE 0x4
                 _VY:
000a90           	.BYTE 0x4
                 _VZ:
000a94           	.BYTE 0x4
                 _W:
000a98           	.BYTE 0x4
                 _initPositionX:
000a9c           	.BYTE 0x4
                 _initPositionY:
000aa0           	.BYTE 0x4
                 _initPositionZ:
000aa4           	.BYTE 0x4
                 _L1:
000aa8           	.BYTE 0x4
                 _L2:
000aac           	.BYTE 0x4
                 _L3:
000ab0           	.BYTE 0x4
                 _L4:
000ab4           	.BYTE 0x4
                 _X:
000ab8           	.BYTE 0x8
                 _Y:
000ac0           	.BYTE 0x8
                 _Z:
000ac8           	.BYTE 0x8
                 _Xset:
000ad0           	.BYTE 0x8
                 _Yset:
000ad8           	.BYTE 0x8
                 _Zset:
000ae0           	.BYTE 0x8
                 _Xerror:
000ae8           	.BYTE 0x8
                 _Yerror:
000af0           	.BYTE 0x8
                 _Zerror:
000af8           	.BYTE 0x8
                 _L1Kuadrat:
000b00           	.BYTE 0x4
                 _L2Kuadrat:
000b04           	.BYTE 0x4
                 _L3Kuadrat:
000b08           	.BYTE 0x4
                 _L4Kuadrat:
000b0c           	.BYTE 0x4
                 _XiKuadrat:
000b10           	.BYTE 0x4
                 _YiKuadrat:
000b14           	.BYTE 0x4
                 _ZiKuadrat:
000b18           	.BYTE 0x4
                 _bi:
000b1c           	.BYTE 0x4
                 _biKuadrat:
000b20           	.BYTE 0x4
                 _ai:
000b24           	.BYTE 0x4
                 _aiKuadrat:
000b28           	.BYTE 0x4
                 _ci:
000b2c           	.BYTE 0x4
                 _gamai:
000b30           	.BYTE 0x4
                 _betai:
000b34           	.BYTE 0x4
                 _alphai:
000b38           	.BYTE 0x8
                 _A1:
000b40           	.BYTE 0x8
                 _A2:
000b48           	.BYTE 0x8
                 _A3:
000b50           	.BYTE 0x8
                 _A5:
000b58           	.BYTE 0x8
                 _rad:
000b60           	.BYTE 0x4
                 _sudutSet:
000b64           	.BYTE 0x50
                 _state:
000bb4           	.BYTE 0x2
                 _cariBola:
000bb6           	.BYTE 0x2
                 _jalan:
000bb8           	.BYTE 0x2
                 _de:
000bba           	.BYTE 0x2
                 _kondisiAmbrukDepan:
000bbc           	.BYTE 0x2
                 _kondisiAmbrukBelakang:
000bbe           	.BYTE 0x2
                 _hitungNgawur:
000bc0           	.BYTE 0x2
                 _delayNgawur:
000bc2           	.BYTE 0x2
                 _hitungWaras:
000bc4           	.BYTE 0x2
                 _delayWaras:
000bc6           	.BYTE 0x2
                 _hitungTendang:
000bc8           	.BYTE 0x2
                 _spx:
000bca           	.BYTE 0x2
                 _spy:
000bcc           	.BYTE 0x2
                 _errorx:
000bce           	.BYTE 0x2
                 _errory:
000bd0           	.BYTE 0x2
                 _px:
000bd2           	.BYTE 0x2
                 _py:
000bd4           	.BYTE 0x2
                 _mvx:
000bd6           	.BYTE 0x2
                 _mvy:
000bd8           	.BYTE 0x2
                 _sudah:
000bda           	.BYTE 0x2
                 _Timeslot2:
000bdc           	.BYTE 0x1
                 _miringDepan:
000bdd           	.BYTE 0x2
                 _miringSamping:
000bdf           	.BYTE 0x2
                 _kompas:
000be1           	.BYTE 0x2
                 _pos_x:
000be3           	.BYTE 0x2
                 _pos_y:
000be5           	.BYTE 0x2
                 _DataMasuk:
000be7           	.BYTE 0xA
                 _DataRx:
000bf1           	.BYTE 0x1
                 _CountRx:
000bf2           	.BYTE 0x1
                 _count:
000bf3           	.BYTE 0x2
                 _hitung:
000bf5           	.BYTE 0x2
                 _countBall:
000bf7           	.BYTE 0x2
                 _Ball:
000bf9           	.BYTE 0x2
                 _xx:
000bfb           	.BYTE 0x2
                 _yy:
000bfd           	.BYTE 0x2
                 _DataR1:
000bff           	.BYTE 0x4
                 _DataR2:
000c03           	.BYTE 0x4
                 _CountR1:
000c07           	.BYTE 0x1
                 _CountR0:
000c08           	.BYTE 0x1
                 _DataRRx:
000c09           	.BYTE 0x1
                 __seed_G101:
000c0a           	.BYTE 0x4
                 
                 	.CSEG
                 ;OPTIMIZER ADDED SUBROUTINE, CALLED 2 TIMES, CODE SIZE REDUCTION:2 WORDS
                 SUBOPT_0x0:
001bdd 920a      	ST   -Y,R0
001bde 93aa      	ST   -Y,R26
001bdf 93ba      	ST   -Y,R27
001be0 93ea      	ST   -Y,R30
001be1 93fa      	ST   -Y,R31
001be2 b7ef      	IN   R30,SREG
001be3 93ea      	ST   -Y,R30
001be4 9508      	RET
                 
                 ;OPTIMIZER ADDED SUBROUTINE, CALLED 14 TIMES, CODE SIZE REDUCTION:36 WORDS
                 SUBOPT_0x1:
001be5 91ed      	LD   R30,X+
001be6 91fd      	LD   R31,X+
001be7 9631      	ADIW R30,1
001be8 93fe      	ST   -X,R31
001be9 93ee      	ST   -X,R30
001bea 9508      	RET
                 
                 ;OPTIMIZER ADDED SUBROUTINE, CALLED 7 TIMES, CODE SIZE REDUCTION:21 WORDS
                 SUBOPT_0x2:
001beb 91a0 0a7a 	LDS  R26,_counterDelay
001bed 91b0 0a7b 	LDS  R27,_counterDelay+1
001bef 940e 2706 	CALL __CPW02
001bf1 9508      	RET
                 
                 ;OPTIMIZER ADDED SUBROUTINE, CALLED 6 TIMES, CODE SIZE REDUCTION:12 WORDS
                 SUBOPT_0x3:
001bf2 91ed      	LD   R30,X+
001bf3 91fd      	LD   R31,X+
001bf4 9731      	SBIW R30,1
001bf5 93fe      	ST   -X,R31
001bf6 93ee      	ST   -X,R30
001bf7 9508      	RET
                 
                 ;OPTIMIZER ADDED SUBROUTINE, CALLED 2 TIMES, CODE SIZE REDUCTION:2 WORDS
                 SUBOPT_0x4:
001bf8 91e9      	LD   R30,Y+
001bf9 bfef      	OUT  SREG,R30
001bfa 91f9      	LD   R31,Y+
001bfb 91e9      	LD   R30,Y+
001bfc 91b9      	LD   R27,Y+
001bfd 91a9      	LD   R26,Y+
001bfe 9009      	LD   R0,Y+
001bff 9508      	RET
                 
                 ;OPTIMIZER ADDED SUBROUTINE, CALLED 2 TIMES, CODE SIZE REDUCTION:3 WORDS
                 SUBOPT_0x5:
001c00 91a0 0aa8 	LDS  R26,_L1
001c02 91b0 0aa9 	LDS  R27,_L1+1
001c04 9180 0aaa 	LDS  R24,_L1+2
001c06 9190 0aab 	LDS  R25,_L1+3
001c08 9508      	RET
                 
                 ;OPTIMIZER ADDED SUBROUTINE, CALLED 3 TIMES, CODE SIZE REDUCTION:9 WORDS
                 SUBOPT_0x6:
001c09 91e0 0aac 	LDS  R30,_L2
001c0b 91f0 0aad 	LDS  R31,_L2+1
001c0d 9160 0aae 	LDS  R22,_L2+2
001c0f 9170 0aaf 	LDS  R23,_L2+3
001c11 9508      	RET
                 
                 ;OPTIMIZER ADDED SUBROUTINE, CALLED 2 TIMES, CODE SIZE REDUCTION:3 WORDS
                 SUBOPT_0x7:
001c12 91a0 0aac 	LDS  R26,_L2
001c14 91b0 0aad 	LDS  R27,_L2+1
001c16 9180 0aae 	LDS  R24,_L2+2
001c18 9190 0aaf 	LDS  R25,_L2+3
001c1a 9508      	RET
                 
                 ;OPTIMIZER ADDED SUBROUTINE, CALLED 4 TIMES, CODE SIZE REDUCTION:21 WORDS
                 SUBOPT_0x8:
001c1b 91a0 0ab0 	LDS  R26,_L3
001c1d 91b0 0ab1 	LDS  R27,_L3+1
001c1f 9180 0ab2 	LDS  R24,_L3+2
001c21 9190 0ab3 	LDS  R25,_L3+3
001c23 940e 251f 	CALL __MULF12
001c25 9508      	RET
                 
                 ;OPTIMIZER ADDED SUBROUTINE, CALLED 2 TIMES, CODE SIZE REDUCTION:3 WORDS
                 SUBOPT_0x9:
001c26 91a0 0ab4 	LDS  R26,_L4
001c28 91b0 0ab5 	LDS  R27,_L4+1
001c2a 9180 0ab6 	LDS  R24,_L4+2
001c2c 9190 0ab7 	LDS  R25,_L4+3
001c2e 9508      	RET
                 
                 ;OPTIMIZER ADDED SUBROUTINE, CALLED 6 TIMES, CODE SIZE REDUCTION:12 WORDS
                 SUBOPT_0xA:
001c2f e0e0      	LDI  R30,LOW(0)
001c30 93e0 0a8a 	STS  _countNo,R30
001c32 93e0 0a8b 	STS  _countNo+1,R30
001c34 9508      	RET
                 
                 ;OPTIMIZER ADDED SUBROUTINE, CALLED 4 TIMES, CODE SIZE REDUCTION:6 WORDS
                 SUBOPT_0xB:
001c35 91a0 0a8a 	LDS  R26,_countNo
001c37 91b0 0a8b 	LDS  R27,_countNo+1
001c39 9712      	SBIW R26,2
001c3a 9508      	RET
                 
                 ;OPTIMIZER ADDED SUBROUTINE, CALLED 29 TIMES, CODE SIZE REDUCTION:53 WORDS
                 SUBOPT_0xC:
001c3b 91e0 0a8a 	LDS  R30,_countNo
001c3d 91f0 0a8b 	LDS  R31,_countNo+1
001c3f 9508      	RET
                 
                 ;OPTIMIZER ADDED SUBROUTINE, CALLED 5 TIMES, CODE SIZE REDUCTION:5 WORDS
                 SUBOPT_0xD:
001c40 eda0      	LDI  R26,LOW(_Xset)
001c41 e0ba      	LDI  R27,HIGH(_Xset)
001c42 940e 2619 	CALL __LSLW2
001c44 9508      	RET
                 
                 ;OPTIMIZER ADDED SUBROUTINE, CALLED 2 TIMES, CODE SIZE REDUCTION:3 WORDS
                 SUBOPT_0xE:
001c45 91a0 0a9c 	LDS  R26,_initPositionX
001c47 91b0 0a9d 	LDS  R27,_initPositionX+1
001c49 9180 0a9e 	LDS  R24,_initPositionX+2
001c4b 9190 0a9f 	LDS  R25,_initPositionX+3
001c4d 9508      	RET
                 
                 ;OPTIMIZER ADDED SUBROUTINE, CALLED 2 TIMES, CODE SIZE REDUCTION:1 WORDS
                 SUBOPT_0xF:
001c4e 940e 26d6 	CALL __PUTDZ20
001c50 cfea      	RJMP SUBOPT_0xC
                 
                 ;OPTIMIZER ADDED SUBROUTINE, CALLED 5 TIMES, CODE SIZE REDUCTION:5 WORDS
                 SUBOPT_0x10:
001c51 eda8      	LDI  R26,LOW(_Yset)
001c52 e0ba      	LDI  R27,HIGH(_Yset)
001c53 940e 2619 	CALL __LSLW2
001c55 9508      	RET
                 
                 ;OPTIMIZER ADDED SUBROUTINE, CALLED 2 TIMES, CODE SIZE REDUCTION:3 WORDS
                 SUBOPT_0x11:
001c56 91a0 0aa0 	LDS  R26,_initPositionY
001c58 91b0 0aa1 	LDS  R27,_initPositionY+1
001c5a 9180 0aa2 	LDS  R24,_initPositionY+2
001c5c 9190 0aa3 	LDS  R25,_initPositionY+3
001c5e 9508      	RET
                 
                 ;OPTIMIZER ADDED SUBROUTINE, CALLED 5 TIMES, CODE SIZE REDUCTION:5 WORDS
                 SUBOPT_0x12:
001c5f eea0      	LDI  R26,LOW(_Zset)
001c60 e0ba      	LDI  R27,HIGH(_Zset)
001c61 940e 2619 	CALL __LSLW2
001c63 9508      	RET
                 
                 ;OPTIMIZER ADDED SUBROUTINE, CALLED 2 TIMES, CODE SIZE REDUCTION:3 WORDS
                 SUBOPT_0x13:
001c64 91a0 0aa4 	LDS  R26,_initPositionZ
001c66 91b0 0aa5 	LDS  R27,_initPositionZ+1
001c68 9180 0aa6 	LDS  R24,_initPositionZ+2
001c6a 9190 0aa7 	LDS  R25,_initPositionZ+3
001c6c 9508      	RET
                 
                 ;OPTIMIZER ADDED SUBROUTINE, CALLED 59 TIMES, CODE SIZE REDUCTION:113 WORDS
                 SUBOPT_0x14:
001c6d 940e 26d6 	CALL __PUTDZ20
001c6f 9508      	RET
                 
                 ;OPTIMIZER ADDED SUBROUTINE, CALLED 6 TIMES, CODE SIZE REDUCTION:7 WORDS
                 SUBOPT_0x15:
001c70 e8aa      	LDI  R26,LOW(_countNo)
001c71 e0ba      	LDI  R27,HIGH(_countNo)
001c72 cf72      	RJMP SUBOPT_0x1
                 
                 ;OPTIMIZER ADDED SUBROUTINE, CALLED 4 TIMES, CODE SIZE REDUCTION:144 WORDS
                 SUBOPT_0x16:
001c73 e0e0      	LDI  R30,LOW(0)
001c74 93e0 0ab8 	STS  _X,R30
001c76 93e0 0ab9 	STS  _X+1,R30
001c78 93e0 0aba 	STS  _X+2,R30
001c7a 93e0 0abb 	STS  _X+3,R30
001c7c 93e0 0ac0 	STS  _Y,R30
001c7e 93e0 0ac1 	STS  _Y+1,R30
001c80 93e0 0ac2 	STS  _Y+2,R30
001c82 93e0 0ac3 	STS  _Y+3,R30
001c84 93e0 0ac8 	STS  _Z,R30
001c86 93e0 0ac9 	STS  _Z+1,R30
001c88 93e0 0aca 	STS  _Z+2,R30
001c8a 93e0 0acb 	STS  _Z+3,R30
                +
001c8c ebec     +LDI R30 , LOW ( _X + ( 4 ) )
001c8d e0fa     +LDI R31 , HIGH ( _X + ( 4 ) )
                 	__POINTW1MN _X,4
                +
001c8e e0a0     +LDI R26 , LOW ( 0x0 )
001c8f e0b0     +LDI R27 , HIGH ( 0x0 )
001c90 e080     +LDI R24 , BYTE3 ( 0x0 )
001c91 e090     +LDI R25 , BYTE4 ( 0x0 )
                 	__GETD2N 0x0
001c92 dfda      	RCALL SUBOPT_0x14
                +
001c93 ece4     +LDI R30 , LOW ( _Y + ( 4 ) )
001c94 e0fa     +LDI R31 , HIGH ( _Y + ( 4 ) )
                 	__POINTW1MN _Y,4
                +
001c95 e0a0     +LDI R26 , LOW ( 0x0 )
001c96 e0b0     +LDI R27 , HIGH ( 0x0 )
001c97 e080     +LDI R24 , BYTE3 ( 0x0 )
001c98 e090     +LDI R25 , BYTE4 ( 0x0 )
                 	__GETD2N 0x0
001c99 dfd3      	RCALL SUBOPT_0x14
                +
001c9a ecec     +LDI R30 , LOW ( _Z + ( 4 ) )
001c9b e0fa     +LDI R31 , HIGH ( _Z + ( 4 ) )
                 	__POINTW1MN _Z,4
                +
001c9c e0a0     +LDI R26 , LOW ( 0x0 )
001c9d e0b0     +LDI R27 , HIGH ( 0x0 )
001c9e e080     +LDI R24 , BYTE3 ( 0x0 )
001c9f e090     +LDI R25 , BYTE4 ( 0x0 )
                 	__GETD2N 0x0
001ca0 cfcc      	RJMP SUBOPT_0x14
                 
                 ;OPTIMIZER ADDED SUBROUTINE, CALLED 6 TIMES, CODE SIZE REDUCTION:7 WORDS
                 SUBOPT_0x17:
001ca1 0fee      	LSL  R30
001ca2 1fff      	ROL  R31
001ca3 0fae      	ADD  R26,R30
001ca4 1fbf      	ADC  R27,R31
001ca5 9508      	RET
                 
                 ;OPTIMIZER ADDED SUBROUTINE, CALLED 5 TIMES, CODE SIZE REDUCTION:9 WORDS
                 SUBOPT_0x18:
001ca6 93aa      	ST   -Y,R26
001ca7 93ea      	ST   -Y,R30
001ca8 93fa      	ST   -Y,R31
001ca9 b7ef      	IN   R30,SREG
001caa 93ea      	ST   -Y,R30
001cab 9508      	RET
                 
                 ;OPTIMIZER ADDED SUBROUTINE, CALLED 8 TIMES, CODE SIZE REDUCTION:11 WORDS
                 SUBOPT_0x19:
001cac e0f0      	LDI  R31,0
001cad 9730      	SBIW R30,0
001cae 9508      	RET
                 
                 ;OPTIMIZER ADDED SUBROUTINE, CALLED 2 TIMES, CODE SIZE REDUCTION:4 WORDS
                 SUBOPT_0x1A:
001caf e0e2      	LDI  R30,LOW(2)
001cb0 9fea      	MUL  R30,R26
001cb1 01f0      	MOVW R30,R0
001cb2 5be4      	SUBI R30,LOW(180)
001cb3 40f0      	SBCI R31,HIGH(180)
001cb4 efaf      	LDI  R26,LOW(65535)
001cb5 efbf      	LDI  R27,HIGH(65535)
001cb6 940e 2639 	CALL __MULW12
001cb8 9508      	RET
                 
                 ;OPTIMIZER ADDED SUBROUTINE, CALLED 20 TIMES, CODE SIZE REDUCTION:35 WORDS
                 SUBOPT_0x1B:
001cb9 0fea      	ADD  R30,R26
001cba 1ffb      	ADC  R31,R27
001cbb 0fee      	LSL  R30
001cbc 1fff      	ROL  R31
001cbd 9508      	RET
                 
                 ;OPTIMIZER ADDED SUBROUTINE, CALLED 20 TIMES, CODE SIZE REDUCTION:35 WORDS
                 SUBOPT_0x1C:
001cbe 57e0      	SUBI R30,LOW(-59536)
001cbf 41f7      	SBCI R31,HIGH(-59536)
001cc0 2fef      	MOV  R30,R31
001cc1 e0f0      	LDI  R31,0
001cc2 9508      	RET
                 
                 ;OPTIMIZER ADDED SUBROUTINE, CALLED 4 TIMES, CODE SIZE REDUCTION:6 WORDS
                 SUBOPT_0x1D:
001cc3 0fea      	ADD  R30,R26
001cc4 0fee      	LSL  R30
001cc5 57e0      	SUBI R30,-LOW(144)
001cc6 93e0 0088 	STS  136,R30
001cc8 9508      	RET
                 
                 ;OPTIMIZER ADDED SUBROUTINE, CALLED 5 TIMES, CODE SIZE REDUCTION:21 WORDS
                 SUBOPT_0x1E:
001cc9 e7a0      	LDI  R26,LOW(6000)
001cca e1b7      	LDI  R27,HIGH(6000)
001ccb 940e 26eb 	CALL __SWAPW12
001ccd 1bea      	SUB  R30,R26
001cce 0bfb      	SBC  R31,R27
001ccf cfee      	RJMP SUBOPT_0x1C
                 
                 ;OPTIMIZER ADDED SUBROUTINE, CALLED 3 TIMES, CODE SIZE REDUCTION:23 WORDS
                 SUBOPT_0x1F:
001cd0 0fea      	ADD  R30,R26
001cd1 0fee      	LSL  R30
001cd2 e7a0      	LDI  R26,LOW(112)
001cd3 940e 26ee 	CALL __SWAPB12
001cd5 1bea      	SUB  R30,R26
001cd6 57e0      	SUBI R30,-LOW(144)
001cd7 93e0 008a 	STS  138,R30
001cd9 eee8      	LDI  R30,LOW(232)
001cda 93e0 0085 	STS  133,R30
001cdc e9e0      	LDI  R30,LOW(144)
001cdd 93e0 0084 	STS  132,R30
001cdf 9508      	RET
                 
                 ;OPTIMIZER ADDED SUBROUTINE, CALLED 2 TIMES, CODE SIZE REDUCTION:4 WORDS
                 SUBOPT_0x20:
001ce0 0fea      	ADD  R30,R26
001ce1 0fee      	LSL  R30
001ce2 e7a0      	LDI  R26,LOW(112)
001ce3 940e 26ee 	CALL __SWAPB12
001ce5 1bea      	SUB  R30,R26
001ce6 57e0      	SUBI R30,-LOW(144)
001ce7 93e0 0088 	STS  136,R30
001ce9 9508      	RET
                 
                 ;OPTIMIZER ADDED SUBROUTINE, CALLED 3 TIMES, CODE SIZE REDUCTION:15 WORDS
                 SUBOPT_0x21:
001cea 0fea      	ADD  R30,R26
001ceb 0fee      	LSL  R30
001cec 57e0      	SUBI R30,-LOW(144)
001ced 93e0 008a 	STS  138,R30
001cef eee8      	LDI  R30,LOW(232)
001cf0 93e0 0085 	STS  133,R30
001cf2 e9e0      	LDI  R30,LOW(144)
001cf3 93e0 0084 	STS  132,R30
001cf5 9508      	RET
                 
                 ;OPTIMIZER ADDED SUBROUTINE, CALLED 3 TIMES, CODE SIZE REDUCTION:1 WORDS
                 SUBOPT_0x22:
001cf6 91e0 0bdc 	LDS  R30,_Timeslot2
001cf8 cfb3      	RJMP SUBOPT_0x19
                 
                 ;OPTIMIZER ADDED SUBROUTINE, CALLED 4 TIMES, CODE SIZE REDUCTION:6 WORDS
                 SUBOPT_0x23:
001cf9 0fea      	ADD  R30,R26
001cfa 0fee      	LSL  R30
001cfb 57e0      	SUBI R30,-LOW(144)
001cfc 93e0 0098 	STS  152,R30
001cfe 9508      	RET
                 
                 ;OPTIMIZER ADDED SUBROUTINE, CALLED 4 TIMES, CODE SIZE REDUCTION:24 WORDS
                 SUBOPT_0x24:
001cff 0fea      	ADD  R30,R26
001d00 0fee      	LSL  R30
001d01 57e0      	SUBI R30,-LOW(144)
001d02 93e0 009a 	STS  154,R30
001d04 eee8      	LDI  R30,LOW(232)
001d05 93e0 0095 	STS  149,R30
001d07 e9e0      	LDI  R30,LOW(144)
001d08 93e0 0094 	STS  148,R30
001d0a 9508      	RET
                 
                 ;OPTIMIZER ADDED SUBROUTINE, CALLED 5 TIMES, CODE SIZE REDUCTION:5 WORDS
                 SUBOPT_0x25:
                +
001d0b 91e0 0a4c+LDS R30 , _servo + ( 36 )
001d0d 91f0 0a4d+LDS R31 , _servo + ( 36 ) + 1
                 	__GETW1MN _servo,36
001d0f 9508      	RET
                 
                 ;OPTIMIZER ADDED SUBROUTINE, CALLED 8 TIMES, CODE SIZE REDUCTION:11 WORDS
                 SUBOPT_0x26:
                +
001d10 91e0 0a4e+LDS R30 , _servo + ( 38 )
001d12 91f0 0a4f+LDS R31 , _servo + ( 38 ) + 1
                 	__GETW1MN _servo,38
001d14 9508      	RET
                 
                 ;OPTIMIZER ADDED SUBROUTINE, CALLED 3 TIMES, CODE SIZE REDUCTION:5 WORDS
                 SUBOPT_0x27:
001d15 91a0 0bc0 	LDS  R26,_hitungNgawur
001d17 91b0 0bc1 	LDS  R27,_hitungNgawur+1
001d19 940e 2706 	CALL __CPW02
001d1b 9508      	RET
                 
                 ;OPTIMIZER ADDED SUBROUTINE, CALLED 2 TIMES, CODE SIZE REDUCTION:1 WORDS
                 SUBOPT_0x28:
001d1c 91a0 0bc4 	LDS  R26,_hitungWaras
001d1e 91b0 0bc5 	LDS  R27,_hitungWaras+1
001d20 940e 2706 	CALL __CPW02
001d22 9508      	RET
                 
                 ;OPTIMIZER ADDED SUBROUTINE, CALLED 3 TIMES, CODE SIZE REDUCTION:5 WORDS
                 SUBOPT_0x29:
001d23 eee8      	LDI  R30,LOW(232)
001d24 93e0 0095 	STS  149,R30
001d26 e9e0      	LDI  R30,LOW(144)
001d27 93e0 0094 	STS  148,R30
001d29 9508      	RET
                 
                 ;OPTIMIZER ADDED SUBROUTINE, CALLED 13 TIMES, CODE SIZE REDUCTION:21 WORDS
                 SUBOPT_0x2A:
001d2a 91a0 0bf9 	LDS  R26,_Ball
001d2c 91b0 0bfa 	LDS  R27,_Ball+1
001d2e 9508      	RET
                 
                 ;OPTIMIZER ADDED SUBROUTINE, CALLED 8 TIMES, CODE SIZE REDUCTION:53 WORDS
                 SUBOPT_0x2B:
001d2f 91a0 0a8c 	LDS  R26,_VX
001d31 91b0 0a8d 	LDS  R27,_VX+1
001d33 9180 0a8e 	LDS  R24,_VX+2
001d35 9190 0a8f 	LDS  R25,_VX+3
001d37 940e 270a 	CALL __CPD02
001d39 9508      	RET
                 
                 ;OPTIMIZER ADDED SUBROUTINE, CALLED 2 TIMES, CODE SIZE REDUCTION:5 WORDS
                 SUBOPT_0x2C:
001d3a 91a0 0a90 	LDS  R26,_VY
001d3c 91b0 0a91 	LDS  R27,_VY+1
001d3e 9180 0a92 	LDS  R24,_VY+2
001d40 9190 0a93 	LDS  R25,_VY+3
001d42 940e 270a 	CALL __CPD02
001d44 9508      	RET
                 
                 ;OPTIMIZER ADDED SUBROUTINE, CALLED 2 TIMES, CODE SIZE REDUCTION:5 WORDS
                 SUBOPT_0x2D:
001d45 91a0 0a98 	LDS  R26,_W
001d47 91b0 0a99 	LDS  R27,_W+1
001d49 9180 0a9a 	LDS  R24,_W+2
001d4b 9190 0a9b 	LDS  R25,_W+3
001d4d 940e 270a 	CALL __CPD02
001d4f 9508      	RET
                 
                 ;OPTIMIZER ADDED SUBROUTINE, CALLED 4 TIMES, CODE SIZE REDUCTION:3 WORDS
                 SUBOPT_0x2E:
001d50 91e0 0a84 	LDS  R30,_langkahMax
001d52 91f0 0a85 	LDS  R31,_langkahMax+1
001d54 9508      	RET
                 
                 ;OPTIMIZER ADDED SUBROUTINE, CALLED 2 TIMES, CODE SIZE REDUCTION:1 WORDS
                 SUBOPT_0x2F:
001d55 dee5      	RCALL SUBOPT_0xC
001d56 eea8      	LDI  R26,LOW(_Xerror)
001d57 e0ba      	LDI  R27,HIGH(_Xerror)
001d58 940e 2619 	CALL __LSLW2
001d5a 9508      	RET
                 
                 ;OPTIMIZER ADDED SUBROUTINE, CALLED 2 TIMES, CODE SIZE REDUCTION:1 WORDS
                 SUBOPT_0x30:
001d5b dedf      	RCALL SUBOPT_0xC
001d5c eba8      	LDI  R26,LOW(_X)
001d5d e0ba      	LDI  R27,HIGH(_X)
001d5e 940e 2619 	CALL __LSLW2
001d60 9508      	RET
                 
                 ;OPTIMIZER ADDED SUBROUTINE, CALLED 18 TIMES, CODE SIZE REDUCTION:31 WORDS
                 SUBOPT_0x31:
001d61 0fae      	ADD  R26,R30
001d62 1fbf      	ADC  R27,R31
001d63 940e 26bc 	CALL __GETD1P
001d65 9508      	RET
                 
                 ;OPTIMIZER ADDED SUBROUTINE, CALLED 3 TIMES, CODE SIZE REDUCTION:21 WORDS
                 SUBOPT_0x32:
001d66 940e 26e5 	CALL __SWAPD12
001d68 940e 24c8 	CALL __SUBF12
001d6a 01df      	MOVW R26,R30
001d6b 01cb      	MOVW R24,R22
001d6c dfe3      	RCALL SUBOPT_0x2E
001d6d 940e 2624 	CALL __CWD1
001d6f 940e 2495 	CALL __CDF1
001d71 940e 256d 	CALL __DIVF21
001d73 9508      	RET
                 
                 ;OPTIMIZER ADDED SUBROUTINE, CALLED 6 TIMES, CODE SIZE REDUCTION:7 WORDS
                 SUBOPT_0x33:
001d74 940e 26c2 	CALL __PUTDP1
001d76 cec4      	RJMP SUBOPT_0xC
                 
                 ;OPTIMIZER ADDED SUBROUTINE, CALLED 9 TIMES, CODE SIZE REDUCTION:13 WORDS
                 SUBOPT_0x34:
001d77 940e 2619 	CALL __LSLW2
001d79 0fea      	ADD  R30,R26
001d7a 1ffb      	ADC  R31,R27
001d7b 9508      	RET
                 
                 ;OPTIMIZER ADDED SUBROUTINE, CALLED 7 TIMES, CODE SIZE REDUCTION:9 WORDS
                 SUBOPT_0x35:
001d7c 940e 2619 	CALL __LSLW2
001d7e cfe2      	RJMP SUBOPT_0x31
                 
                 ;OPTIMIZER ADDED SUBROUTINE, CALLED 5 TIMES, CODE SIZE REDUCTION:13 WORDS
                 SUBOPT_0x36:
001d7f debb      	RCALL SUBOPT_0xC
001d80 e5a0      	LDI  R26,LOW(_servoSet)
001d81 e0ba      	LDI  R27,HIGH(_servoSet)
001d82 cf1e      	RJMP SUBOPT_0x17
                 
                 ;OPTIMIZER ADDED SUBROUTINE, CALLED 13 TIMES, CODE SIZE REDUCTION:21 WORDS
                 SUBOPT_0x37:
001d83 91e0 0a7e 	LDS  R30,_I
001d85 91f0 0a7f 	LDS  R31,_I+1
001d87 9508      	RET
                 
                 ;OPTIMIZER ADDED SUBROUTINE, CALLED 3 TIMES, CODE SIZE REDUCTION:1 WORDS
                 SUBOPT_0x38:
001d88 01df      	MOVW R26,R30
001d89 01cb      	MOVW R24,R22
001d8a 940e 251f 	CALL __MULF12
001d8c 9508      	RET
                 
                 ;OPTIMIZER ADDED SUBROUTINE, CALLED 2 TIMES, CODE SIZE REDUCTION:1 WORDS
                 SUBOPT_0x39:
001d8d 940e 24cf 	CALL __ADDF12
001d8f 01df      	MOVW R26,R30
001d90 01cb      	MOVW R24,R22
001d91 940c 25d2 	JMP  _sqrt
                 
                 ;OPTIMIZER ADDED SUBROUTINE, CALLED 2 TIMES, CODE SIZE REDUCTION:3 WORDS
                 SUBOPT_0x3A:
001d93 91a0 0b1c 	LDS  R26,_bi
001d95 91b0 0b1d 	LDS  R27,_bi+1
001d97 9180 0b1e 	LDS  R24,_bi+2
001d99 9190 0b1f 	LDS  R25,_bi+3
001d9b 9508      	RET
                 
                 ;OPTIMIZER ADDED SUBROUTINE, CALLED 2 TIMES, CODE SIZE REDUCTION:3 WORDS
                 SUBOPT_0x3B:
001d9c 91e0 0b24 	LDS  R30,_ai
001d9e 91f0 0b25 	LDS  R31,_ai+1
001da0 9160 0b26 	LDS  R22,_ai+2
001da2 9170 0b27 	LDS  R23,_ai+3
001da4 9508      	RET
                 
                 ;OPTIMIZER ADDED SUBROUTINE, CALLED 2 TIMES, CODE SIZE REDUCTION:1 WORDS
                 SUBOPT_0x3C:
001da5 940e 26c2 	CALL __PUTDP1
001da7 dfdb      	RCALL SUBOPT_0x37
001da8 e5a0      	LDI  R26,LOW(_A3)
001da9 e0bb      	LDI  R27,HIGH(_A3)
001daa 9508      	RET
                 
                 ;OPTIMIZER ADDED SUBROUTINE, CALLED 2 TIMES, CODE SIZE REDUCTION:3 WORDS
                 SUBOPT_0x3D:
001dab 91a0 0b04 	LDS  R26,_L2Kuadrat
001dad 91b0 0b05 	LDS  R27,_L2Kuadrat+1
001daf 9180 0b06 	LDS  R24,_L2Kuadrat+2
001db1 9190 0b07 	LDS  R25,_L2Kuadrat+3
001db3 9508      	RET
                 
                 ;OPTIMIZER ADDED SUBROUTINE, CALLED 2 TIMES, CODE SIZE REDUCTION:5 WORDS
                 SUBOPT_0x3E:
001db4 de54      	RCALL SUBOPT_0x6
                +
001db5 e0a0     +LDI R26 , LOW ( 0x40000000 )
001db6 e0b0     +LDI R27 , HIGH ( 0x40000000 )
001db7 e080     +LDI R24 , BYTE3 ( 0x40000000 )
001db8 e490     +LDI R25 , BYTE4 ( 0x40000000 )
                 	__GETD2N 0x40000000
001db9 940e 251f 	CALL __MULF12
001dbb ce5f      	RJMP SUBOPT_0x8
                 
                 ;OPTIMIZER ADDED SUBROUTINE, CALLED 3 TIMES, CODE SIZE REDUCTION:5 WORDS
                 SUBOPT_0x3F:
001dbc 940e 256d 	CALL __DIVF21
001dbe 01df      	MOVW R26,R30
001dbf 01cb      	MOVW R24,R22
001dc0 940c 1b2e 	JMP  _acos
                 
                 ;OPTIMIZER ADDED SUBROUTINE, CALLED 3 TIMES, CODE SIZE REDUCTION:1 WORDS
                 SUBOPT_0x40:
001dc2 940e 24cf 	CALL __ADDF12
001dc4 940e 2429 	CALL __ANEGF1
001dc6 9508      	RET
                 
                 ;OPTIMIZER ADDED SUBROUTINE, CALLED 5 TIMES, CODE SIZE REDUCTION:21 WORDS
                 SUBOPT_0x41:
001dc7 91e0 0b60 	LDS  R30,_rad
001dc9 91f0 0b61 	LDS  R31,_rad+1
001dcb 9160 0b62 	LDS  R22,_rad+2
001dcd 9170 0b63 	LDS  R23,_rad+3
001dcf 9508      	RET
                 
                 ;OPTIMIZER ADDED SUBROUTINE, CALLED 5 TIMES, CODE SIZE REDUCTION:21 WORDS
                 SUBOPT_0x42:
001dd0 940e 251f 	CALL __MULF12
                +
001dd2 e0a0     +LDI R26 , LOW ( 0x42B40000 )
001dd3 e0b0     +LDI R27 , HIGH ( 0x42B40000 )
001dd4 eb84     +LDI R24 , BYTE3 ( 0x42B40000 )
001dd5 e492     +LDI R25 , BYTE4 ( 0x42B40000 )
                 	__GETD2N 0x42B40000
001dd6 940e 24cf 	CALL __ADDF12
001dd8 9508      	RET
                 
                 ;OPTIMIZER ADDED SUBROUTINE, CALLED 2 TIMES, CODE SIZE REDUCTION:3 WORDS
                 SUBOPT_0x43:
                +
001dd9 93e0 0b70+STS _sudutSet + ( 12 ) , R30
001ddb 93f0 0b71+STS _sudutSet + ( 12 ) + 1 , R31
001ddd 9360 0b72+STS _sudutSet + ( 12 ) + 2 , R22
001ddf 9370 0b73+STS _sudutSet + ( 12 ) + 3 , R23
                 	__PUTD1MN _sudutSet,12
001de1 9508      	RET
                 
                 ;OPTIMIZER ADDED SUBROUTINE, CALLED 2 TIMES, CODE SIZE REDUCTION:7 WORDS
                 SUBOPT_0x44:
001de2 940e 251f 	CALL __MULF12
                +
001de4 e0a0     +LDI R26 , LOW ( 0x43340000 )
001de5 e0b0     +LDI R27 , HIGH ( 0x43340000 )
001de6 e384     +LDI R24 , BYTE3 ( 0x43340000 )
001de7 e493     +LDI R25 , BYTE4 ( 0x43340000 )
                 	__GETD2N 0x43340000
001de8 940e 26e5 	CALL __SWAPD12
001dea 940e 24c8 	CALL __SUBF12
001dec 01df      	MOVW R26,R30
001ded 01cb      	MOVW R24,R22
001dee 9508      	RET
                 
                 ;OPTIMIZER ADDED SUBROUTINE, CALLED 2 TIMES, CODE SIZE REDUCTION:3 WORDS
                 SUBOPT_0x45:
                +
001def 91e0 0b70+LDS R30 , _sudutSet + ( 12 )
001df1 91f0 0b71+LDS R31 , _sudutSet + ( 12 ) + 1
001df3 9160 0b72+LDS R22 , _sudutSet + ( 12 ) + 2
001df5 9170 0b73+LDS R23 , _sudutSet + ( 12 ) + 3
                 	__GETD1MN _sudutSet,12
001df7 9508      	RET
                 
                 ;OPTIMIZER ADDED SUBROUTINE, CALLED 9 TIMES, CODE SIZE REDUCTION:13 WORDS
                 SUBOPT_0x46:
001df8 940e 26e5 	CALL __SWAPD12
001dfa 940e 24c8 	CALL __SUBF12
001dfc 9508      	RET
                 
                 ;OPTIMIZER ADDED SUBROUTINE, CALLED 3 TIMES, CODE SIZE REDUCTION:5 WORDS
                 SUBOPT_0x47:
                +
001dfd e0a0     +LDI R26 , LOW ( 0x40A00000 )
001dfe e0b0     +LDI R27 , HIGH ( 0x40A00000 )
001dff ea80     +LDI R24 , BYTE3 ( 0x40A00000 )
001e00 e490     +LDI R25 , BYTE4 ( 0x40A00000 )
                 	__GETD2N 0x40A00000
001e01 940e 24cf 	CALL __ADDF12
001e03 9508      	RET
                 
                 ;OPTIMIZER ADDED SUBROUTINE, CALLED 2 TIMES, CODE SIZE REDUCTION:5 WORDS
                 SUBOPT_0x48:
001e04 91a0 0b60 	LDS  R26,_rad
001e06 91b0 0b61 	LDS  R27,_rad+1
001e08 9180 0b62 	LDS  R24,_rad+2
001e0a 9190 0b63 	LDS  R25,_rad+3
001e0c 940e 251f 	CALL __MULF12
001e0e 9508      	RET
                 
                 ;OPTIMIZER ADDED SUBROUTINE, CALLED 2 TIMES, CODE SIZE REDUCTION:3 WORDS
                 SUBOPT_0x49:
                +
001e0f 93e0 0b88+STS _sudutSet + ( 36 ) , R30
001e11 93f0 0b89+STS _sudutSet + ( 36 ) + 1 , R31
001e13 9360 0b8a+STS _sudutSet + ( 36 ) + 2 , R22
001e15 9370 0b8b+STS _sudutSet + ( 36 ) + 3 , R23
                 	__PUTD1MN _sudutSet,36
001e17 9508      	RET
                 
                 ;OPTIMIZER ADDED SUBROUTINE, CALLED 3 TIMES, CODE SIZE REDUCTION:9 WORDS
                 SUBOPT_0x4A:
001e18 91a0 0b60 	LDS  R26,_rad
001e1a 91b0 0b61 	LDS  R27,_rad+1
001e1c 9180 0b62 	LDS  R24,_rad+2
001e1e 9190 0b63 	LDS  R25,_rad+3
001e20 9508      	RET
                 
                 ;OPTIMIZER ADDED SUBROUTINE, CALLED 2 TIMES, CODE SIZE REDUCTION:3 WORDS
                 SUBOPT_0x4B:
                +
001e21 91e0 0b88+LDS R30 , _sudutSet + ( 36 )
001e23 91f0 0b89+LDS R31 , _sudutSet + ( 36 ) + 1
001e25 9160 0b8a+LDS R22 , _sudutSet + ( 36 ) + 2
001e27 9170 0b8b+LDS R23 , _sudutSet + ( 36 ) + 3
                 	__GETD1MN _sudutSet,36
001e29 9508      	RET
                 
                 ;OPTIMIZER ADDED SUBROUTINE, CALLED 8 TIMES, CODE SIZE REDUCTION:25 WORDS
                 SUBOPT_0x4C:
001e2a e0e1      	LDI  R30,LOW(1)
001e2b e0f0      	LDI  R31,HIGH(1)
001e2c 93e0 0bb4 	STS  _state,R30
001e2e 93f0 0bb5 	STS  _state+1,R31
001e30 9508      	RET
                 
                 ;OPTIMIZER ADDED SUBROUTINE, CALLED 7 TIMES, CODE SIZE REDUCTION:33 WORDS
                 SUBOPT_0x4D:
001e31 940e 2624 	CALL __CWD1
001e33 940e 26db 	CALL __PUTPARD1
001e35 e084      	LDI  R24,4
001e36 940e 188e 	CALL _printf
001e38 9626      	ADIW R28,6
001e39 9508      	RET
                 
                 ;OPTIMIZER ADDED SUBROUTINE, CALLED 14 TIMES, CODE SIZE REDUCTION:23 WORDS
                 SUBOPT_0x4E:
001e3a 91a0 0be3 	LDS  R26,_pos_x
001e3c 91b0 0be4 	LDS  R27,_pos_x+1
001e3e 9508      	RET
                 
                 ;OPTIMIZER ADDED SUBROUTINE, CALLED 2 TIMES, CODE SIZE REDUCTION:46 WORDS
                 SUBOPT_0x4F:
001e3f 91e0 0bca 	LDS  R30,_spx
001e41 91f0 0bcb 	LDS  R31,_spx+1
001e43 1bea      	SUB  R30,R26
001e44 0bfb      	SBC  R31,R27
001e45 93e0 0bce 	STS  _errorx,R30
001e47 93f0 0bcf 	STS  _errorx+1,R31
001e49 91a0 0bce 	LDS  R26,_errorx
001e4b 91b0 0bcf 	LDS  R27,_errorx+1
001e4d e2ef      	LDI  R30,LOW(47)
001e4e e0f0      	LDI  R31,HIGH(47)
001e4f 940e 2664 	CALL __DIVW21
001e51 93e0 0bd2 	STS  _px,R30
001e53 93f0 0bd3 	STS  _px+1,R31
001e55 91a0 0bd6 	LDS  R26,_mvx
001e57 91b0 0bd7 	LDS  R27,_mvx+1
001e59 0fea      	ADD  R30,R26
001e5a 1ffb      	ADC  R31,R27
001e5b 93e0 0bd6 	STS  _mvx,R30
001e5d 93f0 0bd7 	STS  _mvx+1,R31
                +
001e5f 93e0 0a4e+STS _servo + ( 38 ) , R30
001e61 93f0 0a4f+STS _servo + ( 38 ) + 1 , R31
                 	__PUTW1MN _servo,38
001e63 91a0 0bd6 	LDS  R26,_mvx
001e65 91b0 0bd7 	LDS  R27,_mvx+1
001e67 3fac      	CPI  R26,LOW(0x8FC)
001e68 e0e8      	LDI  R30,HIGH(0x8FC)
001e69 07be      	CPC  R27,R30
001e6a 9508      	RET
                 
                 ;OPTIMIZER ADDED SUBROUTINE, CALLED 2 TIMES, CODE SIZE REDUCTION:2 WORDS
                 SUBOPT_0x50:
001e6b 91a0 0bd6 	LDS  R26,_mvx
001e6d 91b0 0bd7 	LDS  R27,_mvx+1
001e6f 3bad      	CPI  R26,LOW(0x2BD)
001e70 e0e2      	LDI  R30,HIGH(0x2BD)
001e71 07be      	CPC  R27,R30
001e72 9508      	RET
                 
                 ;OPTIMIZER ADDED SUBROUTINE, CALLED 2 TIMES, CODE SIZE REDUCTION:47 WORDS
                 SUBOPT_0x51:
001e73 91a0 0be5 	LDS  R26,_pos_y
001e75 91b0 0be6 	LDS  R27,_pos_y+1
001e77 91e0 0bcc 	LDS  R30,_spy
001e79 91f0 0bcd 	LDS  R31,_spy+1
001e7b 1bea      	SUB  R30,R26
001e7c 0bfb      	SBC  R31,R27
001e7d 93e0 0bd0 	STS  _errory,R30
001e7f 93f0 0bd1 	STS  _errory+1,R31
001e81 91a0 0bd0 	LDS  R26,_errory
001e83 91b0 0bd1 	LDS  R27,_errory+1
001e85 e2ef      	LDI  R30,LOW(47)
001e86 e0f0      	LDI  R31,HIGH(47)
001e87 940e 2664 	CALL __DIVW21
001e89 93e0 0bd4 	STS  _py,R30
001e8b 93f0 0bd5 	STS  _py+1,R31
001e8d 91a0 0bd4 	LDS  R26,_py
001e8f 91b0 0bd5 	LDS  R27,_py+1
001e91 91e0 0bd8 	LDS  R30,_mvy
001e93 91f0 0bd9 	LDS  R31,_mvy+1
001e95 1bea      	SUB  R30,R26
001e96 0bfb      	SBC  R31,R27
001e97 93e0 0bd8 	STS  _mvy,R30
001e99 93f0 0bd9 	STS  _mvy+1,R31
                +
001e9b 93e0 0a4c+STS _servo + ( 36 ) , R30
001e9d 93f0 0a4d+STS _servo + ( 36 ) + 1 , R31
                 	__PUTW1MN _servo,36
001e9f 91a0 0bd8 	LDS  R26,_mvy
001ea1 91b0 0bd9 	LDS  R27,_mvy+1
001ea3 9508      	RET
                 
                 ;OPTIMIZER ADDED SUBROUTINE, CALLED 3 TIMES, CODE SIZE REDUCTION:5 WORDS
                 SUBOPT_0x52:
001ea4 93fa      	ST   -Y,R31
001ea5 93ea      	ST   -Y,R30
001ea6 e080      	LDI  R24,0
001ea7 940e 188e 	CALL _printf
001ea9 9622      	ADIW R28,2
001eaa 9508      	RET
                 
                 ;OPTIMIZER ADDED SUBROUTINE, CALLED 9 TIMES, CODE SIZE REDUCTION:45 WORDS
                 SUBOPT_0x53:
001eab 91e0 0bc2 	LDS  R30,_delayNgawur
001ead 91f0 0bc3 	LDS  R31,_delayNgawur+1
001eaf 93e0 0bc0 	STS  _hitungNgawur,R30
001eb1 93f0 0bc1 	STS  _hitungNgawur+1,R31
001eb3 9508      	RET
                 
                 ;OPTIMIZER ADDED SUBROUTINE, CALLED 2 TIMES, CODE SIZE REDUCTION:1 WORDS
                 SUBOPT_0x54:
001eb4 e0e1      	LDI  R30,LOW(1)
001eb5 e0f0      	LDI  R31,HIGH(1)
001eb6 93e0 0bb6 	STS  _cariBola,R30
001eb8 93f0 0bb7 	STS  _cariBola+1,R31
001eba 9508      	RET
                 
                 ;OPTIMIZER ADDED SUBROUTINE, CALLED 4 TIMES, CODE SIZE REDUCTION:6 WORDS
                 SUBOPT_0x55:
001ebb df7e      	RCALL SUBOPT_0x4E
001ebc 31a9      	CPI  R26,LOW(0x119)
001ebd e0e1      	LDI  R30,HIGH(0x119)
001ebe 07be      	CPC  R27,R30
001ebf 9508      	RET
                 
                 ;OPTIMIZER ADDED SUBROUTINE, CALLED 4 TIMES, CODE SIZE REDUCTION:9 WORDS
                 SUBOPT_0x56:
001ec0 e0e1      	LDI  R30,LOW(1)
001ec1 e0f0      	LDI  R31,HIGH(1)
001ec2 93e0 0bb8 	STS  _jalan,R30
001ec4 93f0 0bb9 	STS  _jalan+1,R31
001ec6 9508      	RET
                 
                 ;OPTIMIZER ADDED SUBROUTINE, CALLED 3 TIMES, CODE SIZE REDUCTION:5 WORDS
                 SUBOPT_0x57:
001ec7 e0e3      	LDI  R30,LOW(3)
001ec8 e0f0      	LDI  R31,HIGH(3)
001ec9 93e0 0bb4 	STS  _state,R30
001ecb 93f0 0bb5 	STS  _state+1,R31
001ecd 9508      	RET
                 
                 ;OPTIMIZER ADDED SUBROUTINE, CALLED 2 TIMES, CODE SIZE REDUCTION:1 WORDS
                 SUBOPT_0x58:
001ece e0e2      	LDI  R30,LOW(2)
001ecf e0f0      	LDI  R31,HIGH(2)
001ed0 93e0 0bb8 	STS  _jalan,R30
001ed2 93f0 0bb9 	STS  _jalan+1,R31
001ed4 9508      	RET
                 
                 ;OPTIMIZER ADDED SUBROUTINE, CALLED 10 TIMES, CODE SIZE REDUCTION:15 WORDS
                 SUBOPT_0x59:
001ed5 91a0 0bdd 	LDS  R26,_miringDepan
001ed7 91b0 0bde 	LDS  R27,_miringDepan+1
001ed9 9508      	RET
                 
                 ;OPTIMIZER ADDED SUBROUTINE, CALLED 4 TIMES, CODE SIZE REDUCTION:3 WORDS
                 SUBOPT_0x5A:
001eda ede8      	LDI  R30,LOW(65496)
001edb efff      	LDI  R31,HIGH(65496)
001edc 17ea      	CP   R30,R26
001edd 07fb      	CPC  R31,R27
001ede 9508      	RET
                 
                 ;OPTIMIZER ADDED SUBROUTINE, CALLED 5 TIMES, CODE SIZE REDUCTION:13 WORDS
                 SUBOPT_0x5B:
001edf 91e0 0bdd 	LDS  R30,_miringDepan
001ee1 91f0 0bde 	LDS  R31,_miringDepan+1
001ee3 cf4d      	RJMP SUBOPT_0x4D
                 
                 ;OPTIMIZER ADDED SUBROUTINE, CALLED 8 TIMES, CODE SIZE REDUCTION:11 WORDS
                 SUBOPT_0x5C:
001ee4 93e0 0bb4 	STS  _state,R30
001ee6 93f0 0bb5 	STS  _state+1,R31
001ee8 9508      	RET
                 
                 ;OPTIMIZER ADDED SUBROUTINE, CALLED 3 TIMES, CODE SIZE REDUCTION:1 WORDS
                 SUBOPT_0x5D:
001ee9 dfeb      	RCALL SUBOPT_0x59
001eea cfef      	RJMP SUBOPT_0x5A
                 
                 ;OPTIMIZER ADDED SUBROUTINE, CALLED 4 TIMES, CODE SIZE REDUCTION:6 WORDS
                 SUBOPT_0x5E:
001eeb e0e0      	LDI  R30,LOW(0)
001eec 93e0 0bda 	STS  _sudah,R30
001eee 93e0 0bdb 	STS  _sudah+1,R30
001ef0 9508      	RET
                 
                 ;OPTIMIZER ADDED SUBROUTINE, CALLED 4 TIMES, CODE SIZE REDUCTION:3 WORDS
                 SUBOPT_0x5F:
001ef1 93fa      	ST   -Y,R31
001ef2 93ea      	ST   -Y,R30
001ef3 cfeb      	RJMP SUBOPT_0x5B
                 
                 ;OPTIMIZER ADDED SUBROUTINE, CALLED 6 TIMES, CODE SIZE REDUCTION:12 WORDS
                 SUBOPT_0x60:
001ef4 91a0 0bda 	LDS  R26,_sudah
001ef6 91b0 0bdb 	LDS  R27,_sudah+1
001ef8 9711      	SBIW R26,1
001ef9 9508      	RET
                 
                 ;OPTIMIZER ADDED SUBROUTINE, CALLED 3 TIMES, CODE SIZE REDUCTION:3 WORDS
                 SUBOPT_0x61:
001efa 940e 0c19 	CALL _pid_servo
001efc de2d      	RCALL SUBOPT_0x2A
001efd 9715      	SBIW R26,5
001efe 9508      	RET
                 
                 ;OPTIMIZER ADDED SUBROUTINE, CALLED 7 TIMES, CODE SIZE REDUCTION:9 WORDS
                 SUBOPT_0x62:
                +
001eff 91a0 0a4e+LDS R26 , _servo + ( 38 )
001f01 91b0 0a4f+LDS R27 , _servo + ( 38 ) + 1
                 	__GETW2MN _servo,38
001f03 9508      	RET
                 
                 ;OPTIMIZER ADDED SUBROUTINE, CALLED 4 TIMES, CODE SIZE REDUCTION:9 WORDS
                 SUBOPT_0x63:
                +
001f04 e4ee     +LDI R30 , LOW ( _servo + ( 38 ) )
001f05 e0fa     +LDI R31 , HIGH ( _servo + ( 38 ) )
                 	__POINTW1MN _servo,38
001f06 edac      	LDI  R26,LOW(1500)
001f07 e0b5      	LDI  R27,HIGH(1500)
001f08 83a0      	STD  Z+0,R26
001f09 83b1      	STD  Z+1,R27
001f0a 9508      	RET
                 
                 ;OPTIMIZER ADDED SUBROUTINE, CALLED 4 TIMES, CODE SIZE REDUCTION:6 WORDS
                 SUBOPT_0x64:
001f0b 91e0 0bf9 	LDS  R30,_Ball
001f0d 91f0 0bfa 	LDS  R31,_Ball+1
001f0f 9730      	SBIW R30,0
001f10 9508      	RET
                 
                 ;OPTIMIZER ADDED SUBROUTINE, CALLED 2 TIMES, CODE SIZE REDUCTION:4 WORDS
                 SUBOPT_0x65:
001f11 940e 0c9b 	CALL _nek_ambruk
                +
001f13 91a0 0a4c+LDS R26 , _servo + ( 36 )
001f15 91b0 0a4d+LDS R27 , _servo + ( 36 ) + 1
                 	__GETW2MN _servo,36
001f17 30a8      	CPI  R26,LOW(0x708)
001f18 e0e7      	LDI  R30,HIGH(0x708)
001f19 07be      	CPC  R27,R30
001f1a 9508      	RET
                 
                 ;OPTIMIZER ADDED SUBROUTINE, CALLED 2 TIMES, CODE SIZE REDUCTION:1 WORDS
                 SUBOPT_0x66:
                +
001f1b e4ec     +LDI R30 , LOW ( _servo + ( 36 ) )
001f1c e0fa     +LDI R31 , HIGH ( _servo + ( 36 ) )
                 	__POINTW1MN _servo,36
001f1d edac      	LDI  R26,LOW(1500)
001f1e e0b5      	LDI  R27,HIGH(1500)
001f1f 83a0      	STD  Z+0,R26
001f20 83b1      	STD  Z+1,R27
001f21 9508      	RET
                 
                 ;OPTIMIZER ADDED SUBROUTINE, CALLED 2 TIMES, CODE SIZE REDUCTION:7 WORDS
                 SUBOPT_0x67:
001f22 93fa      	ST   -Y,R31
001f23 93ea      	ST   -Y,R30
001f24 91e0 0bdd 	LDS  R30,_miringDepan
001f26 91f0 0bde 	LDS  R31,_miringDepan+1
001f28 940e 2624 	CALL __CWD1
001f2a 940e 26db 	CALL __PUTPARD1
001f2c cde3      	RJMP SUBOPT_0x26
                 
                 ;OPTIMIZER ADDED SUBROUTINE, CALLED 6 TIMES, CODE SIZE REDUCTION:7 WORDS
                 SUBOPT_0x68:
001f2d 940e 2624 	CALL __CWD1
001f2f 940e 26db 	CALL __PUTPARD1
001f31 9508      	RET
                 
                 ;OPTIMIZER ADDED SUBROUTINE, CALLED 2 TIMES, CODE SIZE REDUCTION:1 WORDS
                 SUBOPT_0x69:
001f32 91e0 0bc0 	LDS  R30,_hitungNgawur
001f34 91f0 0bc1 	LDS  R31,_hitungNgawur+1
001f36 cff6      	RJMP SUBOPT_0x68
                 
                 ;OPTIMIZER ADDED SUBROUTINE, CALLED 2 TIMES, CODE SIZE REDUCTION:1 WORDS
                 SUBOPT_0x6A:
001f37 e08c      	LDI  R24,12
001f38 940e 188e 	CALL _printf
001f3a 962e      	ADIW R28,14
001f3b cdd4      	RJMP SUBOPT_0x26
                 
                 ;OPTIMIZER ADDED SUBROUTINE, CALLED 2 TIMES, CODE SIZE REDUCTION:1 WORDS
                 SUBOPT_0x6B:
                +
001f3c 93e0 0a4e+STS _servo + ( 38 ) , R30
001f3e 93f0 0a4f+STS _servo + ( 38 ) + 1 , R31
                 	__PUTW1MN _servo,38
001f40 cfbe      	RJMP SUBOPT_0x62
                 
                 ;OPTIMIZER ADDED SUBROUTINE, CALLED 3 TIMES, CODE SIZE REDUCTION:5 WORDS
                 SUBOPT_0x6C:
001f41 93e0 0bd6 	STS  _mvx,R30
001f43 93f0 0bd7 	STS  _mvx+1,R31
001f45 cdc5      	RJMP SUBOPT_0x25
                 
                 ;OPTIMIZER ADDED SUBROUTINE, CALLED 3 TIMES, CODE SIZE REDUCTION:9 WORDS
                 SUBOPT_0x6D:
001f46 93e0 0bd8 	STS  _mvy,R30
001f48 93f0 0bd9 	STS  _mvy+1,R31
001f4a e0e2      	LDI  R30,LOW(2)
001f4b e0f0      	LDI  R31,HIGH(2)
001f4c cf97      	RJMP SUBOPT_0x5C
                 
                 ;OPTIMIZER ADDED SUBROUTINE, CALLED 2 TIMES, CODE SIZE REDUCTION:7 WORDS
                 SUBOPT_0x6E:
001f4d 91e0 0bc6 	LDS  R30,_delayWaras
001f4f 91f0 0bc7 	LDS  R31,_delayWaras+1
001f51 93e0 0bc4 	STS  _hitungWaras,R30
001f53 93f0 0bc5 	STS  _hitungWaras+1,R31
001f55 e6e5      	LDI  R30,LOW(101)
001f56 e0f0      	LDI  R31,HIGH(101)
001f57 cf8c      	RJMP SUBOPT_0x5C
                 
                 ;OPTIMIZER ADDED SUBROUTINE, CALLED 10 TIMES, CODE SIZE REDUCTION:15 WORDS
                 SUBOPT_0x6F:
001f58 e0a8      	LDI  R26,LOW(1800)
001f59 e0b7      	LDI  R27,HIGH(1800)
001f5a 83a0      	STD  Z+0,R26
001f5b 83b1      	STD  Z+1,R27
001f5c 9508      	RET
                 
                 ;OPTIMIZER ADDED SUBROUTINE, CALLED 4 TIMES, CODE SIZE REDUCTION:39 WORDS
                 SUBOPT_0x70:
001f5d 83a0      	STD  Z+0,R26
001f5e 83b1      	STD  Z+1,R27
                +
001f5f e4e2     +LDI R30 , LOW ( _servo + ( 26 ) )
001f60 e0fa     +LDI R31 , HIGH ( _servo + ( 26 ) )
                 	__POINTW1MN _servo,26
001f61 e8a4      	LDI  R26,LOW(900)
001f62 e0b3      	LDI  R27,HIGH(900)
001f63 83a0      	STD  Z+0,R26
001f64 83b1      	STD  Z+1,R27
                +
001f65 e4e0     +LDI R30 , LOW ( _servo + ( 24 ) )
001f66 e0fa     +LDI R31 , HIGH ( _servo + ( 24 ) )
                 	__POINTW1MN _servo,24
001f67 e6ac      	LDI  R26,LOW(1900)
001f68 e0b7      	LDI  R27,HIGH(1900)
001f69 83a0      	STD  Z+0,R26
001f6a 83b1      	STD  Z+1,R27
                +
001f6b e4ea     +LDI R30 , LOW ( _servo + ( 34 ) )
001f6c e0fa     +LDI R31 , HIGH ( _servo + ( 34 ) )
                 	__POINTW1MN _servo,34
001f6d 9508      	RET
                 
                 ;OPTIMIZER ADDED SUBROUTINE, CALLED 5 TIMES, CODE SIZE REDUCTION:53 WORDS
                 SUBOPT_0x71:
001f6e 83a0      	STD  Z+0,R26
001f6f 83b1      	STD  Z+1,R27
                +
001f70 e4e8     +LDI R30 , LOW ( _servo + ( 32 ) )
001f71 e0fa     +LDI R31 , HIGH ( _servo + ( 32 ) )
                 	__POINTW1MN _servo,32
001f72 e0a2      	LDI  R26,LOW(2050)
001f73 e0b8      	LDI  R27,HIGH(2050)
001f74 83a0      	STD  Z+0,R26
001f75 83b1      	STD  Z+1,R27
                +
001f76 e4e6     +LDI R30 , LOW ( _servo + ( 30 ) )
001f77 e0fa     +LDI R31 , HIGH ( _servo + ( 30 ) )
                 	__POINTW1MN _servo,30
001f78 e4ac      	LDI  R26,LOW(1100)
001f79 e0b4      	LDI  R27,HIGH(1100)
001f7a 83a0      	STD  Z+0,R26
001f7b 83b1      	STD  Z+1,R27
001f7c e0e0      	LDI  R30,LOW(0)
001f7d 30e0      	CPI  R30,0
001f7e 9508      	RET
                 
                 ;OPTIMIZER ADDED SUBROUTINE, CALLED 4 TIMES, CODE SIZE REDUCTION:33 WORDS
                 SUBOPT_0x72:
                +
001f7f e0e0     +LDI R30 , LOW ( 0x41200000 )
001f80 e0f0     +LDI R31 , HIGH ( 0x41200000 )
001f81 e260     +LDI R22 , BYTE3 ( 0x41200000 )
001f82 e471     +LDI R23 , BYTE4 ( 0x41200000 )
                 	__GETD1N 0x41200000
001f83 93e0 0a90 	STS  _VY,R30
001f85 93f0 0a91 	STS  _VY+1,R31
001f87 9360 0a92 	STS  _VY+2,R22
001f89 9370 0a93 	STS  _VY+3,R23
001f8b cc5f      	RJMP SUBOPT_0x2
                 
                 ;OPTIMIZER ADDED SUBROUTINE, CALLED 6 TIMES, CODE SIZE REDUCTION:137 WORDS
                 SUBOPT_0x73:
001f8c 91a0 0a90 	LDS  R26,_VY
001f8e 91b0 0a91 	LDS  R27,_VY+1
001f90 9180 0a92 	LDS  R24,_VY+2
001f92 9190 0a93 	LDS  R25,_VY+3
                +
001f94 e0e0     +LDI R30 , LOW ( 0x0 )
001f95 e0f0     +LDI R31 , HIGH ( 0x0 )
001f96 e060     +LDI R22 , BYTE3 ( 0x0 )
001f97 e070     +LDI R23 , BYTE4 ( 0x0 )
                 	__GETD1N 0x0
001f98 940e 2629 	CALL __NED12
001f9a 2e0e      	MOV  R0,R30
001f9b 91a0 0a98 	LDS  R26,_W
001f9d 91b0 0a99 	LDS  R27,_W+1
001f9f 9180 0a9a 	LDS  R24,_W+2
001fa1 9190 0a9b 	LDS  R25,_W+3
                +
001fa3 e0e0     +LDI R30 , LOW ( 0x0 )
001fa4 e0f0     +LDI R31 , HIGH ( 0x0 )
001fa5 e060     +LDI R22 , BYTE3 ( 0x0 )
001fa6 e070     +LDI R23 , BYTE4 ( 0x0 )
                 	__GETD1N 0x0
001fa7 940e 2629 	CALL __NED12
001fa9 29e0      	OR   R30,R0
001faa 9508      	RET
                 
                 ;OPTIMIZER ADDED SUBROUTINE, CALLED 6 TIMES, CODE SIZE REDUCTION:7 WORDS
                 SUBOPT_0x74:
001fab e0e1      	LDI  R30,LOW(1)
001fac e0f0      	LDI  R31,HIGH(1)
                +
001fad 0ede     +ADD R13 , R30
001fae 1eef     +ADC R14 , R31
                 	__ADDWRR 13,14,30,31
001faf 9508      	RET
                 
                 ;OPTIMIZER ADDED SUBROUTINE, CALLED 6 TIMES, CODE SIZE REDUCTION:7 WORDS
                 SUBOPT_0x75:
001fb0 93e0 0a7a 	STS  _counterDelay,R30
001fb2 93f0 0a7b 	STS  _counterDelay+1,R31
001fb4 9508      	RET
                 
                 ;OPTIMIZER ADDED SUBROUTINE, CALLED 5 TIMES, CODE SIZE REDUCTION:53 WORDS
                 SUBOPT_0x76:
001fb5 e0e1      	LDI  R30,LOW(1)
001fb6 e0f0      	LDI  R31,HIGH(1)
001fb7 93e0 0a88 	STS  _speed,R30
001fb9 93f0 0a89 	STS  _speed+1,R31
001fbb 91a0 0a78 	LDS  R26,_counterTG
001fbd 91b0 0a79 	LDS  R27,_counterTG+1
001fbf 17ea      	CP   R30,R26
001fc0 07fb      	CPC  R31,R27
001fc1 9508      	RET
                 
                 ;OPTIMIZER ADDED SUBROUTINE, CALLED 6 TIMES, CODE SIZE REDUCTION:22 WORDS
                 SUBOPT_0x77:
001fc2 e0e0      	LDI  R30,LOW(0)
001fc3 93e0 0a78 	STS  _counterTG,R30
001fc5 93e0 0a79 	STS  _counterTG+1,R30
001fc7 940c 0791 	JMP  _taskGerakan
                 
                 ;OPTIMIZER ADDED SUBROUTINE, CALLED 9 TIMES, CODE SIZE REDUCTION:13 WORDS
                 SUBOPT_0x78:
                +
001fc9 e4e4     +LDI R30 , LOW ( _servo + ( 28 ) )
001fca e0fa     +LDI R31 , HIGH ( _servo + ( 28 ) )
                 	__POINTW1MN _servo,28
001fcb edac      	LDI  R26,LOW(1500)
001fcc e0b5      	LDI  R27,HIGH(1500)
001fcd 9508      	RET
                 
                 ;OPTIMIZER ADDED SUBROUTINE, CALLED 5 TIMES, CODE SIZE REDUCTION:105 WORDS
                 SUBOPT_0x79:
001fce e0e0      	LDI  R30,LOW(0)
001fcf 93e0 0ab8 	STS  _X,R30
001fd1 93e0 0ab9 	STS  _X+1,R30
001fd3 93e0 0aba 	STS  _X+2,R30
001fd5 93e0 0abb 	STS  _X+3,R30
001fd7 93e0 0ac0 	STS  _Y,R30
001fd9 93e0 0ac1 	STS  _Y+1,R30
001fdb 93e0 0ac2 	STS  _Y+2,R30
001fdd 93e0 0ac3 	STS  _Y+3,R30
001fdf 93e0 0ac8 	STS  _Z,R30
001fe1 93e0 0ac9 	STS  _Z+1,R30
001fe3 93e0 0aca 	STS  _Z+2,R30
001fe5 93e0 0acb 	STS  _Z+3,R30
                +
001fe7 ebec     +LDI R30 , LOW ( _X + ( 4 ) )
001fe8 e0fa     +LDI R31 , HIGH ( _X + ( 4 ) )
                 	__POINTW1MN _X,4
001fe9 9508      	RET
                 
                 ;OPTIMIZER ADDED SUBROUTINE, CALLED 37 TIMES, CODE SIZE REDUCTION:69 WORDS
                 SUBOPT_0x7A:
                +
001fea e0a0     +LDI R26 , LOW ( 0x0 )
001feb e0b0     +LDI R27 , HIGH ( 0x0 )
001fec e080     +LDI R24 , BYTE3 ( 0x0 )
001fed e090     +LDI R25 , BYTE4 ( 0x0 )
                 	__GETD2N 0x0
001fee 9508      	RET
                 
                 ;OPTIMIZER ADDED SUBROUTINE, CALLED 15 TIMES, CODE SIZE REDUCTION:53 WORDS
                 SUBOPT_0x7B:
001fef dc7d      	RCALL SUBOPT_0x14
                +
001ff0 ece4     +LDI R30 , LOW ( _Y + ( 4 ) )
001ff1 e0fa     +LDI R31 , HIGH ( _Y + ( 4 ) )
                 	__POINTW1MN _Y,4
001ff2 cff7      	RJMP SUBOPT_0x7A
                 
                 ;OPTIMIZER ADDED SUBROUTINE, CALLED 4 TIMES, CODE SIZE REDUCTION:87 WORDS
                 SUBOPT_0x7C:
                +
001ff3 e0e0     +LDI R30 , LOW ( 0xC1200000 )
001ff4 e0f0     +LDI R31 , HIGH ( 0xC1200000 )
001ff5 e260     +LDI R22 , BYTE3 ( 0xC1200000 )
001ff6 ec71     +LDI R23 , BYTE4 ( 0xC1200000 )
                 	__GETD1N 0xC1200000
001ff7 93e0 0ab8 	STS  _X,R30
001ff9 93f0 0ab9 	STS  _X+1,R31
001ffb 9360 0aba 	STS  _X+2,R22
001ffd 9370 0abb 	STS  _X+3,R23
001fff 93e0 0ac0 	STS  _Y,R30
002001 93e0 0ac1 	STS  _Y+1,R30
002003 93e0 0ac2 	STS  _Y+2,R30
002005 93e0 0ac3 	STS  _Y+3,R30
002007 93e0 0ac8 	STS  _Z,R30
002009 93e0 0ac9 	STS  _Z+1,R30
00200b 93e0 0aca 	STS  _Z+2,R30
00200d 93e0 0acb 	STS  _Z+3,R30
                +
00200f ebec     +LDI R30 , LOW ( _X + ( 4 ) )
002010 e0fa     +LDI R31 , HIGH ( _X + ( 4 ) )
                 	__POINTW1MN _X,4
002011 9508      	RET
                 
                 ;OPTIMIZER ADDED SUBROUTINE, CALLED 5 TIMES, CODE SIZE REDUCTION:5 WORDS
                 SUBOPT_0x7D:
                +
002012 e0a0     +LDI R26 , LOW ( 0x41200000 )
002013 e0b0     +LDI R27 , HIGH ( 0x41200000 )
002014 e280     +LDI R24 , BYTE3 ( 0x41200000 )
002015 e491     +LDI R25 , BYTE4 ( 0x41200000 )
                 	__GETD2N 0x41200000
002016 9508      	RET
                 
                 ;OPTIMIZER ADDED SUBROUTINE, CALLED 4 TIMES, CODE SIZE REDUCTION:3 WORDS
                 SUBOPT_0x7E:
                +
002017 e0a0     +LDI R26 , LOW ( 0x41700000 )
002018 e0b0     +LDI R27 , HIGH ( 0x41700000 )
002019 e780     +LDI R24 , BYTE3 ( 0x41700000 )
00201a e491     +LDI R25 , BYTE4 ( 0x41700000 )
                 	__GETD2N 0x41700000
00201b 9508      	RET
                 
                 ;OPTIMIZER ADDED SUBROUTINE, CALLED 2 TIMES, CODE SIZE REDUCTION:1 WORDS
                 SUBOPT_0x7F:
                +
00201c ece4     +LDI R30 , LOW ( _Y + ( 4 ) )
00201d e0fa     +LDI R31 , HIGH ( _Y + ( 4 ) )
                 	__POINTW1MN _Y,4
                +
00201e e0a0     +LDI R26 , LOW ( 0xC1200000 )
00201f e0b0     +LDI R27 , HIGH ( 0xC1200000 )
002020 e280     +LDI R24 , BYTE3 ( 0xC1200000 )
002021 ec91     +LDI R25 , BYTE4 ( 0xC1200000 )
                 	__GETD2N 0xC1200000
002022 9508      	RET
                 
                 ;OPTIMIZER ADDED SUBROUTINE, CALLED 12 TIMES, CODE SIZE REDUCTION:19 WORDS
                 SUBOPT_0x80:
002023 dc49      	RCALL SUBOPT_0x14
                +
002024 ecec     +LDI R30 , LOW ( _Z + ( 4 ) )
002025 e0fa     +LDI R31 , HIGH ( _Z + ( 4 ) )
                 	__POINTW1MN _Z,4
002026 9508      	RET
                 
                 ;OPTIMIZER ADDED SUBROUTINE, CALLED 4 TIMES, CODE SIZE REDUCTION:3 WORDS
                 SUBOPT_0x81:
                +
002027 e0a0     +LDI R26 , LOW ( 0xC2200000 )
002028 e0b0     +LDI R27 , HIGH ( 0xC2200000 )
002029 e280     +LDI R24 , BYTE3 ( 0xC2200000 )
00202a ec92     +LDI R25 , BYTE4 ( 0xC2200000 )
                 	__GETD2N 0xC2200000
00202b 9508      	RET
                 
                 ;OPTIMIZER ADDED SUBROUTINE, CALLED 12 TIMES, CODE SIZE REDUCTION:74 WORDS
                 SUBOPT_0x82:
00202c e0e0      	LDI  R30,LOW(0)
00202d 93e0 0ab8 	STS  _X,R30
00202f 93e0 0ab9 	STS  _X+1,R30
002031 93e0 0aba 	STS  _X+2,R30
002033 93e0 0abb 	STS  _X+3,R30
002035 9508      	RET
                 
                 ;OPTIMIZER ADDED SUBROUTINE, CALLED 17 TIMES, CODE SIZE REDUCTION:109 WORDS
                 SUBOPT_0x83:
002036 e0e0      	LDI  R30,LOW(0)
002037 93e0 0ac0 	STS  _Y,R30
002039 93e0 0ac1 	STS  _Y+1,R30
00203b 93e0 0ac2 	STS  _Y+2,R30
00203d 93e0 0ac3 	STS  _Y+3,R30
00203f 9508      	RET
                 
                 ;OPTIMIZER ADDED SUBROUTINE, CALLED 2 TIMES, CODE SIZE REDUCTION:7 WORDS
                 SUBOPT_0x84:
                +
002040 e0e0     +LDI R30 , LOW ( 0x41A00000 )
002041 e0f0     +LDI R31 , HIGH ( 0x41A00000 )
002042 ea60     +LDI R22 , BYTE3 ( 0x41A00000 )
002043 e471     +LDI R23 , BYTE4 ( 0x41A00000 )
                 	__GETD1N 0x41A00000
002044 93e0 0ac0 	STS  _Y,R30
002046 93f0 0ac1 	STS  _Y+1,R31
002048 9360 0ac2 	STS  _Y+2,R22
00204a 9370 0ac3 	STS  _Y+3,R23
00204c 9508      	RET
                 
                 ;OPTIMIZER ADDED SUBROUTINE, CALLED 4 TIMES, CODE SIZE REDUCTION:27 WORDS
                 SUBOPT_0x85:
                +
00204d e0e0     +LDI R30 , LOW ( 0xC2200000 )
00204e e0f0     +LDI R31 , HIGH ( 0xC2200000 )
00204f e260     +LDI R22 , BYTE3 ( 0xC2200000 )
002050 ec72     +LDI R23 , BYTE4 ( 0xC2200000 )
                 	__GETD1N 0xC2200000
002051 93e0 0ac8 	STS  _Z,R30
002053 93f0 0ac9 	STS  _Z+1,R31
002055 9360 0aca 	STS  _Z+2,R22
002057 9370 0acb 	STS  _Z+3,R23
002059 9508      	RET
                 
                 ;OPTIMIZER ADDED SUBROUTINE, CALLED 11 TIMES, CODE SIZE REDUCTION:57 WORDS
                 SUBOPT_0x86:
00205a 93e0 0ac8 	STS  _Z,R30
00205c 93e0 0ac9 	STS  _Z+1,R30
00205e 93e0 0aca 	STS  _Z+2,R30
002060 93e0 0acb 	STS  _Z+3,R30
002062 9508      	RET
                 
                 ;OPTIMIZER ADDED SUBROUTINE, CALLED 2 TIMES, CODE SIZE REDUCTION:1 WORDS
                 SUBOPT_0x87:
002063 940e 2712 	CALL __SAVELOCR4
                +
002065 ee08     +LDI R16 , LOW ( 1000 )
002066 e013     +LDI R17 , HIGH ( 1000 )
                 	__GETWRN 16,17,1000
                +
002067 e322     +LDI R18 , LOW ( 50 )
002068 e030     +LDI R19 , HIGH ( 50 )
                 	__GETWRN 18,19,50
002069 9508      	RET
                 
                 ;OPTIMIZER ADDED SUBROUTINE, CALLED 2 TIMES, CODE SIZE REDUCTION:73 WORDS
                 SUBOPT_0x88:
                +
00206a e4ec     +LDI R30 , LOW ( _servo + ( 36 ) )
00206b e0fa     +LDI R31 , HIGH ( _servo + ( 36 ) )
                 	__POINTW1MN _servo,36
00206c efa4      	LDI  R26,LOW(500)
00206d e0b1      	LDI  R27,HIGH(500)
00206e 83a0      	STD  Z+0,R26
00206f 83b1      	STD  Z+1,R27
                +
002070 e4ee     +LDI R30 , LOW ( _servo + ( 38 ) )
002071 e0fa     +LDI R31 , HIGH ( _servo + ( 38 ) )
                 	__POINTW1MN _servo,38
002072 eda0      	LDI  R26,LOW(2000)
002073 e0b7      	LDI  R27,HIGH(2000)
002074 83a0      	STD  Z+0,R26
002075 83b1      	STD  Z+1,R27
                +
002076 e3e2     +LDI R30 , LOW ( _servo + ( 10 ) )
002077 e0fa     +LDI R31 , HIGH ( _servo + ( 10 ) )
                 	__POINTW1MN _servo,10
002078 edac      	LDI  R26,LOW(1500)
002079 e0b5      	LDI  R27,HIGH(1500)
00207a 83a0      	STD  Z+0,R26
00207b 83b1      	STD  Z+1,R27
                +
00207c e3e0     +LDI R30 , LOW ( _servo + ( 8 ) )
00207d e0fa     +LDI R31 , HIGH ( _servo + ( 8 ) )
                 	__POINTW1MN _servo,8
00207e 83a0      	STD  Z+0,R26
00207f 83b1      	STD  Z+1,R27
                +
002080 e2ee     +LDI R30 , LOW ( _servo + ( 6 ) )
002081 e0fa     +LDI R31 , HIGH ( _servo + ( 6 ) )
                 	__POINTW1MN _servo,6
002082 83a0      	STD  Z+0,R26
002083 83b1      	STD  Z+1,R27
                +
002084 e2ec     +LDI R30 , LOW ( _servo + ( 4 ) )
002085 e0fa     +LDI R31 , HIGH ( _servo + ( 4 ) )
                 	__POINTW1MN _servo,4
002086 83a0      	STD  Z+0,R26
002087 83b1      	STD  Z+1,R27
                +
002088 e2ea     +LDI R30 , LOW ( _servo + ( 2 ) )
002089 e0fa     +LDI R31 , HIGH ( _servo + ( 2 ) )
                 	__POINTW1MN _servo,2
00208a 83a0      	STD  Z+0,R26
00208b 83b1      	STD  Z+1,R27
00208c edec      	LDI  R30,LOW(1500)
00208d e0f5      	LDI  R31,HIGH(1500)
00208e 93e0 0a28 	STS  _servo,R30
002090 93f0 0a29 	STS  _servo+1,R31
                +
002092 e3ee     +LDI R30 , LOW ( _servo + ( 22 ) )
002093 e0fa     +LDI R31 , HIGH ( _servo + ( 22 ) )
                 	__POINTW1MN _servo,22
002094 83a0      	STD  Z+0,R26
002095 83b1      	STD  Z+1,R27
                +
002096 e3ec     +LDI R30 , LOW ( _servo + ( 20 ) )
002097 e0fa     +LDI R31 , HIGH ( _servo + ( 20 ) )
                 	__POINTW1MN _servo,20
002098 83a0      	STD  Z+0,R26
002099 83b1      	STD  Z+1,R27
                +
00209a e3ea     +LDI R30 , LOW ( _servo + ( 18 ) )
00209b e0fa     +LDI R31 , HIGH ( _servo + ( 18 ) )
                 	__POINTW1MN _servo,18
00209c 83a0      	STD  Z+0,R26
00209d 83b1      	STD  Z+1,R27
                +
00209e e3e8     +LDI R30 , LOW ( _servo + ( 16 ) )
00209f e0fa     +LDI R31 , HIGH ( _servo + ( 16 ) )
                 	__POINTW1MN _servo,16
0020a0 83a0      	STD  Z+0,R26
0020a1 83b1      	STD  Z+1,R27
                +
0020a2 e3e6     +LDI R30 , LOW ( _servo + ( 14 ) )
0020a3 e0fa     +LDI R31 , HIGH ( _servo + ( 14 ) )
                 	__POINTW1MN _servo,14
0020a4 83a0      	STD  Z+0,R26
0020a5 83b1      	STD  Z+1,R27
0020a6 9508      	RET
                 
                 ;OPTIMIZER ADDED SUBROUTINE, CALLED 8 TIMES, CODE SIZE REDUCTION:39 WORDS
                 SUBOPT_0x89:
                +
0020a7 e3e4     +LDI R30 , LOW ( _servo + ( 12 ) )
0020a8 e0fa     +LDI R31 , HIGH ( _servo + ( 12 ) )
                 	__POINTW1MN _servo,12
0020a9 edac      	LDI  R26,LOW(1500)
0020aa e0b5      	LDI  R27,HIGH(1500)
0020ab 83a0      	STD  Z+0,R26
0020ac 83b1      	STD  Z+1,R27
0020ad cf1b      	RJMP SUBOPT_0x78
                 
                 ;OPTIMIZER ADDED SUBROUTINE, CALLED 22 TIMES, CODE SIZE REDUCTION:39 WORDS
                 SUBOPT_0x8A:
0020ae 83a0      	STD  Z+0,R26
0020af 83b1      	STD  Z+1,R27
                +
0020b0 e4e2     +LDI R30 , LOW ( _servo + ( 26 ) )
0020b1 e0fa     +LDI R31 , HIGH ( _servo + ( 26 ) )
                 	__POINTW1MN _servo,26
0020b2 9508      	RET
                 
                 ;OPTIMIZER ADDED SUBROUTINE, CALLED 161 TIMES, CODE SIZE REDUCTION:317 WORDS
                 SUBOPT_0x8B:
0020b3 edac      	LDI  R26,LOW(1500)
0020b4 e0b5      	LDI  R27,HIGH(1500)
0020b5 83a0      	STD  Z+0,R26
0020b6 83b1      	STD  Z+1,R27
0020b7 9508      	RET
                 
                 ;OPTIMIZER ADDED SUBROUTINE, CALLED 11 TIMES, CODE SIZE REDUCTION:17 WORDS
                 SUBOPT_0x8C:
                +
0020b8 e4e0     +LDI R30 , LOW ( _servo + ( 24 ) )
0020b9 e0fa     +LDI R31 , HIGH ( _servo + ( 24 ) )
                 	__POINTW1MN _servo,24
0020ba cff8      	RJMP SUBOPT_0x8B
                 
                 ;OPTIMIZER ADDED SUBROUTINE, CALLED 14 TIMES, CODE SIZE REDUCTION:23 WORDS
                 SUBOPT_0x8D:
                +
0020bb e4e6     +LDI R30 , LOW ( _servo + ( 30 ) )
0020bc e0fa     +LDI R31 , HIGH ( _servo + ( 30 ) )
                 	__POINTW1MN _servo,30
0020bd cff5      	RJMP SUBOPT_0x8B
                 
                 ;OPTIMIZER ADDED SUBROUTINE, CALLED 5 TIMES, CODE SIZE REDUCTION:5 WORDS
                 SUBOPT_0x8E:
                +
0020be e4e8     +LDI R30 , LOW ( _servo + ( 32 ) )
0020bf e0fa     +LDI R31 , HIGH ( _servo + ( 32 ) )
                 	__POINTW1MN _servo,32
0020c0 cff2      	RJMP SUBOPT_0x8B
                 
                 ;OPTIMIZER ADDED SUBROUTINE, CALLED 10 TIMES, CODE SIZE REDUCTION:15 WORDS
                 SUBOPT_0x8F:
                +
0020c1 e4ea     +LDI R30 , LOW ( _servo + ( 34 ) )
0020c2 e0fa     +LDI R31 , HIGH ( _servo + ( 34 ) )
                 	__POINTW1MN _servo,34
0020c3 cfef      	RJMP SUBOPT_0x8B
                 
                 ;OPTIMIZER ADDED SUBROUTINE, CALLED 20 TIMES, CODE SIZE REDUCTION:35 WORDS
                 SUBOPT_0x90:
                +
0020c4 e3e2     +LDI R30 , LOW ( _servo + ( 10 ) )
0020c5 e0fa     +LDI R31 , HIGH ( _servo + ( 10 ) )
                 	__POINTW1MN _servo,10
0020c6 cfec      	RJMP SUBOPT_0x8B
                 
                 ;OPTIMIZER ADDED SUBROUTINE, CALLED 20 TIMES, CODE SIZE REDUCTION:35 WORDS
                 SUBOPT_0x91:
                +
0020c7 e3e0     +LDI R30 , LOW ( _servo + ( 8 ) )
0020c8 e0fa     +LDI R31 , HIGH ( _servo + ( 8 ) )
                 	__POINTW1MN _servo,8
0020c9 cfe9      	RJMP SUBOPT_0x8B
                 
                 ;OPTIMIZER ADDED SUBROUTINE, CALLED 3 TIMES, CODE SIZE REDUCTION:1 WORDS
                 SUBOPT_0x92:
                +
0020ca e2ee     +LDI R30 , LOW ( _servo + ( 6 ) )
0020cb e0fa     +LDI R31 , HIGH ( _servo + ( 6 ) )
                 	__POINTW1MN _servo,6
0020cc cfe6      	RJMP SUBOPT_0x8B
                 
                 ;OPTIMIZER ADDED SUBROUTINE, CALLED 4 TIMES, CODE SIZE REDUCTION:3 WORDS
                 SUBOPT_0x93:
                +
0020cd e2ec     +LDI R30 , LOW ( _servo + ( 4 ) )
0020ce e0fa     +LDI R31 , HIGH ( _servo + ( 4 ) )
                 	__POINTW1MN _servo,4
0020cf cfe3      	RJMP SUBOPT_0x8B
                 
                 ;OPTIMIZER ADDED SUBROUTINE, CALLED 4 TIMES, CODE SIZE REDUCTION:3 WORDS
                 SUBOPT_0x94:
                +
0020d0 e2ea     +LDI R30 , LOW ( _servo + ( 2 ) )
0020d1 e0fa     +LDI R31 , HIGH ( _servo + ( 2 ) )
                 	__POINTW1MN _servo,2
0020d2 cfe0      	RJMP SUBOPT_0x8B
                 
                 ;OPTIMIZER ADDED SUBROUTINE, CALLED 16 TIMES, CODE SIZE REDUCTION:117 WORDS
                 SUBOPT_0x95:
0020d3 edec      	LDI  R30,LOW(1500)
0020d4 e0f5      	LDI  R31,HIGH(1500)
0020d5 93e0 0a28 	STS  _servo,R30
0020d7 93f0 0a29 	STS  _servo+1,R31
                +
0020d9 e3ee     +LDI R30 , LOW ( _servo + ( 22 ) )
0020da e0fa     +LDI R31 , HIGH ( _servo + ( 22 ) )
                 	__POINTW1MN _servo,22
0020db cfd7      	RJMP SUBOPT_0x8B
                 
                 ;OPTIMIZER ADDED SUBROUTINE, CALLED 20 TIMES, CODE SIZE REDUCTION:35 WORDS
                 SUBOPT_0x96:
                +
0020dc e3ec     +LDI R30 , LOW ( _servo + ( 20 ) )
0020dd e0fa     +LDI R31 , HIGH ( _servo + ( 20 ) )
                 	__POINTW1MN _servo,20
0020de cfd4      	RJMP SUBOPT_0x8B
                 
                 ;OPTIMIZER ADDED SUBROUTINE, CALLED 3 TIMES, CODE SIZE REDUCTION:1 WORDS
                 SUBOPT_0x97:
                +
0020df e3ea     +LDI R30 , LOW ( _servo + ( 18 ) )
0020e0 e0fa     +LDI R31 , HIGH ( _servo + ( 18 ) )
                 	__POINTW1MN _servo,18
0020e1 cfd1      	RJMP SUBOPT_0x8B
                 
                 ;OPTIMIZER ADDED SUBROUTINE, CALLED 4 TIMES, CODE SIZE REDUCTION:3 WORDS
                 SUBOPT_0x98:
                +
0020e2 e3e8     +LDI R30 , LOW ( _servo + ( 16 ) )
0020e3 e0fa     +LDI R31 , HIGH ( _servo + ( 16 ) )
                 	__POINTW1MN _servo,16
0020e4 cfce      	RJMP SUBOPT_0x8B
                 
                 ;OPTIMIZER ADDED SUBROUTINE, CALLED 4 TIMES, CODE SIZE REDUCTION:3 WORDS
                 SUBOPT_0x99:
                +
0020e5 e3e6     +LDI R30 , LOW ( _servo + ( 14 ) )
0020e6 e0fa     +LDI R31 , HIGH ( _servo + ( 14 ) )
                 	__POINTW1MN _servo,14
0020e7 cfcb      	RJMP SUBOPT_0x8B
                 
                 ;OPTIMIZER ADDED SUBROUTINE, CALLED 10 TIMES, CODE SIZE REDUCTION:15 WORDS
                 SUBOPT_0x9A:
0020e8 e2a0      	LDI  R26,LOW(800)
0020e9 e0b3      	LDI  R27,HIGH(800)
0020ea 83a0      	STD  Z+0,R26
0020eb 83b1      	STD  Z+1,R27
0020ec 9508      	RET
                 
                 ;OPTIMIZER ADDED SUBROUTINE, CALLED 3 TIMES, CODE SIZE REDUCTION:9 WORDS
                 SUBOPT_0x9B:
                +
0020ed e4e8     +LDI R30 , LOW ( _servo + ( 32 ) )
0020ee e0fa     +LDI R31 , HIGH ( _servo + ( 32 ) )
                 	__POINTW1MN _servo,32
0020ef e3a4      	LDI  R26,LOW(2100)
0020f0 e0b8      	LDI  R27,HIGH(2100)
0020f1 83a0      	STD  Z+0,R26
0020f2 83b1      	STD  Z+1,R27
0020f3 cfcd      	RJMP SUBOPT_0x8F
                 
                 ;OPTIMIZER ADDED SUBROUTINE, CALLED 3 TIMES, CODE SIZE REDUCTION:1 WORDS
                 SUBOPT_0x9C:
                +
0020f4 e2ee     +LDI R30 , LOW ( _servo + ( 6 ) )
0020f5 e0fa     +LDI R31 , HIGH ( _servo + ( 6 ) )
                 	__POINTW1MN _servo,6
0020f6 cff1      	RJMP SUBOPT_0x9A
                 
                 ;OPTIMIZER ADDED SUBROUTINE, CALLED 9 TIMES, CODE SIZE REDUCTION:13 WORDS
                 SUBOPT_0x9D:
0020f7 e3a4      	LDI  R26,LOW(2100)
0020f8 e0b8      	LDI  R27,HIGH(2100)
0020f9 83a0      	STD  Z+0,R26
0020fa 83b1      	STD  Z+1,R27
0020fb 9508      	RET
                 
                 ;OPTIMIZER ADDED SUBROUTINE, CALLED 14 TIMES, CODE SIZE REDUCTION:23 WORDS
                 SUBOPT_0x9E:
                +
0020fc e3e4     +LDI R30 , LOW ( _servo + ( 12 ) )
0020fd e0fa     +LDI R31 , HIGH ( _servo + ( 12 ) )
                 	__POINTW1MN _servo,12
0020fe cfb4      	RJMP SUBOPT_0x8B
                 
                 ;OPTIMIZER ADDED SUBROUTINE, CALLED 8 TIMES, CODE SIZE REDUCTION:25 WORDS
                 SUBOPT_0x9F:
                +
0020ff e4e4     +LDI R30 , LOW ( _servo + ( 28 ) )
002100 e0fa     +LDI R31 , HIGH ( _servo + ( 28 ) )
                 	__POINTW1MN _servo,28
002101 efa4      	LDI  R26,LOW(500)
002102 e0b1      	LDI  R27,HIGH(500)
002103 cfaa      	RJMP SUBOPT_0x8A
                 
                 ;OPTIMIZER ADDED SUBROUTINE, CALLED 5 TIMES, CODE SIZE REDUCTION:5 WORDS
                 SUBOPT_0xA0:
002104 eea8      	LDI  R26,LOW(1000)
002105 e0b3      	LDI  R27,HIGH(1000)
002106 83a0      	STD  Z+0,R26
002107 83b1      	STD  Z+1,R27
002108 9508      	RET
                 
                 ;OPTIMIZER ADDED SUBROUTINE, CALLED 6 TIMES, CODE SIZE REDUCTION:87 WORDS
                 SUBOPT_0xA1:
                +
002109 e2ee     +LDI R30 , LOW ( _servo + ( 6 ) )
00210a e0fa     +LDI R31 , HIGH ( _servo + ( 6 ) )
                 	__POINTW1MN _servo,6
00210b eda8      	LDI  R26,LOW(984)
00210c e0b3      	LDI  R27,HIGH(984)
00210d 83a0      	STD  Z+0,R26
00210e 83b1      	STD  Z+1,R27
                +
00210f e2ec     +LDI R30 , LOW ( _servo + ( 4 ) )
002110 e0fa     +LDI R31 , HIGH ( _servo + ( 4 ) )
                 	__POINTW1MN _servo,4
002111 ecac      	LDI  R26,LOW(2508)
002112 e0b9      	LDI  R27,HIGH(2508)
002113 83a0      	STD  Z+0,R26
002114 83b1      	STD  Z+1,R27
                +
002115 e2ea     +LDI R30 , LOW ( _servo + ( 2 ) )
002116 e0fa     +LDI R31 , HIGH ( _servo + ( 2 ) )
                 	__POINTW1MN _servo,2
002117 eeae      	LDI  R26,LOW(1006)
002118 e0b3      	LDI  R27,HIGH(1006)
002119 83a0      	STD  Z+0,R26
00211a 83b1      	STD  Z+1,R27
00211b cfb7      	RJMP SUBOPT_0x95
                 
                 ;OPTIMIZER ADDED SUBROUTINE, CALLED 4 TIMES, CODE SIZE REDUCTION:51 WORDS
                 SUBOPT_0xA2:
                +
00211c e3ea     +LDI R30 , LOW ( _servo + ( 18 ) )
00211d e0fa     +LDI R31 , HIGH ( _servo + ( 18 ) )
                 	__POINTW1MN _servo,18
00211e eda8      	LDI  R26,LOW(984)
00211f e0b3      	LDI  R27,HIGH(984)
002120 83a0      	STD  Z+0,R26
002121 83b1      	STD  Z+1,R27
                +
002122 e3e8     +LDI R30 , LOW ( _servo + ( 16 ) )
002123 e0fa     +LDI R31 , HIGH ( _servo + ( 16 ) )
                 	__POINTW1MN _servo,16
002124 ecac      	LDI  R26,LOW(2508)
002125 e0b9      	LDI  R27,HIGH(2508)
002126 83a0      	STD  Z+0,R26
002127 83b1      	STD  Z+1,R27
                +
002128 e3e6     +LDI R30 , LOW ( _servo + ( 14 ) )
002129 e0fa     +LDI R31 , HIGH ( _servo + ( 14 ) )
                 	__POINTW1MN _servo,14
00212a eeae      	LDI  R26,LOW(1006)
00212b e0b3      	LDI  R27,HIGH(1006)
00212c 83a0      	STD  Z+0,R26
00212d 83b1      	STD  Z+1,R27
00212e cf78      	RJMP SUBOPT_0x89
                 
                 ;OPTIMIZER ADDED SUBROUTINE, CALLED 4 TIMES, CODE SIZE REDUCTION:15 WORDS
                 SUBOPT_0xA3:
                +
00212f e4e8     +LDI R30 , LOW ( _servo + ( 32 ) )
002130 e0fa     +LDI R31 , HIGH ( _servo + ( 32 ) )
                 	__POINTW1MN _servo,32
002131 e8a4      	LDI  R26,LOW(900)
002132 e0b3      	LDI  R27,HIGH(900)
002133 83a0      	STD  Z+0,R26
002134 83b1      	STD  Z+1,R27
002135 cf85      	RJMP SUBOPT_0x8D
                 
                 ;OPTIMIZER ADDED SUBROUTINE, CALLED 2 TIMES, CODE SIZE REDUCTION:15 WORDS
                 SUBOPT_0xA4:
                +
002136 e3ea     +LDI R30 , LOW ( _servo + ( 18 ) )
002137 e0fa     +LDI R31 , HIGH ( _servo + ( 18 ) )
                 	__POINTW1MN _servo,18
002138 eda8      	LDI  R26,LOW(984)
002139 e0b3      	LDI  R27,HIGH(984)
00213a 83a0      	STD  Z+0,R26
00213b 83b1      	STD  Z+1,R27
                +
00213c e3e8     +LDI R30 , LOW ( _servo + ( 16 ) )
00213d e0fa     +LDI R31 , HIGH ( _servo + ( 16 ) )
                 	__POINTW1MN _servo,16
00213e ecac      	LDI  R26,LOW(2508)
00213f e0b9      	LDI  R27,HIGH(2508)
002140 83a0      	STD  Z+0,R26
002141 83b1      	STD  Z+1,R27
                +
002142 e3e6     +LDI R30 , LOW ( _servo + ( 14 ) )
002143 e0fa     +LDI R31 , HIGH ( _servo + ( 14 ) )
                 	__POINTW1MN _servo,14
002144 eeae      	LDI  R26,LOW(1006)
002145 e0b3      	LDI  R27,HIGH(1006)
002146 83a0      	STD  Z+0,R26
002147 83b1      	STD  Z+1,R27
002148 cfb3      	RJMP SUBOPT_0x9E
                 
                 ;OPTIMIZER ADDED SUBROUTINE, CALLED 8 TIMES, CODE SIZE REDUCTION:25 WORDS
                 SUBOPT_0xA5:
                +
002149 e4ea     +LDI R30 , LOW ( _servo + ( 34 ) )
00214a e0fa     +LDI R31 , HIGH ( _servo + ( 34 ) )
                 	__POINTW1MN _servo,34
00214b eca4      	LDI  R26,LOW(2500)
00214c e0b9      	LDI  R27,HIGH(2500)
00214d 83a0      	STD  Z+0,R26
00214e 83b1      	STD  Z+1,R27
00214f 9508      	RET
                 
                 ;OPTIMIZER ADDED SUBROUTINE, CALLED 6 TIMES, CODE SIZE REDUCTION:57 WORDS
                 SUBOPT_0xA6:
                +
002150 e2ee     +LDI R30 , LOW ( _servo + ( 6 ) )
002151 e0fa     +LDI R31 , HIGH ( _servo + ( 6 ) )
                 	__POINTW1MN _servo,6
002152 efa4      	LDI  R26,LOW(500)
002153 e0b1      	LDI  R27,HIGH(500)
002154 83a0      	STD  Z+0,R26
002155 83b1      	STD  Z+1,R27
                +
002156 e2ec     +LDI R30 , LOW ( _servo + ( 4 ) )
002157 e0fa     +LDI R31 , HIGH ( _servo + ( 4 ) )
                 	__POINTW1MN _servo,4
002158 ecac      	LDI  R26,LOW(2508)
002159 e0b9      	LDI  R27,HIGH(2508)
00215a 83a0      	STD  Z+0,R26
00215b 83b1      	STD  Z+1,R27
                +
00215c e2ea     +LDI R30 , LOW ( _servo + ( 2 ) )
00215d e0fa     +LDI R31 , HIGH ( _servo + ( 2 ) )
                 	__POINTW1MN _servo,2
00215e 9508      	RET
                 
                 ;OPTIMIZER ADDED SUBROUTINE, CALLED 8 TIMES, CODE SIZE REDUCTION:11 WORDS
                 SUBOPT_0xA7:
00215f eeae      	LDI  R26,LOW(1006)
002160 e0b3      	LDI  R27,HIGH(1006)
002161 83a0      	STD  Z+0,R26
002162 83b1      	STD  Z+1,R27
002163 9508      	RET
                 
                 ;OPTIMIZER ADDED SUBROUTINE, CALLED 4 TIMES, CODE SIZE REDUCTION:21 WORDS
                 SUBOPT_0xA8:
002164 ebe4      	LDI  R30,LOW(1460)
002165 e0f5      	LDI  R31,HIGH(1460)
002166 93e0 0a28 	STS  _servo,R30
002168 93f0 0a29 	STS  _servo+1,R31
                +
00216a e3ee     +LDI R30 , LOW ( _servo + ( 22 ) )
00216b e0fa     +LDI R31 , HIGH ( _servo + ( 22 ) )
                 	__POINTW1MN _servo,22
00216c cf46      	RJMP SUBOPT_0x8B
                 
                 ;OPTIMIZER ADDED SUBROUTINE, CALLED 2 TIMES, CODE SIZE REDUCTION:11 WORDS
                 SUBOPT_0xA9:
                +
00216d e3ea     +LDI R30 , LOW ( _servo + ( 18 ) )
00216e e0fa     +LDI R31 , HIGH ( _servo + ( 18 ) )
                 	__POINTW1MN _servo,18
00216f eda6      	LDI  R26,LOW(470)
002170 e0b1      	LDI  R27,HIGH(470)
002171 83a0      	STD  Z+0,R26
002172 83b1      	STD  Z+1,R27
                +
002173 e3e8     +LDI R30 , LOW ( _servo + ( 16 ) )
002174 e0fa     +LDI R31 , HIGH ( _servo + ( 16 ) )
                 	__POINTW1MN _servo,16
002175 ecac      	LDI  R26,LOW(2508)
002176 e0b9      	LDI  R27,HIGH(2508)
002177 83a0      	STD  Z+0,R26
002178 83b1      	STD  Z+1,R27
                +
002179 e3e6     +LDI R30 , LOW ( _servo + ( 14 ) )
00217a e0fa     +LDI R31 , HIGH ( _servo + ( 14 ) )
                 	__POINTW1MN _servo,14
00217b cfe3      	RJMP SUBOPT_0xA7
                 
                 ;OPTIMIZER ADDED SUBROUTINE, CALLED 2 TIMES, CODE SIZE REDUCTION:1 WORDS
                 SUBOPT_0xAA:
                +
00217c e4e4     +LDI R30 , LOW ( _servo + ( 28 ) )
00217d e0fa     +LDI R31 , HIGH ( _servo + ( 28 ) )
                 	__POINTW1MN _servo,28
00217e ecac      	LDI  R26,LOW(460)
00217f e0b1      	LDI  R27,HIGH(460)
002180 cf2d      	RJMP SUBOPT_0x8A
                 
                 ;OPTIMIZER ADDED SUBROUTINE, CALLED 2 TIMES, CODE SIZE REDUCTION:3 WORDS
                 SUBOPT_0xAB:
                +
002181 e4e0     +LDI R30 , LOW ( _servo + ( 24 ) )
002182 e0fa     +LDI R31 , HIGH ( _servo + ( 24 ) )
                 	__POINTW1MN _servo,24
002183 e4a0      	LDI  R26,LOW(1600)
002184 e0b6      	LDI  R27,HIGH(1600)
002185 83a0      	STD  Z+0,R26
002186 83b1      	STD  Z+1,R27
002187 cfc1      	RJMP SUBOPT_0xA5
                 
                 ;OPTIMIZER ADDED SUBROUTINE, CALLED 2 TIMES, CODE SIZE REDUCTION:3 WORDS
                 SUBOPT_0xAC:
                +
002188 e4e8     +LDI R30 , LOW ( _servo + ( 32 ) )
002189 e0fa     +LDI R31 , HIGH ( _servo + ( 32 ) )
                 	__POINTW1MN _servo,32
00218a e5a2      	LDI  R26,LOW(850)
00218b e0b3      	LDI  R27,HIGH(850)
00218c 83a0      	STD  Z+0,R26
00218d 83b1      	STD  Z+1,R27
00218e cf2c      	RJMP SUBOPT_0x8D
                 
                 ;OPTIMIZER ADDED SUBROUTINE, CALLED 2 TIMES, CODE SIZE REDUCTION:11 WORDS
                 SUBOPT_0xAD:
                +
00218f e2ee     +LDI R30 , LOW ( _servo + ( 6 ) )
002190 e0fa     +LDI R31 , HIGH ( _servo + ( 6 ) )
                 	__POINTW1MN _servo,6
002191 eea0      	LDI  R26,LOW(480)
002192 e0b1      	LDI  R27,HIGH(480)
002193 83a0      	STD  Z+0,R26
002194 83b1      	STD  Z+1,R27
                +
002195 e2ec     +LDI R30 , LOW ( _servo + ( 4 ) )
002196 e0fa     +LDI R31 , HIGH ( _servo + ( 4 ) )
                 	__POINTW1MN _servo,4
002197 ecac      	LDI  R26,LOW(2508)
002198 e0b9      	LDI  R27,HIGH(2508)
002199 83a0      	STD  Z+0,R26
00219a 83b1      	STD  Z+1,R27
                +
00219b e2ea     +LDI R30 , LOW ( _servo + ( 2 ) )
00219c e0fa     +LDI R31 , HIGH ( _servo + ( 2 ) )
                 	__POINTW1MN _servo,2
00219d cfc1      	RJMP SUBOPT_0xA7
                 
                 ;OPTIMIZER ADDED SUBROUTINE, CALLED 6 TIMES, CODE SIZE REDUCTION:57 WORDS
                 SUBOPT_0xAE:
                +
00219e e3ea     +LDI R30 , LOW ( _servo + ( 18 ) )
00219f e0fa     +LDI R31 , HIGH ( _servo + ( 18 ) )
                 	__POINTW1MN _servo,18
0021a0 efa4      	LDI  R26,LOW(500)
0021a1 e0b1      	LDI  R27,HIGH(500)
0021a2 83a0      	STD  Z+0,R26
0021a3 83b1      	STD  Z+1,R27
                +
0021a4 e3e8     +LDI R30 , LOW ( _servo + ( 16 ) )
0021a5 e0fa     +LDI R31 , HIGH ( _servo + ( 16 ) )
                 	__POINTW1MN _servo,16
0021a6 ecac      	LDI  R26,LOW(2508)
0021a7 e0b9      	LDI  R27,HIGH(2508)
0021a8 83a0      	STD  Z+0,R26
0021a9 83b1      	STD  Z+1,R27
                +
0021aa e3e6     +LDI R30 , LOW ( _servo + ( 14 ) )
0021ab e0fa     +LDI R31 , HIGH ( _servo + ( 14 ) )
                 	__POINTW1MN _servo,14
0021ac 9508      	RET
                 
                 ;OPTIMIZER ADDED SUBROUTINE, CALLED 2 TIMES, CODE SIZE REDUCTION:7 WORDS
                 SUBOPT_0xAF:
0021ad e6a6      	LDI  R26,LOW(2150)
0021ae e0b8      	LDI  R27,HIGH(2150)
0021af 83a0      	STD  Z+0,R26
0021b0 83b1      	STD  Z+1,R27
                +
0021b1 e4e0     +LDI R30 , LOW ( _servo + ( 24 ) )
0021b2 e0fa     +LDI R31 , HIGH ( _servo + ( 24 ) )
                 	__POINTW1MN _servo,24
0021b3 eaa4      	LDI  R26,LOW(1700)
0021b4 e0b6      	LDI  R27,HIGH(1700)
0021b5 83a0      	STD  Z+0,R26
0021b6 83b1      	STD  Z+1,R27
0021b7 cf91      	RJMP SUBOPT_0xA5
                 
                 ;OPTIMIZER ADDED SUBROUTINE, CALLED 2 TIMES, CODE SIZE REDUCTION:4 WORDS
                 SUBOPT_0xB0:
                +
0021b8 e4e6     +LDI R30 , LOW ( _servo + ( 30 ) )
0021b9 e0fa     +LDI R31 , HIGH ( _servo + ( 30 ) )
                 	__POINTW1MN _servo,30
0021ba e7a8      	LDI  R26,LOW(1400)
0021bb e0b5      	LDI  R27,HIGH(1400)
0021bc 83a0      	STD  Z+0,R26
0021bd 83b1      	STD  Z+1,R27
0021be 01d8      	MOVW R26,R16
0021bf 940c 241f 	JMP  _delay_ms
                 
                 ;OPTIMIZER ADDED SUBROUTINE, CALLED 8 TIMES, CODE SIZE REDUCTION:11 WORDS
                 SUBOPT_0xB1:
0021c1 e1aa      	LDI  R26,LOW(1306)
0021c2 e0b5      	LDI  R27,HIGH(1306)
0021c3 83a0      	STD  Z+0,R26
0021c4 83b1      	STD  Z+1,R27
0021c5 9508      	RET
                 
                 ;OPTIMIZER ADDED SUBROUTINE, CALLED 6 TIMES, CODE SIZE REDUCTION:7 WORDS
                 SUBOPT_0xB2:
                +
0021c6 e4e0     +LDI R30 , LOW ( _servo + ( 24 ) )
0021c7 e0fa     +LDI R31 , HIGH ( _servo + ( 24 ) )
                 	__POINTW1MN _servo,24
0021c8 cd8f      	RJMP SUBOPT_0x6F
                 
                 ;OPTIMIZER ADDED SUBROUTINE, CALLED 2 TIMES, CODE SIZE REDUCTION:10 WORDS
                 SUBOPT_0xB3:
                +
0021c9 e4e8     +LDI R30 , LOW ( _servo + ( 32 ) )
0021ca e0fa     +LDI R31 , HIGH ( _servo + ( 32 ) )
                 	__POINTW1MN _servo,32
0021cb e8a4      	LDI  R26,LOW(900)
0021cc e0b3      	LDI  R27,HIGH(900)
0021cd 83a0      	STD  Z+0,R26
0021ce 83b1      	STD  Z+1,R27
                +
0021cf e4e6     +LDI R30 , LOW ( _servo + ( 30 ) )
0021d0 e0fa     +LDI R31 , HIGH ( _servo + ( 30 ) )
                 	__POINTW1MN _servo,30
0021d1 eba0      	LDI  R26,LOW(1200)
0021d2 e0b4      	LDI  R27,HIGH(1200)
0021d3 83a0      	STD  Z+0,R26
0021d4 83b1      	STD  Z+1,R27
0021d5 01d8      	MOVW R26,R16
0021d6 940c 241f 	JMP  _delay_ms
                 
                 ;OPTIMIZER ADDED SUBROUTINE, CALLED 2 TIMES, CODE SIZE REDUCTION:1 WORDS
                 SUBOPT_0xB4:
                +
0021d8 e4e4     +LDI R30 , LOW ( _servo + ( 28 ) )
0021d9 e0fa     +LDI R31 , HIGH ( _servo + ( 28 ) )
                 	__POINTW1MN _servo,28
0021da e4a0      	LDI  R26,LOW(1600)
0021db e0b6      	LDI  R27,HIGH(1600)
0021dc ced1      	RJMP SUBOPT_0x8A
                 
                 ;OPTIMIZER ADDED SUBROUTINE, CALLED 2 TIMES, CODE SIZE REDUCTION:16 WORDS
                 SUBOPT_0xB5:
                +
0021dd e4ea     +LDI R30 , LOW ( _servo + ( 34 ) )
0021de e0fa     +LDI R31 , HIGH ( _servo + ( 34 ) )
                 	__POINTW1MN _servo,34
0021df e7a8      	LDI  R26,LOW(1400)
0021e0 e0b5      	LDI  R27,HIGH(1400)
0021e1 83a0      	STD  Z+0,R26
0021e2 83b1      	STD  Z+1,R27
                +
0021e3 e4e8     +LDI R30 , LOW ( _servo + ( 32 ) )
0021e4 e0fa     +LDI R31 , HIGH ( _servo + ( 32 ) )
                 	__POINTW1MN _servo,32
0021e5 eda0      	LDI  R26,LOW(2000)
0021e6 e0b7      	LDI  R27,HIGH(2000)
0021e7 83a0      	STD  Z+0,R26
0021e8 83b1      	STD  Z+1,R27
                +
0021e9 e4e6     +LDI R30 , LOW ( _servo + ( 30 ) )
0021ea e0fa     +LDI R31 , HIGH ( _servo + ( 30 ) )
                 	__POINTW1MN _servo,30
0021eb eba0      	LDI  R26,LOW(1200)
0021ec e0b4      	LDI  R27,HIGH(1200)
0021ed 83a0      	STD  Z+0,R26
0021ee 83b1      	STD  Z+1,R27
0021ef 01d8      	MOVW R26,R16
0021f0 940c 241f 	JMP  _delay_ms
                 
                 ;OPTIMIZER ADDED SUBROUTINE, CALLED 2 TIMES, CODE SIZE REDUCTION:9 WORDS
                 SUBOPT_0xB6:
                +
0021f2 e2ec     +LDI R30 , LOW ( _servo + ( 4 ) )
0021f3 e0fa     +LDI R31 , HIGH ( _servo + ( 4 ) )
                 	__POINTW1MN _servo,4
0021f4 ecac      	LDI  R26,LOW(2508)
0021f5 e0b9      	LDI  R27,HIGH(2508)
0021f6 83a0      	STD  Z+0,R26
0021f7 83b1      	STD  Z+1,R27
                +
0021f8 e2ea     +LDI R30 , LOW ( _servo + ( 2 ) )
0021f9 e0fa     +LDI R31 , HIGH ( _servo + ( 2 ) )
                 	__POINTW1MN _servo,2
0021fa e2a0      	LDI  R26,LOW(1056)
0021fb e0b4      	LDI  R27,HIGH(1056)
0021fc 83a0      	STD  Z+0,R26
0021fd 83b1      	STD  Z+1,R27
0021fe ced4      	RJMP SUBOPT_0x95
                 
                 ;OPTIMIZER ADDED SUBROUTINE, CALLED 2 TIMES, CODE SIZE REDUCTION:9 WORDS
                 SUBOPT_0xB7:
                +
0021ff e3e8     +LDI R30 , LOW ( _servo + ( 16 ) )
002200 e0fa     +LDI R31 , HIGH ( _servo + ( 16 ) )
                 	__POINTW1MN _servo,16
002201 ecac      	LDI  R26,LOW(2508)
002202 e0b9      	LDI  R27,HIGH(2508)
002203 83a0      	STD  Z+0,R26
002204 83b1      	STD  Z+1,R27
                +
002205 e3e6     +LDI R30 , LOW ( _servo + ( 14 ) )
002206 e0fa     +LDI R31 , HIGH ( _servo + ( 14 ) )
                 	__POINTW1MN _servo,14
002207 e2a0      	LDI  R26,LOW(1056)
002208 e0b4      	LDI  R27,HIGH(1056)
002209 83a0      	STD  Z+0,R26
00220a 83b1      	STD  Z+1,R27
00220b cef0      	RJMP SUBOPT_0x9E
                 
                 ;OPTIMIZER ADDED SUBROUTINE, CALLED 2 TIMES, CODE SIZE REDUCTION:1 WORDS
                 SUBOPT_0xB8:
                +
00220c e4e4     +LDI R30 , LOW ( _servo + ( 28 ) )
00220d e0fa     +LDI R31 , HIGH ( _servo + ( 28 ) )
                 	__POINTW1MN _servo,28
00220e eba0      	LDI  R26,LOW(1200)
00220f e0b4      	LDI  R27,HIGH(1200)
002210 ce9d      	RJMP SUBOPT_0x8A
                 
                 ;OPTIMIZER ADDED SUBROUTINE, CALLED 2 TIMES, CODE SIZE REDUCTION:12 WORDS
                 SUBOPT_0xB9:
                +
002211 e4e8     +LDI R30 , LOW ( _servo + ( 32 ) )
002212 e0fa     +LDI R31 , HIGH ( _servo + ( 32 ) )
                 	__POINTW1MN _servo,32
002213 eda0      	LDI  R26,LOW(2000)
002214 e0b7      	LDI  R27,HIGH(2000)
002215 83a0      	STD  Z+0,R26
002216 83b1      	STD  Z+1,R27
                +
002217 e4e6     +LDI R30 , LOW ( _servo + ( 30 ) )
002218 e0fa     +LDI R31 , HIGH ( _servo + ( 30 ) )
                 	__POINTW1MN _servo,30
002219 eba0      	LDI  R26,LOW(1200)
00221a e0b4      	LDI  R27,HIGH(1200)
00221b 83a0      	STD  Z+0,R26
00221c 83b1      	STD  Z+1,R27
00221d 01d8      	MOVW R26,R16
00221e 940e 241f 	CALL _delay_ms
002220 24dd      	CLR  R13
002221 24ee      	CLR  R14
002222 9508      	RET
                 
                 ;OPTIMIZER ADDED SUBROUTINE, CALLED 7 TIMES, CODE SIZE REDUCTION:69 WORDS
                 SUBOPT_0xBA:
002223 93e0 0ac8 	STS  _Z,R30
002225 93f0 0ac9 	STS  _Z+1,R31
002227 9360 0aca 	STS  _Z+2,R22
002229 9370 0acb 	STS  _Z+3,R23
                +
00222b ebec     +LDI R30 , LOW ( _X + ( 4 ) )
00222c e0fa     +LDI R31 , HIGH ( _X + ( 4 ) )
                 	__POINTW1MN _X,4
00222d ddbc      	RCALL SUBOPT_0x7A
00222e cdc0      	RJMP SUBOPT_0x7B
                 
                 ;OPTIMIZER ADDED SUBROUTINE, CALLED 8 TIMES, CODE SIZE REDUCTION:11 WORDS
                 SUBOPT_0xBB:
00222f da3d      	RCALL SUBOPT_0x14
002230 940c 0b81 	JMP  _InputXYZ
                 
                 ;OPTIMIZER ADDED SUBROUTINE, CALLED 4 TIMES, CODE SIZE REDUCTION:3 WORDS
                 SUBOPT_0xBC:
                +
002232 ebec     +LDI R30 , LOW ( _X + ( 4 ) )
002233 e0fa     +LDI R31 , HIGH ( _X + ( 4 ) )
                 	__POINTW1MN _X,4
002234 cdb5      	RJMP SUBOPT_0x7A
                 
                 ;OPTIMIZER ADDED SUBROUTINE, CALLED 3 TIMES, CODE SIZE REDUCTION:1 WORDS
                 SUBOPT_0xBD:
                +
002235 e0e0     +LDI R30 , LOW ( 0xC1200000 )
002236 e0f0     +LDI R31 , HIGH ( 0xC1200000 )
002237 e260     +LDI R22 , BYTE3 ( 0xC1200000 )
002238 ec71     +LDI R23 , BYTE4 ( 0xC1200000 )
                 	__GETD1N 0xC1200000
002239 9508      	RET
                 
                 ;OPTIMIZER ADDED SUBROUTINE, CALLED 5 TIMES, CODE SIZE REDUCTION:5 WORDS
                 SUBOPT_0xBE:
                +
00223a e0a0     +LDI R26 , LOW ( 0xC1200000 )
00223b e0b0     +LDI R27 , HIGH ( 0xC1200000 )
00223c e280     +LDI R24 , BYTE3 ( 0xC1200000 )
00223d ec91     +LDI R25 , BYTE4 ( 0xC1200000 )
                 	__GETD2N 0xC1200000
00223e 9508      	RET
                 
                 ;OPTIMIZER ADDED SUBROUTINE, CALLED 2 TIMES, CODE SIZE REDUCTION:1 WORDS
                 SUBOPT_0xBF:
                +
00223f e4e4     +LDI R30 , LOW ( _servo + ( 28 ) )
002240 e0fa     +LDI R31 , HIGH ( _servo + ( 28 ) )
                 	__POINTW1MN _servo,28
002241 e4a0      	LDI  R26,LOW(1600)
002242 e0b6      	LDI  R27,HIGH(1600)
002243 cd19      	RJMP SUBOPT_0x70
                 
                 ;OPTIMIZER ADDED SUBROUTINE, CALLED 2 TIMES, CODE SIZE REDUCTION:3 WORDS
                 SUBOPT_0xC0:
002244 93e0 0a90 	STS  _VY,R30
002246 93f0 0a91 	STS  _VY+1,R31
002248 9360 0a92 	STS  _VY+2,R22
00224a 9370 0a93 	STS  _VY+3,R23
00224c 9508      	RET
                 
                 ;OPTIMIZER ADDED SUBROUTINE, CALLED 4 TIMES, CODE SIZE REDUCTION:27 WORDS
                 SUBOPT_0xC1:
                +
00224d e0e0     +LDI R30 , LOW ( 0x41200000 )
00224e e0f0     +LDI R31 , HIGH ( 0x41200000 )
00224f e260     +LDI R22 , BYTE3 ( 0x41200000 )
002250 e471     +LDI R23 , BYTE4 ( 0x41200000 )
                 	__GETD1N 0x41200000
002251 93e0 0ab8 	STS  _X,R30
002253 93f0 0ab9 	STS  _X+1,R31
002255 9360 0aba 	STS  _X+2,R22
002257 9370 0abb 	STS  _X+3,R23
002259 9508      	RET
                 
                 ;OPTIMIZER ADDED SUBROUTINE, CALLED 6 TIMES, CODE SIZE REDUCTION:12 WORDS
                 SUBOPT_0xC2:
00225a e0e0      	LDI  R30,LOW(0)
00225b ddfe      	RCALL SUBOPT_0x86
                +
00225c ebec     +LDI R30 , LOW ( _X + ( 4 ) )
00225d e0fa     +LDI R31 , HIGH ( _X + ( 4 ) )
                 	__POINTW1MN _X,4
00225e 9508      	RET
                 
                 ;OPTIMIZER ADDED SUBROUTINE, CALLED 9 TIMES, CODE SIZE REDUCTION:45 WORDS
                 SUBOPT_0xC3:
00225f 91e0 0a90 	LDS  R30,_VY
002261 91f0 0a91 	LDS  R31,_VY+1
002263 9160 0a92 	LDS  R22,_VY+2
002265 9170 0a93 	LDS  R23,_VY+3
002267 9508      	RET
                 
                 ;OPTIMIZER ADDED SUBROUTINE, CALLED 5 TIMES, CODE SIZE REDUCTION:21 WORDS
                 SUBOPT_0xC4:
002268 93e0 0ac0 	STS  _Y,R30
00226a 93f0 0ac1 	STS  _Y+1,R31
00226c 9360 0ac2 	STS  _Y+2,R22
00226e 9370 0ac3 	STS  _Y+3,R23
002270 9508      	RET
                 
                 ;OPTIMIZER ADDED SUBROUTINE, CALLED 2 TIMES, CODE SIZE REDUCTION:1 WORDS
                 SUBOPT_0xC5:
002271 dda0      	RCALL SUBOPT_0x7D
002272 d9fa      	RCALL SUBOPT_0x14
002273 cfeb      	RJMP SUBOPT_0xC3
                 
                 ;OPTIMIZER ADDED SUBROUTINE, CALLED 2 TIMES, CODE SIZE REDUCTION:5 WORDS
                 SUBOPT_0xC6:
002274 93e0 0ab8 	STS  _X,R30
002276 93e0 0ab9 	STS  _X+1,R30
002278 93e0 0aba 	STS  _X+2,R30
00227a 93e0 0abb 	STS  _X+3,R30
00227c cdb9      	RJMP SUBOPT_0x83
                 
                 ;OPTIMIZER ADDED SUBROUTINE, CALLED 3 TIMES, CODE SIZE REDUCTION:3 WORDS
                 SUBOPT_0xC7:
00227d e0e0      	LDI  R30,LOW(0)
00227e dddb      	RCALL SUBOPT_0x86
00227f cfb2      	RJMP SUBOPT_0xBC
                 
                 ;OPTIMIZER ADDED SUBROUTINE, CALLED 3 TIMES, CODE SIZE REDUCTION:1 WORDS
                 SUBOPT_0xC8:
                +
002280 ece4     +LDI R30 , LOW ( _Y + ( 4 ) )
002281 e0fa     +LDI R31 , HIGH ( _Y + ( 4 ) )
                 	__POINTW1MN _Y,4
002282 cd67      	RJMP SUBOPT_0x7A
                 
                 ;OPTIMIZER ADDED SUBROUTINE, CALLED 4 TIMES, CODE SIZE REDUCTION:15 WORDS
                 SUBOPT_0xC9:
002283 91e0 0a8c 	LDS  R30,_VX
002285 91f0 0a8d 	LDS  R31,_VX+1
002287 9160 0a8e 	LDS  R22,_VX+2
002289 9170 0a8f 	LDS  R23,_VX+3
00228b 9508      	RET
                 
                 ;OPTIMIZER ADDED SUBROUTINE, CALLED 6 TIMES, CODE SIZE REDUCTION:27 WORDS
                 SUBOPT_0xCA:
00228c 93e0 0ab8 	STS  _X,R30
00228e 93f0 0ab9 	STS  _X+1,R31
002290 9360 0aba 	STS  _X+2,R22
002292 9370 0abb 	STS  _X+3,R23
002294 9508      	RET
                 
                 ;OPTIMIZER ADDED SUBROUTINE, CALLED 2 TIMES, CODE SIZE REDUCTION:9 WORDS
                 SUBOPT_0xCB:
002295 dfed      	RCALL SUBOPT_0xC9
002296 940e 2429 	CALL __ANEGF1
                +
002298 93e0 0abc+STS _X + ( 4 ) , R30
00229a 93f0 0abd+STS _X + ( 4 ) + 1 , R31
00229c 9360 0abe+STS _X + ( 4 ) + 2 , R22
00229e 9370 0abf+STS _X + ( 4 ) + 3 , R23
                 	__PUTD1MN _X,4
0022a0 cfdf      	RJMP SUBOPT_0xC8
                 
                 ;OPTIMIZER ADDED SUBROUTINE, CALLED 3 TIMES, CODE SIZE REDUCTION:5 WORDS
                 SUBOPT_0xCC:
0022a1 dfea      	RCALL SUBOPT_0xCA
0022a2 dfbc      	RCALL SUBOPT_0xC3
0022a3 cfc4      	RJMP SUBOPT_0xC4
                 
                 ;OPTIMIZER ADDED SUBROUTINE, CALLED 2 TIMES, CODE SIZE REDUCTION:3 WORDS
                 SUBOPT_0xCD:
                +
0022a4 e0e0     +LDI R30 , LOW ( 0xC1700000 )
0022a5 e0f0     +LDI R31 , HIGH ( 0xC1700000 )
0022a6 e760     +LDI R22 , BYTE3 ( 0xC1700000 )
0022a7 ec71     +LDI R23 , BYTE4 ( 0xC1700000 )
                 	__GETD1N 0xC1700000
0022a8 dfe3      	RCALL SUBOPT_0xCA
0022a9 cd8c      	RJMP SUBOPT_0x83
                 
                 ;OPTIMIZER ADDED SUBROUTINE, CALLED 2 TIMES, CODE SIZE REDUCTION:1 WORDS
                 SUBOPT_0xCE:
                +
0022aa ece4     +LDI R30 , LOW ( _Y + ( 4 ) )
0022ab e0fa     +LDI R31 , HIGH ( _Y + ( 4 ) )
                 	__POINTW1MN _Y,4
                +
0022ac e0a0     +LDI R26 , LOW ( 0x41C80000 )
0022ad e0b0     +LDI R27 , HIGH ( 0x41C80000 )
0022ae ec88     +LDI R24 , BYTE3 ( 0x41C80000 )
0022af e491     +LDI R25 , BYTE4 ( 0x41C80000 )
                 	__GETD2N 0x41C80000
0022b0 9508      	RET
                 
                 ;OPTIMIZER ADDED SUBROUTINE, CALLED 2 TIMES, CODE SIZE REDUCTION:2 WORDS
                 SUBOPT_0xCF:
0022b1 93ba      	ST   -Y,R27
0022b2 93aa      	ST   -Y,R26
0022b3 9724      	SBIW R28,4
0022b4 e0e0      	LDI  R30,LOW(0)
0022b5 83e8      	ST   Y,R30
0022b6 83e9      	STD  Y+1,R30
0022b7 9508      	RET
                 
                 ;OPTIMIZER ADDED SUBROUTINE, CALLED 4 TIMES, CODE SIZE REDUCTION:33 WORDS
                 SUBOPT_0xD0:
                +
0022b8 81ac     +LDD R26 , Y + 4
0022b9 81bd     +LDD R27 , Y + 4 + 1
0022ba 818e     +LDD R24 , Y + 4 + 2
0022bb 819f     +LDD R25 , Y + 4 + 3
                 	__GETD2S 4
                +
0022bc e0e0     +LDI R30 , LOW ( 0x41200000 )
0022bd e0f0     +LDI R31 , HIGH ( 0x41200000 )
0022be e260     +LDI R22 , BYTE3 ( 0x41200000 )
0022bf e471     +LDI R23 , BYTE4 ( 0x41200000 )
                 	__GETD1N 0x41200000
0022c0 940e 251f 	CALL __MULF12
                +
0022c2 83ec     +STD Y + 4 , R30
0022c3 83fd     +STD Y + 4 + 1 , R31
0022c4 836e     +STD Y + 4 + 2 , R22
0022c5 837f     +STD Y + 4 + 3 , R23
                 	__PUTD1S 4
0022c6 9508      	RET
                 
                 ;OPTIMIZER ADDED SUBROUTINE, CALLED 4 TIMES, CODE SIZE REDUCTION:21 WORDS
                 SUBOPT_0xD1:
                +
0022c7 81ec     +LDD R30 , Y + 4
0022c8 81fd     +LDD R31 , Y + 4 + 1
0022c9 816e     +LDD R22 , Y + 4 + 2
0022ca 817f     +LDD R23 , Y + 4 + 3
                 	__GETD1S 4
                +
0022cb 85ac     +LDD R26 , Y + 12
0022cc 85bd     +LDD R27 , Y + 12 + 1
0022cd 858e     +LDD R24 , Y + 12 + 2
0022ce 859f     +LDD R25 , Y + 12 + 3
                 	__GETD2S 12
0022cf 940e 25b2 	CALL __CMPF12
0022d1 9508      	RET
                 
                 ;OPTIMIZER ADDED SUBROUTINE, CALLED 5 TIMES, CODE SIZE REDUCTION:5 WORDS
                 SUBOPT_0xD2:
                +
0022d2 85ac     +LDD R26 , Y + 12
0022d3 85bd     +LDD R27 , Y + 12 + 1
0022d4 858e     +LDD R24 , Y + 12 + 2
0022d5 859f     +LDD R25 , Y + 12 + 3
                 	__GETD2S 12
0022d6 9508      	RET
                 
                 ;OPTIMIZER ADDED SUBROUTINE, CALLED 2 TIMES, CODE SIZE REDUCTION:6 WORDS
                 SUBOPT_0xD3:
                +
0022d7 eced     +LDI R30 , LOW ( 0x3DCCCCCD )
0022d8 ecfc     +LDI R31 , HIGH ( 0x3DCCCCCD )
0022d9 ec6c     +LDI R22 , BYTE3 ( 0x3DCCCCCD )
0022da e37d     +LDI R23 , BYTE4 ( 0x3DCCCCCD )
                 	__GETD1N 0x3DCCCCCD
0022db 940e 251f 	CALL __MULF12
                +
0022dd 87ec     +STD Y + 12 , R30
0022de 87fd     +STD Y + 12 + 1 , R31
0022df 876e     +STD Y + 12 + 2 , R22
0022e0 877f     +STD Y + 12 + 3 , R23
                 	__PUTD1S 12
0022e1 5f3f      	SUBI R19,-LOW(1)
0022e2 9508      	RET
                 
                 ;OPTIMIZER ADDED SUBROUTINE, CALLED 3 TIMES, CODE SIZE REDUCTION:5 WORDS
                 SUBOPT_0xD4:
                +
0022e3 e0e0     +LDI R30 , LOW ( 0x41200000 )
0022e4 e0f0     +LDI R31 , HIGH ( 0x41200000 )
0022e5 e260     +LDI R22 , BYTE3 ( 0x41200000 )
0022e6 e471     +LDI R23 , BYTE4 ( 0x41200000 )
                 	__GETD1N 0x41200000
0022e7 940e 251f 	CALL __MULF12
0022e9 9508      	RET
                 
                 ;OPTIMIZER ADDED SUBROUTINE, CALLED 3 TIMES, CODE SIZE REDUCTION:1 WORDS
                 SUBOPT_0xD5:
                +
0022ea 87ec     +STD Y + 12 , R30
0022eb 87fd     +STD Y + 12 + 1 , R31
0022ec 876e     +STD Y + 12 + 2 , R22
0022ed 877f     +STD Y + 12 + 3 , R23
                 	__PUTD1S 12
0022ee 9508      	RET
                 
                 ;OPTIMIZER ADDED SUBROUTINE, CALLED 3 TIMES, CODE SIZE REDUCTION:5 WORDS
                 SUBOPT_0xD6:
                +
0022ef e0a0     +LDI R26 , LOW ( 0x3F000000 )
0022f0 e0b0     +LDI R27 , HIGH ( 0x3F000000 )
0022f1 e080     +LDI R24 , BYTE3 ( 0x3F000000 )
0022f2 e39f     +LDI R25 , BYTE4 ( 0x3F000000 )
                 	__GETD2N 0x3F000000
0022f3 940e 24cf 	CALL __ADDF12
0022f5 9508      	RET
                 
                 ;OPTIMIZER ADDED SUBROUTINE, CALLED 5 TIMES, CODE SIZE REDUCTION:5 WORDS
                 SUBOPT_0xD7:
                +
0022f6 81ac     +LDD R26 , Y + 4
0022f7 81bd     +LDD R27 , Y + 4 + 1
0022f8 818e     +LDD R24 , Y + 4 + 2
0022f9 819f     +LDD R25 , Y + 4 + 3
                 	__GETD2S 4
0022fa 9508      	RET
                 
                 ;OPTIMIZER ADDED SUBROUTINE, CALLED 3 TIMES, CODE SIZE REDUCTION:5 WORDS
                 SUBOPT_0xD8:
                +
0022fb eced     +LDI R30 , LOW ( 0x3DCCCCCD )
0022fc ecfc     +LDI R31 , HIGH ( 0x3DCCCCCD )
0022fd ec6c     +LDI R22 , BYTE3 ( 0x3DCCCCCD )
0022fe e37d     +LDI R23 , BYTE4 ( 0x3DCCCCCD )
                 	__GETD1N 0x3DCCCCCD
0022ff 940e 251f 	CALL __MULF12
002301 9508      	RET
                 
                 ;OPTIMIZER ADDED SUBROUTINE, CALLED 4 TIMES, CODE SIZE REDUCTION:3 WORDS
                 SUBOPT_0xD9:
                +
002302 81ec     +LDD R30 , Y + 4
002303 81fd     +LDD R31 , Y + 4 + 1
002304 816e     +LDD R22 , Y + 4 + 2
002305 817f     +LDD R23 , Y + 4 + 3
                 	__GETD1S 4
002306 9508      	RET
                 
                 ;OPTIMIZER ADDED SUBROUTINE, CALLED 2 TIMES, CODE SIZE REDUCTION:1 WORDS
                 SUBOPT_0xDA:
002307 85a8      	LDD  R26,Y+8
002308 85b9      	LDD  R27,Y+8+1
002309 9611      	ADIW R26,1
00230a 87a8      	STD  Y+8,R26
00230b 87b9      	STD  Y+8+1,R27
00230c 9711      	SBIW R26,1
00230d 9508      	RET
                 
                 ;OPTIMIZER ADDED SUBROUTINE, CALLED 3 TIMES, CODE SIZE REDUCTION:1 WORDS
                 SUBOPT_0xDB:
00230e 2fe0      	MOV  R30,R16
00230f 5de0      	SUBI R30,-LOW(48)
002310 93ec      	ST   X,R30
002311 2fe0      	MOV  R30,R16
002312 9508      	RET
                 
                 ;OPTIMIZER ADDED SUBROUTINE, CALLED 3 TIMES, CODE SIZE REDUCTION:1 WORDS
                 SUBOPT_0xDC:
002313 dfe2      	RCALL SUBOPT_0xD7
002314 940e 251f 	CALL __MULF12
002316 9508      	RET
                 
                 ;OPTIMIZER ADDED SUBROUTINE, CALLED 4 TIMES, CODE SIZE REDUCTION:6 WORDS
                 SUBOPT_0xDD:
002317 85e8      	LDD  R30,Y+8
002318 85f9      	LDD  R31,Y+8+1
002319 9631      	ADIW R30,1
00231a 87e8      	STD  Y+8,R30
00231b 87f9      	STD  Y+8+1,R31
00231c 9508      	RET
                 
                 ;OPTIMIZER ADDED SUBROUTINE, CALLED 5 TIMES, CODE SIZE REDUCTION:13 WORDS
                 SUBOPT_0xDE:
00231d 932a      	ST   -Y,R18
00231e 81af      	LDD  R26,Y+7
00231f 85b8      	LDD  R27,Y+7+1
002320 85e9      	LDD  R30,Y+9
002321 85fa      	LDD  R31,Y+9+1
002322 9509      	ICALL
002323 9508      	RET
                 
                 ;OPTIMIZER ADDED SUBROUTINE, CALLED 8 TIMES, CODE SIZE REDUCTION:25 WORDS
                 SUBOPT_0xDF:
                +
002324 01fe     +MOVW R30 , R28
002325 5ae6     +SUBI R30 , LOW ( - 90 )
002326 4fff     +SBCI R31 , HIGH ( - 90 )
002327 9001     +LD R0 , Z +
002328 81f0     +LD R31 , Z
002329 2de0     +MOV R30 , R0
                 	__GETW1SX 90
00232a 9508      	RET
                 
                 ;OPTIMIZER ADDED SUBROUTINE, CALLED 7 TIMES, CODE SIZE REDUCTION:21 WORDS
                 SUBOPT_0xE0:
00232b 9734      	SBIW R30,4
                +
00232c 01de     +MOVW R26 , R28
00232d 5aa6     +SUBI R26 , LOW ( - 90 )
00232e 4fbf     +SBCI R27 , HIGH ( - 90 )
00232f 93ed     +ST X + , R30
002330 93fc     +ST X , R31
                 	__PUTW1SX 90
002331 9508      	RET
                 
                 ;OPTIMIZER ADDED SUBROUTINE, CALLED 4 TIMES, CODE SIZE REDUCTION:6 WORDS
                 SUBOPT_0xE1:
002332 81af      	LDD  R26,Y+7
002333 85b8      	LDD  R27,Y+7+1
002334 85e9      	LDD  R30,Y+9
002335 85fa      	LDD  R31,Y+9+1
002336 9509      	ICALL
002337 9508      	RET
                 
                 ;OPTIMIZER ADDED SUBROUTINE, CALLED 6 TIMES, CODE SIZE REDUCTION:17 WORDS
                 SUBOPT_0xE2:
                +
002338 01de     +MOVW R26 , R28
002339 5aa6     +SUBI R26 , LOW ( - 90 )
00233a 4fbf     +SBCI R27 , HIGH ( - 90 )
00233b 900d     +LD R0 , X +
00233c 91bc     +LD R27 , X
00233d 2da0     +MOV R26 , R0
                 	__GETW2SX 90
00233e 9508      	RET
                 
                 ;OPTIMIZER ADDED SUBROUTINE, CALLED 4 TIMES, CODE SIZE REDUCTION:3 WORDS
                 SUBOPT_0xE3:
                +
00233f 87ea     +STD Y + 10 , R30
002340 87fb     +STD Y + 10 + 1 , R31
002341 876c     +STD Y + 10 + 2 , R22
002342 877d     +STD Y + 10 + 3 , R23
                 	__PUTD1S 10
002343 9508      	RET
                 
                 ;OPTIMIZER ADDED SUBROUTINE, CALLED 6 TIMES, CODE SIZE REDUCTION:7 WORDS
                 SUBOPT_0xE4:
002344 dfdf      	RCALL SUBOPT_0xDF
002345 cfe5      	RJMP SUBOPT_0xE0
                 
                 ;OPTIMIZER ADDED SUBROUTINE, CALLED 4 TIMES, CODE SIZE REDUCTION:3 WORDS
                 SUBOPT_0xE5:
                +
002346 85ea     +LDD R30 , Y + 10
002347 85fb     +LDD R31 , Y + 10 + 1
002348 856c     +LDD R22 , Y + 10 + 2
002349 857d     +LDD R23 , Y + 10 + 3
                 	__GETD1S 10
00234a 9508      	RET
                 
                 ;OPTIMIZER ADDED SUBROUTINE, CALLED 2 TIMES, CODE SIZE REDUCTION:2 WORDS
                 SUBOPT_0xE6:
00234b 87ee      	STD  Y+14,R30
00234c 87ff      	STD  Y+14+1,R31
00234d 85ae      	LDD  R26,Y+14
00234e 85bf      	LDD  R27,Y+14+1
00234f 940e 1bc4 	CALL _strlen
002351 2f1e      	MOV  R17,R30
002352 9508      	RET
                 
                 ;OPTIMIZER ADDED SUBROUTINE, CALLED 4 TIMES, CODE SIZE REDUCTION:6 WORDS
                 SUBOPT_0xE7:
002353 dfe4      	RCALL SUBOPT_0xE2
002354 9614      	ADIW R26,4
002355 940e 26b8 	CALL __GETW1P
002357 9508      	RET
                 
                 ;OPTIMIZER ADDED SUBROUTINE, CALLED 5 TIMES, CODE SIZE REDUCTION:5 WORDS
                 SUBOPT_0xE8:
                +
002358 8be8     +STD Y + 16 , R30
002359 8bf9     +STD Y + 16 + 1 , R31
00235a 8b6a     +STD Y + 16 + 2 , R22
00235b 8b7b     +STD Y + 16 + 3 , R23
                 	__PUTD1S 16
00235c 9508      	RET
                 
                 ;OPTIMIZER ADDED SUBROUTINE, CALLED 2 TIMES, CODE SIZE REDUCTION:12 WORDS
                 SUBOPT_0xE9:
00235d 7f0b      	ANDI R16,LOW(251)
00235e 89ed      	LDD  R30,Y+21
00235f 93ea      	ST   -Y,R30
                +
002360 01de     +MOVW R26 , R28
002361 5aa9     +SUBI R26 , LOW ( - 87 )
002362 4fbf     +SBCI R27 , HIGH ( - 87 )
002363 900d     +LD R0 , X +
002364 91bc     +LD R27 , X
002365 2da0     +MOV R26 , R0
                 	__GETW2SX 87
                +
002366 01fe     +MOVW R30 , R28
002367 5ae7     +SUBI R30 , LOW ( - 89 )
002368 4fff     +SBCI R31 , HIGH ( - 89 )
002369 9001     +LD R0 , Z +
00236a 81f0     +LD R31 , Z
00236b 2de0     +MOV R30 , R0
                 	__GETW1SX 89
00236c 9509      	ICALL
00236d 3050      	CPI  R21,0
00236e 9508      	RET
                 
                 ;OPTIMIZER ADDED SUBROUTINE, CALLED 2 TIMES, CODE SIZE REDUCTION:3 WORDS
                 SUBOPT_0xEA:
                +
00236f 89e8     +LDD R30 , Y + 16
002370 89f9     +LDD R31 , Y + 16 + 1
002371 896a     +LDD R22 , Y + 16 + 2
002372 897b     +LDD R23 , Y + 16 + 3
                 	__GETD1S 16
                +
002373 85aa     +LDD R26 , Y + 10
002374 85bb     +LDD R27 , Y + 10 + 1
002375 858c     +LDD R24 , Y + 10 + 2
002376 859d     +LDD R25 , Y + 10 + 3
                 	__GETD2S 10
002377 9508      	RET
                 
                 ;OPTIMIZER ADDED SUBROUTINE, CALLED 3 TIMES, CODE SIZE REDUCTION:1 WORDS
                 SUBOPT_0xEB:
002378 81ee      	LDD  R30,Y+6
002379 81ff      	LDD  R31,Y+6+1
00237a 93fa      	ST   -Y,R31
00237b 93ea      	ST   -Y,R30
00237c 9508      	RET
                 
                 ;OPTIMIZER ADDED SUBROUTINE, CALLED 5 TIMES, CODE SIZE REDUCTION:5 WORDS
                 SUBOPT_0xEC:
                +
00237d 87e9     +STD Y + 9 , R30
00237e 87fa     +STD Y + 9 + 1 , R31
00237f 876b     +STD Y + 9 + 2 , R22
002380 877c     +STD Y + 9 + 3 , R23
                 	__PUTD1S 9
002381 9508      	RET
                 
                 ;OPTIMIZER ADDED SUBROUTINE, CALLED 5 TIMES, CODE SIZE REDUCTION:13 WORDS
                 SUBOPT_0xED:
002382 81ae      	LDD  R26,Y+6
002383 81bf      	LDD  R27,Y+6+1
002384 9611      	ADIW R26,1
002385 83ae      	STD  Y+6,R26
002386 83bf      	STD  Y+6+1,R27
002387 9711      	SBIW R26,1
002388 9508      	RET
                 
                 ;OPTIMIZER ADDED SUBROUTINE, CALLED 4 TIMES, CODE SIZE REDUCTION:3 WORDS
                 SUBOPT_0xEE:
                +
002389 81aa     +LDD R26 , Y + 2
00238a 81bb     +LDD R27 , Y + 2 + 1
00238b 818c     +LDD R24 , Y + 2 + 2
00238c 819d     +LDD R25 , Y + 2 + 3
                 	__GETD2S 2
00238d 9508      	RET
                 
                 ;OPTIMIZER ADDED SUBROUTINE, CALLED 4 TIMES, CODE SIZE REDUCTION:3 WORDS
                 SUBOPT_0xEF:
                +
00238e 83ea     +STD Y + 2 , R30
00238f 83fb     +STD Y + 2 + 1 , R31
002390 836c     +STD Y + 2 + 2 , R22
002391 837d     +STD Y + 2 + 3 , R23
                 	__PUTD1S 2
002392 9508      	RET
                 
                 ;OPTIMIZER ADDED SUBROUTINE, CALLED 3 TIMES, CODE SIZE REDUCTION:9 WORDS
                 SUBOPT_0xF0:
                +
002393 81ea     +LDD R30 , Y + 2
002394 81fb     +LDD R31 , Y + 2 + 1
002395 816c     +LDD R22 , Y + 2 + 2
002396 817d     +LDD R23 , Y + 2 + 3
                 	__GETD1S 2
                +
002397 85a9     +LDD R26 , Y + 9
002398 85ba     +LDD R27 , Y + 9 + 1
002399 858b     +LDD R24 , Y + 9 + 2
00239a 859c     +LDD R25 , Y + 9 + 3
                 	__GETD2S 9
00239b 9508      	RET
                 
                 ;OPTIMIZER ADDED SUBROUTINE, CALLED 3 TIMES, CODE SIZE REDUCTION:1 WORDS
                 SUBOPT_0xF1:
                +
00239c e0e0     +LDI R30 , LOW ( 0x3F800000 )
00239d e0f0     +LDI R31 , HIGH ( 0x3F800000 )
00239e e860     +LDI R22 , BYTE3 ( 0x3F800000 )
00239f e37f     +LDI R23 , BYTE4 ( 0x3F800000 )
                 	__GETD1N 0x3F800000
0023a0 9508      	RET
                 
                 ;OPTIMIZER ADDED SUBROUTINE, CALLED 3 TIMES, CODE SIZE REDUCTION:1 WORDS
                 SUBOPT_0xF2:
                +
0023a1 85a9     +LDD R26 , Y + 9
0023a2 85ba     +LDD R27 , Y + 9 + 1
0023a3 858b     +LDD R24 , Y + 9 + 2
0023a4 859c     +LDD R25 , Y + 9 + 3
                 	__GETD2S 9
0023a5 9508      	RET
                 
                 ;OPTIMIZER ADDED SUBROUTINE, CALLED 4 TIMES, CODE SIZE REDUCTION:9 WORDS
                 SUBOPT_0xF3:
0023a6 940e 26e0 	CALL __PUTPARD2
0023a8 940e 26cc 	CALL __GETD2S0
0023aa 9508      	RET
                 
                 ;OPTIMIZER ADDED SUBROUTINE, CALLED 3 TIMES, CODE SIZE REDUCTION:1 WORDS
                 SUBOPT_0xF4:
0023ab 940e 26d1 	CALL __PUTD1S0
0023ad 9508      	RET
                 
                 ;OPTIMIZER ADDED SUBROUTINE, CALLED 9 TIMES, CODE SIZE REDUCTION:13 WORDS
                 SUBOPT_0xF5:
0023ae 940e 26c7 	CALL __GETD1S0
0023b0 9508      	RET
                 
                 ;OPTIMIZER ADDED SUBROUTINE, CALLED 4 TIMES, CODE SIZE REDUCTION:9 WORDS
                 SUBOPT_0xF6:
0023b1 dffc      	RCALL SUBOPT_0xF5
                +
0023b2 e0a0     +LDI R26 , LOW ( 0x3F800000 )
0023b3 e0b0     +LDI R27 , HIGH ( 0x3F800000 )
0023b4 e880     +LDI R24 , BYTE3 ( 0x3F800000 )
0023b5 e39f     +LDI R25 , BYTE4 ( 0x3F800000 )
                 	__GETD2N 0x3F800000
0023b6 9508      	RET
                 
                 ;OPTIMIZER ADDED SUBROUTINE, CALLED 2 TIMES, CODE SIZE REDUCTION:4 WORDS
                 SUBOPT_0xF7:
0023b7 940e 26e0 	CALL __PUTPARD2
0023b9 9724      	SBIW R28,4
0023ba 931a      	ST   -Y,R17
0023bb e010      	LDI  R17,0
                +
0023bc 81ad     +LDD R26 , Y + 5
0023bd 81be     +LDD R27 , Y + 5 + 1
0023be 818f     +LDD R24 , Y + 5 + 2
0023bf 8598     +LDD R25 , Y + 5 + 3
                 	__GETD2S 5
0023c0 9508      	RET
                 
                 ;OPTIMIZER ADDED SUBROUTINE, CALLED 2 TIMES, CODE SIZE REDUCTION:3 WORDS
                 SUBOPT_0xF8:
                +
0023c1 83ed     +STD Y + 5 , R30
0023c2 83fe     +STD Y + 5 + 1 , R31
0023c3 836f     +STD Y + 5 + 2 , R22
0023c4 8778     +STD Y + 5 + 3 , R23
                 	__PUTD1S 5
                +
0023c5 81ad     +LDD R26 , Y + 5
0023c6 81be     +LDD R27 , Y + 5 + 1
0023c7 818f     +LDD R24 , Y + 5 + 2
0023c8 8598     +LDD R25 , Y + 5 + 3
                 	__GETD2S 5
0023c9 9508      	RET
                 
                 ;OPTIMIZER ADDED SUBROUTINE, CALLED 9 TIMES, CODE SIZE REDUCTION:13 WORDS
                 SUBOPT_0xF9:
                +
0023ca 81ad     +LDD R26 , Y + 5
0023cb 81be     +LDD R27 , Y + 5 + 1
0023cc 818f     +LDD R24 , Y + 5 + 2
0023cd 8598     +LDD R25 , Y + 5 + 3
                 	__GETD2S 5
0023ce 9508      	RET
                 
                 ;OPTIMIZER ADDED SUBROUTINE, CALLED 6 TIMES, CODE SIZE REDUCTION:7 WORDS
                 SUBOPT_0xFA:
                +
0023cf 81ed     +LDD R30 , Y + 5
0023d0 81fe     +LDD R31 , Y + 5 + 1
0023d1 816f     +LDD R22 , Y + 5 + 2
0023d2 8578     +LDD R23 , Y + 5 + 3
                 	__GETD1S 5
0023d3 9508      	RET
                 
                 ;OPTIMIZER ADDED SUBROUTINE, CALLED 2 TIMES, CODE SIZE REDUCTION:1 WORDS
                 SUBOPT_0xFB:
0023d4 940e 24c8 	CALL __SUBF12
                +
0023d6 83ed     +STD Y + 5 , R30
0023d7 83fe     +STD Y + 5 + 1 , R31
0023d8 836f     +STD Y + 5 + 2 , R22
0023d9 8778     +STD Y + 5 + 3 , R23
                 	__PUTD1S 5
0023da 9508      	RET
                 
                 ;OPTIMIZER ADDED SUBROUTINE, CALLED 2 TIMES, CODE SIZE REDUCTION:3 WORDS
                 SUBOPT_0xFC:
0023db dff3      	RCALL SUBOPT_0xFA
0023dc 940e 2429 	CALL __ANEGF1
                +
0023de 83ed     +STD Y + 5 , R30
0023df 83fe     +STD Y + 5 + 1 , R31
0023e0 836f     +STD Y + 5 + 2 , R22
0023e1 8778     +STD Y + 5 + 3 , R23
                 	__PUTD1S 5
0023e2 9508      	RET
                 
                 ;OPTIMIZER ADDED SUBROUTINE, CALLED 2 TIMES, CODE SIZE REDUCTION:1 WORDS
                 SUBOPT_0xFD:
0023e3 dfeb      	RCALL SUBOPT_0xFA
0023e4 dfe5      	RCALL SUBOPT_0xF9
0023e5 940e 251f 	CALL __MULF12
0023e7 9508      	RET
                 
                 ;OPTIMIZER ADDED SUBROUTINE, CALLED 5 TIMES, CODE SIZE REDUCTION:5 WORDS
                 SUBOPT_0xFE:
                +
0023e8 81e9     +LDD R30 , Y + 1
0023e9 81fa     +LDD R31 , Y + 1 + 1
0023ea 816b     +LDD R22 , Y + 1 + 2
0023eb 817c     +LDD R23 , Y + 1 + 3
                 	__GETD1S 1
0023ec 9508      	RET
                 
                 ;OPTIMIZER ADDED SUBROUTINE, CALLED 2 TIMES, CODE SIZE REDUCTION:1 WORDS
                 SUBOPT_0xFF:
                +
0023ed 81a9     +LDD R26 , Y + 1
0023ee 81ba     +LDD R27 , Y + 1 + 1
0023ef 818b     +LDD R24 , Y + 1 + 2
0023f0 819c     +LDD R25 , Y + 1 + 3
                 	__GETD2S 1
0023f1 940e 251f 	CALL __MULF12
0023f3 9508      	RET
                 
                 ;OPTIMIZER ADDED SUBROUTINE, CALLED 2 TIMES, CODE SIZE REDUCTION:3 WORDS
                 SUBOPT_0x100:
0023f4 940e 251f 	CALL __MULF12
                +
0023f6 e4ae     +LDI R26 , LOW ( 0x414A8F4E )
0023f7 e8bf     +LDI R27 , HIGH ( 0x414A8F4E )
0023f8 e48a     +LDI R24 , BYTE3 ( 0x414A8F4E )
0023f9 e491     +LDI R25 , BYTE4 ( 0x414A8F4E )
                 	__GETD2N 0x414A8F4E
0023fa 940e 24cf 	CALL __ADDF12
0023fc 9508      	RET
                 
                 ;OPTIMIZER ADDED SUBROUTINE, CALLED 7 TIMES, CODE SIZE REDUCTION:9 WORDS
                 SUBOPT_0x101:
0023fd 940e 26cc 	CALL __GETD2S0
0023ff 9508      	RET
                 
                 ;OPTIMIZER ADDED SUBROUTINE, CALLED 2 TIMES, CODE SIZE REDUCTION:1 WORDS
                 SUBOPT_0x102:
002400 940e 256d 	CALL __DIVF21
002402 01df      	MOVW R26,R30
002403 01cb      	MOVW R24,R22
002404 940c 1a72 	JMP  _xatan
                 
                 ;OPTIMIZER ADDED SUBROUTINE, CALLED 2 TIMES, CODE SIZE REDUCTION:1 WORDS
                 SUBOPT_0x103:
                +
002406 e0e0     +LDI R30 , LOW ( 0xBF800000 )
002407 e0f0     +LDI R31 , HIGH ( 0xBF800000 )
002408 e860     +LDI R22 , BYTE3 ( 0xBF800000 )
002409 eb7f     +LDI R23 , BYTE4 ( 0xBF800000 )
                 	__GETD1N 0xBF800000
00240a 940e 25b2 	CALL __CMPF12
00240c 9508      	RET
                 
                 ;OPTIMIZER ADDED SUBROUTINE, CALLED 3 TIMES, CODE SIZE REDUCTION:1 WORDS
                 SUBOPT_0x104:
                +
00240d efef     +LDI R30 , LOW ( 0x7F7FFFFF )
00240e efff     +LDI R31 , HIGH ( 0x7F7FFFFF )
00240f e76f     +LDI R22 , BYTE3 ( 0x7F7FFFFF )
002410 e77f     +LDI R23 , BYTE4 ( 0x7F7FFFFF )
                 	__GETD1N 0x7F7FFFFF
002411 9508      	RET
                 
                 ;OPTIMIZER ADDED SUBROUTINE, CALLED 2 TIMES, CODE SIZE REDUCTION:1 WORDS
                 SUBOPT_0x105:
002412 940e 256d 	CALL __DIVF21
002414 01df      	MOVW R26,R30
002415 01cb      	MOVW R24,R22
002416 940c 1a9d 	JMP  _yatan
                 
                 ;OPTIMIZER ADDED SUBROUTINE, CALLED 2 TIMES, CODE SIZE REDUCTION:3 WORDS
                 SUBOPT_0x106:
002418 df95      	RCALL SUBOPT_0xF5
002419 940e 2429 	CALL __ANEGF1
00241b 01df      	MOVW R26,R30
00241c 01cb      	MOVW R24,R22
00241d 940c 1a9d 	JMP  _yatan
                 
                 
                 	.CSEG
                 _delay_ms:
00241f 9610      	adiw r26,0
002420 f039      	breq __delay_ms1
                 __delay_ms0:
                +
002421 ea80     +LDI R24 , LOW ( 0xFA0 )
002422 e09f     +LDI R25 , HIGH ( 0xFA0 )
                +__DELAY_USW_LOOP :
002423 9701     +SBIW R24 , 1
002424 f7f1     +BRNE __DELAY_USW_LOOP
                 	__DELAY_USW 0xFA0
002425 95a8      	wdr
002426 9711      	sbiw r26,1
002427 f7c9      	brne __delay_ms0
                 __delay_ms1:
002428 9508      	ret
                 
                 __ANEGF1:
002429 9730      	SBIW R30,0
00242a 4060      	SBCI R22,0
00242b 4070      	SBCI R23,0
00242c f009      	BREQ __ANEGF10
00242d 5870      	SUBI R23,0x80
                 __ANEGF10:
00242e 9508      	RET
                 
                 __ROUND_REPACK:
00242f 2355      	TST  R21
002430 f442      	BRPL __REPACK
002431 3850      	CPI  R21,0x80
002432 f411      	BRNE __ROUND_REPACK0
002433 ffe0      	SBRS R30,0
002434 c004      	RJMP __REPACK
                 __ROUND_REPACK0:
002435 9631      	ADIW R30,1
002436 1f69      	ADC  R22,R25
002437 1f79      	ADC  R23,R25
002438 f06b      	BRVS __REPACK1
                 
                 __REPACK:
002439 e850      	LDI  R21,0x80
00243a 2757      	EOR  R21,R23
00243b f411      	BRNE __REPACK0
00243c 935f      	PUSH R21
00243d c0cf      	RJMP __ZERORES
                 __REPACK0:
00243e 3f5f      	CPI  R21,0xFF
00243f f031      	BREQ __REPACK1
002440 0f66      	LSL  R22
002441 0c00      	LSL  R0
002442 9557      	ROR  R21
002443 9567      	ROR  R22
002444 2f75      	MOV  R23,R21
002445 9508      	RET
                 __REPACK1:
002446 935f      	PUSH R21
002447 2000      	TST  R0
002448 f00a      	BRMI __REPACK2
002449 c0cf      	RJMP __MAXRES
                 __REPACK2:
00244a c0c8      	RJMP __MINRES
                 
                 __UNPACK:
00244b e850      	LDI  R21,0x80
00244c 2e19      	MOV  R1,R25
00244d 2215      	AND  R1,R21
00244e 0f88      	LSL  R24
00244f 1f99      	ROL  R25
002450 2795      	EOR  R25,R21
002451 0f55      	LSL  R21
002452 9587      	ROR  R24
                 
                 __UNPACK1:
002453 e850      	LDI  R21,0x80
002454 2e07      	MOV  R0,R23
002455 2205      	AND  R0,R21
002456 0f66      	LSL  R22
002457 1f77      	ROL  R23
002458 2775      	EOR  R23,R21
002459 0f55      	LSL  R21
00245a 9567      	ROR  R22
00245b 9508      	RET
                 
                 __CFD1U:
00245c 9468      	SET
00245d c001      	RJMP __CFD1U0
                 __CFD1:
00245e 94e8      	CLT
                 __CFD1U0:
00245f 935f      	PUSH R21
002460 dff2      	RCALL __UNPACK1
002461 3870      	CPI  R23,0x80
002462 f018      	BRLO __CFD10
002463 3f7f      	CPI  R23,0xFF
002464 f408      	BRCC __CFD10
002465 c0a7      	RJMP __ZERORES
                 __CFD10:
002466 e156      	LDI  R21,22
002467 1b57      	SUB  R21,R23
002468 f4aa      	BRPL __CFD11
002469 9551      	NEG  R21
00246a 3058      	CPI  R21,8
00246b f40e      	BRTC __CFD19
00246c 3059      	CPI  R21,9
                 __CFD19:
00246d f030      	BRLO __CFD17
00246e efef      	SER  R30
00246f efff      	SER  R31
002470 ef6f      	SER  R22
002471 e77f      	LDI  R23,0x7F
002472 f977      	BLD  R23,7
002473 c01a      	RJMP __CFD15
                 __CFD17:
002474 2777      	CLR  R23
002475 2355      	TST  R21
002476 f0b9      	BREQ __CFD15
                 __CFD18:
002477 0fee      	LSL  R30
002478 1fff      	ROL  R31
002479 1f66      	ROL  R22
00247a 1f77      	ROL  R23
00247b 955a      	DEC  R21
00247c f7d1      	BRNE __CFD18
00247d c010      	RJMP __CFD15
                 __CFD11:
00247e 2777      	CLR  R23
                 __CFD12:
00247f 3058      	CPI  R21,8
002480 f028      	BRLO __CFD13
002481 2fef      	MOV  R30,R31
002482 2ff6      	MOV  R31,R22
002483 2f67      	MOV  R22,R23
002484 5058      	SUBI R21,8
002485 cff9      	RJMP __CFD12
                 __CFD13:
002486 2355      	TST  R21
002487 f031      	BREQ __CFD15
                 __CFD14:
002488 9576      	LSR  R23
002489 9567      	ROR  R22
00248a 95f7      	ROR  R31
00248b 95e7      	ROR  R30
00248c 955a      	DEC  R21
00248d f7d1      	BRNE __CFD14
                 __CFD15:
00248e 2000      	TST  R0
00248f f40a      	BRPL __CFD16
002490 d180      	RCALL __ANEGD1
                 __CFD16:
002491 915f      	POP  R21
002492 9508      	RET
                 
                 __CDF1U:
002493 9468      	SET
002494 c001      	RJMP __CDF1U0
                 __CDF1:
002495 94e8      	CLT
                 __CDF1U0:
002496 9730      	SBIW R30,0
002497 4060      	SBCI R22,0
002498 4070      	SBCI R23,0
002499 f0b1      	BREQ __CDF10
00249a 2400      	CLR  R0
00249b f026      	BRTS __CDF11
00249c 2377      	TST  R23
00249d f412      	BRPL __CDF11
00249e 9400      	COM  R0
00249f d171      	RCALL __ANEGD1
                 __CDF11:
0024a0 2e17      	MOV  R1,R23
0024a1 e17e      	LDI  R23,30
0024a2 2011      	TST  R1
                 __CDF12:
0024a3 f032      	BRMI __CDF13
0024a4 957a      	DEC  R23
0024a5 0fee      	LSL  R30
0024a6 1fff      	ROL  R31
0024a7 1f66      	ROL  R22
0024a8 1c11      	ROL  R1
0024a9 cff9      	RJMP __CDF12
                 __CDF13:
0024aa 2fef      	MOV  R30,R31
0024ab 2ff6      	MOV  R31,R22
0024ac 2d61      	MOV  R22,R1
0024ad 935f      	PUSH R21
0024ae df8a      	RCALL __REPACK
0024af 915f      	POP  R21
                 __CDF10:
0024b0 9508      	RET
                 
                 __SWAPACC:
0024b1 934f      	PUSH R20
0024b2 01af      	MOVW R20,R30
0024b3 01fd      	MOVW R30,R26
0024b4 01da      	MOVW R26,R20
0024b5 01ab      	MOVW R20,R22
0024b6 01bc      	MOVW R22,R24
0024b7 01ca      	MOVW R24,R20
0024b8 2d40      	MOV  R20,R0
0024b9 2c01      	MOV  R0,R1
0024ba 2e14      	MOV  R1,R20
0024bb 914f      	POP  R20
0024bc 9508      	RET
                 
                 __UADD12:
0024bd 0fea      	ADD  R30,R26
0024be 1ffb      	ADC  R31,R27
0024bf 1f68      	ADC  R22,R24
0024c0 9508      	RET
                 
                 __NEGMAN1:
0024c1 95e0      	COM  R30
0024c2 95f0      	COM  R31
0024c3 9560      	COM  R22
0024c4 5fef      	SUBI R30,-1
0024c5 4fff      	SBCI R31,-1
0024c6 4f6f      	SBCI R22,-1
0024c7 9508      	RET
                 
                 __SUBF12:
0024c8 935f      	PUSH R21
0024c9 df81      	RCALL __UNPACK
0024ca 3890      	CPI  R25,0x80
0024cb f171      	BREQ __ADDF129
0024cc e850      	LDI  R21,0x80
0024cd 2615      	EOR  R1,R21
                 
0024ce c004      	RJMP __ADDF120
                 
                 __ADDF12:
0024cf 935f      	PUSH R21
0024d0 df7a      	RCALL __UNPACK
0024d1 3890      	CPI  R25,0x80
0024d2 f139      	BREQ __ADDF129
                 
                 __ADDF120:
0024d3 3870      	CPI  R23,0x80
0024d4 f121      	BREQ __ADDF128
                 __ADDF121:
0024d5 2f57      	MOV  R21,R23
0024d6 1b59      	SUB  R21,R25
0024d7 f12b      	BRVS __ADDF1211
0024d8 f412      	BRPL __ADDF122
0024d9 dfd7      	RCALL __SWAPACC
0024da cffa      	RJMP __ADDF121
                 __ADDF122:
0024db 3158      	CPI  R21,24
0024dc f018      	BRLO __ADDF123
0024dd 27aa      	CLR  R26
0024de 27bb      	CLR  R27
0024df 2788      	CLR  R24
                 __ADDF123:
0024e0 3058      	CPI  R21,8
0024e1 f028      	BRLO __ADDF124
0024e2 2fab      	MOV  R26,R27
0024e3 2fb8      	MOV  R27,R24
0024e4 2788      	CLR  R24
0024e5 5058      	SUBI R21,8
0024e6 cff9      	RJMP __ADDF123
                 __ADDF124:
0024e7 2355      	TST  R21
0024e8 f029      	BREQ __ADDF126
                 __ADDF125:
0024e9 9586      	LSR  R24
0024ea 95b7      	ROR  R27
0024eb 95a7      	ROR  R26
0024ec 955a      	DEC  R21
0024ed f7d9      	BRNE __ADDF125
                 __ADDF126:
0024ee 2d50      	MOV  R21,R0
0024ef 2551      	EOR  R21,R1
0024f0 f072      	BRMI __ADDF127
0024f1 dfcb      	RCALL __UADD12
0024f2 f438      	BRCC __ADDF129
0024f3 9567      	ROR  R22
0024f4 95f7      	ROR  R31
0024f5 95e7      	ROR  R30
0024f6 9573      	INC  R23
0024f7 f413      	BRVC __ADDF129
0024f8 c020      	RJMP __MAXRES
                 __ADDF128:
0024f9 dfb7      	RCALL __SWAPACC
                 __ADDF129:
0024fa df3e      	RCALL __REPACK
0024fb 915f      	POP  R21
0024fc 9508      	RET
                 __ADDF1211:
0024fd f7d8      	BRCC __ADDF128
0024fe cffb      	RJMP __ADDF129
                 __ADDF127:
0024ff 1bea      	SUB  R30,R26
002500 0bfb      	SBC  R31,R27
002501 0b68      	SBC  R22,R24
002502 f051      	BREQ __ZERORES
002503 f410      	BRCC __ADDF1210
002504 9400      	COM  R0
002505 dfbb      	RCALL __NEGMAN1
                 __ADDF1210:
002506 2366      	TST  R22
002507 f392      	BRMI __ADDF129
002508 0fee      	LSL  R30
002509 1fff      	ROL  R31
00250a 1f66      	ROL  R22
00250b 957a      	DEC  R23
00250c f7cb      	BRVC __ADDF1210
                 
                 __ZERORES:
00250d 27ee      	CLR  R30
00250e 27ff      	CLR  R31
00250f 2766      	CLR  R22
002510 2777      	CLR  R23
002511 915f      	POP  R21
002512 9508      	RET
                 
                 __MINRES:
002513 efef      	SER  R30
002514 efff      	SER  R31
002515 e76f      	LDI  R22,0x7F
002516 ef7f      	SER  R23
002517 915f      	POP  R21
002518 9508      	RET
                 
                 __MAXRES:
002519 efef      	SER  R30
00251a efff      	SER  R31
00251b e76f      	LDI  R22,0x7F
00251c e77f      	LDI  R23,0x7F
00251d 915f      	POP  R21
00251e 9508      	RET
                 
                 __MULF12:
00251f 935f      	PUSH R21
002520 df2a      	RCALL __UNPACK
002521 3870      	CPI  R23,0x80
002522 f351      	BREQ __ZERORES
002523 3890      	CPI  R25,0x80
002524 f341      	BREQ __ZERORES
002525 2401      	EOR  R0,R1
002526 9408      	SEC
002527 1f79      	ADC  R23,R25
002528 f423      	BRVC __MULF124
002529 f31c      	BRLT __ZERORES
                 __MULF125:
00252a 2000      	TST  R0
00252b f33a      	BRMI __MINRES
00252c cfec      	RJMP __MAXRES
                 __MULF124:
00252d 920f      	PUSH R0
00252e 931f      	PUSH R17
00252f 932f      	PUSH R18
002530 933f      	PUSH R19
002531 934f      	PUSH R20
002532 2711      	CLR  R17
002533 2722      	CLR  R18
002534 2799      	CLR  R25
002535 9f68      	MUL  R22,R24
002536 01a0      	MOVW R20,R0
002537 9f8f      	MUL  R24,R31
002538 2d30      	MOV  R19,R0
002539 0d41      	ADD  R20,R1
00253a 1f59      	ADC  R21,R25
00253b 9f6b      	MUL  R22,R27
00253c 0d30      	ADD  R19,R0
00253d 1d41      	ADC  R20,R1
00253e 1f59      	ADC  R21,R25
00253f 9f8e      	MUL  R24,R30
002540 d027      	RCALL __MULF126
002541 9fbf      	MUL  R27,R31
002542 d025      	RCALL __MULF126
002543 9f6a      	MUL  R22,R26
002544 d023      	RCALL __MULF126
002545 9fbe      	MUL  R27,R30
002546 d01d      	RCALL __MULF127
002547 9faf      	MUL  R26,R31
002548 d01b      	RCALL __MULF127
002549 9fae      	MUL  R26,R30
00254a 0d11      	ADD  R17,R1
00254b 1f29      	ADC  R18,R25
00254c 1f39      	ADC  R19,R25
00254d 1f49      	ADC  R20,R25
00254e 1f59      	ADC  R21,R25
00254f 2fe3      	MOV  R30,R19
002550 2ff4      	MOV  R31,R20
002551 2f65      	MOV  R22,R21
002552 2f52      	MOV  R21,R18
002553 914f      	POP  R20
002554 913f      	POP  R19
002555 912f      	POP  R18
002556 911f      	POP  R17
002557 900f      	POP  R0
002558 2366      	TST  R22
002559 f02a      	BRMI __MULF122
00255a 0f55      	LSL  R21
00255b 1fee      	ROL  R30
00255c 1fff      	ROL  R31
00255d 1f66      	ROL  R22
00255e c002      	RJMP __MULF123
                 __MULF122:
00255f 9573      	INC  R23
002560 f24b      	BRVS __MULF125
                 __MULF123:
002561 decd      	RCALL __ROUND_REPACK
002562 915f      	POP  R21
002563 9508      	RET
                 
                 __MULF127:
002564 0d10      	ADD  R17,R0
002565 1d21      	ADC  R18,R1
002566 1f39      	ADC  R19,R25
002567 c002      	RJMP __MULF128
                 __MULF126:
002568 0d20      	ADD  R18,R0
002569 1d31      	ADC  R19,R1
                 __MULF128:
00256a 1f49      	ADC  R20,R25
00256b 1f59      	ADC  R21,R25
00256c 9508      	RET
                 
                 __DIVF21:
00256d 935f      	PUSH R21
00256e dedc      	RCALL __UNPACK
00256f 3870      	CPI  R23,0x80
002570 f421      	BRNE __DIVF210
002571 2011      	TST  R1
                 __DIVF211:
002572 f40a      	BRPL __DIVF219
002573 cf9f      	RJMP __MINRES
                 __DIVF219:
002574 cfa4      	RJMP __MAXRES
                 __DIVF210:
002575 3890      	CPI  R25,0x80
002576 f409      	BRNE __DIVF218
                 __DIVF217:
002577 cf95      	RJMP __ZERORES
                 __DIVF218:
002578 2401      	EOR  R0,R1
002579 9408      	SEC
00257a 0b97      	SBC  R25,R23
00257b f41b      	BRVC __DIVF216
00257c f3d4      	BRLT __DIVF217
00257d 2000      	TST  R0
00257e cff3      	RJMP __DIVF211
                 __DIVF216:
00257f 2f79      	MOV  R23,R25
002580 931f      	PUSH R17
002581 932f      	PUSH R18
002582 933f      	PUSH R19
002583 934f      	PUSH R20
002584 2411      	CLR  R1
002585 2711      	CLR  R17
002586 2722      	CLR  R18
002587 2733      	CLR  R19
002588 2744      	CLR  R20
002589 2755      	CLR  R21
00258a e290      	LDI  R25,32
                 __DIVF212:
00258b 17ae      	CP   R26,R30
00258c 07bf      	CPC  R27,R31
00258d 0786      	CPC  R24,R22
00258e 0741      	CPC  R20,R17
00258f f030      	BRLO __DIVF213
002590 1bae      	SUB  R26,R30
002591 0bbf      	SBC  R27,R31
002592 0b86      	SBC  R24,R22
002593 0b41      	SBC  R20,R17
002594 9408      	SEC
002595 c001      	RJMP __DIVF214
                 __DIVF213:
002596 9488      	CLC
                 __DIVF214:
002597 1f55      	ROL  R21
002598 1f22      	ROL  R18
002599 1f33      	ROL  R19
00259a 1c11      	ROL  R1
00259b 1faa      	ROL  R26
00259c 1fbb      	ROL  R27
00259d 1f88      	ROL  R24
00259e 1f44      	ROL  R20
00259f 959a      	DEC  R25
0025a0 f751      	BRNE __DIVF212
0025a1 01f9      	MOVW R30,R18
0025a2 2d61      	MOV  R22,R1
0025a3 914f      	POP  R20
0025a4 913f      	POP  R19
0025a5 912f      	POP  R18
0025a6 911f      	POP  R17
0025a7 2366      	TST  R22
0025a8 f032      	BRMI __DIVF215
0025a9 0f55      	LSL  R21
0025aa 1fee      	ROL  R30
0025ab 1fff      	ROL  R31
0025ac 1f66      	ROL  R22
0025ad 957a      	DEC  R23
0025ae f243      	BRVS __DIVF217
                 __DIVF215:
0025af de7f      	RCALL __ROUND_REPACK
0025b0 915f      	POP  R21
0025b1 9508      	RET
                 
                 __CMPF12:
0025b2 2399      	TST  R25
0025b3 f09a      	BRMI __CMPF120
0025b4 2377      	TST  R23
0025b5 f042      	BRMI __CMPF121
0025b6 1797      	CP   R25,R23
0025b7 f048      	BRLO __CMPF122
0025b8 f429      	BRNE __CMPF121
0025b9 17ae      	CP   R26,R30
0025ba 07bf      	CPC  R27,R31
0025bb 0786      	CPC  R24,R22
0025bc f020      	BRLO __CMPF122
0025bd f031      	BREQ __CMPF123
                 __CMPF121:
0025be 9498      	CLZ
0025bf 9488      	CLC
0025c0 9508      	RET
                 __CMPF122:
0025c1 9498      	CLZ
0025c2 9408      	SEC
0025c3 9508      	RET
                 __CMPF123:
0025c4 9418      	SEZ
0025c5 9488      	CLC
0025c6 9508      	RET
                 __CMPF120:
0025c7 2377      	TST  R23
0025c8 f7c2      	BRPL __CMPF122
0025c9 1797      	CP   R25,R23
0025ca f398      	BRLO __CMPF121
0025cb f7a9      	BRNE __CMPF122
0025cc 17ea      	CP   R30,R26
0025cd 07fb      	CPC  R31,R27
0025ce 0768      	CPC  R22,R24
0025cf f388      	BRLO __CMPF122
0025d0 f399      	BREQ __CMPF123
0025d1 cfec      	RJMP __CMPF121
                 
                 _sqrt:
0025d2 d10d      	rcall __PUTPARD2
0025d3 9724      	sbiw r28,4
0025d4 935f      	push r21
0025d5 819f      	ldd  r25,y+7
0025d6 2399      	tst  r25
0025d7 f411      	brne __sqrt0
0025d8 9628      	adiw r28,8
0025d9 cf33      	rjmp __zerores
                 __sqrt0:
0025da f412      	brpl __sqrt1
0025db 9628      	adiw r28,8
0025dc cf3c      	rjmp __maxres
                 __sqrt1:
0025dd 934f      	push r20
0025de e442      	ldi  r20,66
0025df 818e      	ldd  r24,y+6
0025e0 81bd      	ldd  r27,y+5
0025e1 81ac      	ldd  r26,y+4
                 __sqrt2:
0025e2 8388      	st   y,r24
0025e3 8399      	std  y+1,r25
0025e4 83aa      	std  y+2,r26
0025e5 83bb      	std  y+3,r27
0025e6 01fd      	movw r30,r26
0025e7 01bc      	movw r22,r24
0025e8 81ac      	ldd  r26,y+4
0025e9 81bd      	ldd  r27,y+5
0025ea 818e      	ldd  r24,y+6
0025eb 819f      	ldd  r25,y+7
0025ec df80      	rcall __divf21
0025ed 8188      	ld   r24,y
0025ee 8199      	ldd  r25,y+1
0025ef 81aa      	ldd  r26,y+2
0025f0 81bb      	ldd  r27,y+3
0025f1 dedd      	rcall __addf12
0025f2 de60      	rcall __unpack1
0025f3 957a      	dec  r23
0025f4 de44      	rcall __repack
0025f5 8188      	ld   r24,y
0025f6 8199      	ldd  r25,y+1
0025f7 81aa      	ldd  r26,y+2
0025f8 81bb      	ldd  r27,y+3
0025f9 27ae      	eor  r26,r30
0025fa 7fa8      	andi r26,0xf8
0025fb f421      	brne __sqrt4
0025fc 17bf      	cp   r27,r31
0025fd 0786      	cpc  r24,r22
0025fe 0797      	cpc  r25,r23
0025ff f029      	breq __sqrt3
                 __sqrt4:
002600 954a      	dec  r20
002601 f019      	breq __sqrt3
002602 01df      	movw r26,r30
002603 01cb      	movw r24,r22
002604 cfdd      	rjmp __sqrt2
                 __sqrt3:
002605 914f      	pop  r20
002606 915f      	pop  r21
002607 9628      	adiw r28,8
002608 9508      	ret
                 
                 __ADDW2R15:
002609 2400      	CLR  R0
00260a 0daf      	ADD  R26,R15
00260b 1db0      	ADC  R27,R0
00260c 9508      	RET
                 
                 __ANEGW1:
00260d 95f1      	NEG  R31
00260e 95e1      	NEG  R30
00260f 40f0      	SBCI R31,0
002610 9508      	RET
                 
                 __ANEGD1:
002611 95f0      	COM  R31
002612 9560      	COM  R22
002613 9570      	COM  R23
002614 95e1      	NEG  R30
002615 4fff      	SBCI R31,-1
002616 4f6f      	SBCI R22,-1
002617 4f7f      	SBCI R23,-1
002618 9508      	RET
                 
                 __LSLW2:
002619 0fee      	LSL  R30
00261a 1fff      	ROL  R31
00261b 0fee      	LSL  R30
00261c 1fff      	ROL  R31
00261d 9508      	RET
                 
                 __CBD1:
00261e 2ffe      	MOV  R31,R30
00261f 0fff      	ADD  R31,R31
002620 0bff      	SBC  R31,R31
002621 2f6f      	MOV  R22,R31
002622 2f7f      	MOV  R23,R31
002623 9508      	RET
                 
                 __CWD1:
002624 2f6f      	MOV  R22,R31
002625 0f66      	ADD  R22,R22
002626 0b66      	SBC  R22,R22
002627 2f76      	MOV  R23,R22
002628 9508      	RET
                 
                 __NED12:
002629 17ea      	CP   R30,R26
00262a 07fb      	CPC  R31,R27
00262b 0768      	CPC  R22,R24
00262c 0779      	CPC  R23,R25
00262d e0e1      	LDI  R30,1
00262e f409      	BRNE __NED12T
00262f 27ee      	CLR  R30
                 __NED12T:
002630 9508      	RET
                 
                 __MULW12U:
002631 9ffa      	MUL  R31,R26
002632 2df0      	MOV  R31,R0
002633 9feb      	MUL  R30,R27
002634 0df0      	ADD  R31,R0
002635 9fea      	MUL  R30,R26
002636 2de0      	MOV  R30,R0
002637 0df1      	ADD  R31,R1
002638 9508      	RET
                 
                 __MULW12:
002639 d070      	RCALL __CHKSIGNW
00263a dff6      	RCALL __MULW12U
00263b f40e      	BRTC __MULW121
00263c dfd0      	RCALL __ANEGW1
                 __MULW121:
00263d 9508      	RET
                 
                 __DIVB21U:
00263e 2400      	CLR  R0
00263f e098      	LDI  R25,8
                 __DIVB21U1:
002640 0faa      	LSL  R26
002641 1c00      	ROL  R0
002642 1a0e      	SUB  R0,R30
002643 f410      	BRCC __DIVB21U2
002644 0e0e      	ADD  R0,R30
002645 c001      	RJMP __DIVB21U3
                 __DIVB21U2:
002646 60a1      	SBR  R26,1
                 __DIVB21U3:
002647 959a      	DEC  R25
002648 f7b9      	BRNE __DIVB21U1
002649 2fea      	MOV  R30,R26
00264a 2da0      	MOV  R26,R0
00264b 9508      	RET
                 
                 __DIVB21:
00264c d051      	RCALL __CHKSIGNB
00264d dff0      	RCALL __DIVB21U
00264e f40e      	BRTC __DIVB211
00264f 95e1      	NEG  R30
                 __DIVB211:
002650 9508      	RET
                 
                 __DIVW21U:
002651 2400      	CLR  R0
002652 2411      	CLR  R1
002653 e190      	LDI  R25,16
                 __DIVW21U1:
002654 0faa      	LSL  R26
002655 1fbb      	ROL  R27
002656 1c00      	ROL  R0
002657 1c11      	ROL  R1
002658 1a0e      	SUB  R0,R30
002659 0a1f      	SBC  R1,R31
00265a f418      	BRCC __DIVW21U2
00265b 0e0e      	ADD  R0,R30
00265c 1e1f      	ADC  R1,R31
00265d c001      	RJMP __DIVW21U3
                 __DIVW21U2:
00265e 60a1      	SBR  R26,1
                 __DIVW21U3:
00265f 959a      	DEC  R25
002660 f799      	BRNE __DIVW21U1
002661 01fd      	MOVW R30,R26
002662 01d0      	MOVW R26,R0
002663 9508      	RET
                 
                 __DIVW21:
002664 d045      	RCALL __CHKSIGNW
002665 dfeb      	RCALL __DIVW21U
002666 f40e      	BRTC __DIVW211
002667 dfa5      	RCALL __ANEGW1
                 __DIVW211:
002668 9508      	RET
                 
                 __DIVD21U:
002669 933f      	PUSH R19
00266a 934f      	PUSH R20
00266b 935f      	PUSH R21
00266c 2400      	CLR  R0
00266d 2411      	CLR  R1
00266e 2744      	CLR  R20
00266f 2755      	CLR  R21
002670 e230      	LDI  R19,32
                 __DIVD21U1:
002671 0faa      	LSL  R26
002672 1fbb      	ROL  R27
002673 1f88      	ROL  R24
002674 1f99      	ROL  R25
002675 1c00      	ROL  R0
002676 1c11      	ROL  R1
002677 1f44      	ROL  R20
002678 1f55      	ROL  R21
002679 1a0e      	SUB  R0,R30
00267a 0a1f      	SBC  R1,R31
00267b 0b46      	SBC  R20,R22
00267c 0b57      	SBC  R21,R23
00267d f428      	BRCC __DIVD21U2
00267e 0e0e      	ADD  R0,R30
00267f 1e1f      	ADC  R1,R31
002680 1f46      	ADC  R20,R22
002681 1f57      	ADC  R21,R23
002682 c001      	RJMP __DIVD21U3
                 __DIVD21U2:
002683 60a1      	SBR  R26,1
                 __DIVD21U3:
002684 953a      	DEC  R19
002685 f759      	BRNE __DIVD21U1
002686 01fd      	MOVW R30,R26
002687 01bc      	MOVW R22,R24
002688 01d0      	MOVW R26,R0
002689 01ca      	MOVW R24,R20
00268a 915f      	POP  R21
00268b 914f      	POP  R20
00268c 913f      	POP  R19
00268d 9508      	RET
                 
                 __MODB21:
00268e 94e8      	CLT
00268f ffa7      	SBRS R26,7
002690 c002      	RJMP __MODB211
002691 95a1      	NEG  R26
002692 9468      	SET
                 __MODB211:
002693 fde7      	SBRC R30,7
002694 95e1      	NEG  R30
002695 dfa8      	RCALL __DIVB21U
002696 2fea      	MOV  R30,R26
002697 f40e      	BRTC __MODB212
002698 95e1      	NEG  R30
                 __MODB212:
002699 9508      	RET
                 
                 __MODD21U:
00269a dfce      	RCALL __DIVD21U
00269b 01fd      	MOVW R30,R26
00269c 01bc      	MOVW R22,R24
00269d 9508      	RET
                 
                 __CHKSIGNB:
00269e 94e8      	CLT
00269f ffe7      	SBRS R30,7
0026a0 c002      	RJMP __CHKSB1
0026a1 95e1      	NEG  R30
0026a2 9468      	SET
                 __CHKSB1:
0026a3 ffa7      	SBRS R26,7
0026a4 c004      	RJMP __CHKSB2
0026a5 95a1      	NEG  R26
0026a6 f800      	BLD  R0,0
0026a7 9403      	INC  R0
0026a8 fa00      	BST  R0,0
                 __CHKSB2:
0026a9 9508      	RET
                 
                 __CHKSIGNW:
0026aa 94e8      	CLT
0026ab fff7      	SBRS R31,7
0026ac c002      	RJMP __CHKSW1
0026ad df5f      	RCALL __ANEGW1
0026ae 9468      	SET
                 __CHKSW1:
0026af ffb7      	SBRS R27,7
0026b0 c006      	RJMP __CHKSW2
0026b1 95a0      	COM  R26
0026b2 95b0      	COM  R27
0026b3 9611      	ADIW R26,1
0026b4 f800      	BLD  R0,0
0026b5 9403      	INC  R0
0026b6 fa00      	BST  R0,0
                 __CHKSW2:
0026b7 9508      	RET
                 
                 __GETW1P:
0026b8 91ed      	LD   R30,X+
0026b9 91fc      	LD   R31,X
0026ba 9711      	SBIW R26,1
0026bb 9508      	RET
                 
                 __GETD1P:
0026bc 91ed      	LD   R30,X+
0026bd 91fd      	LD   R31,X+
0026be 916d      	LD   R22,X+
0026bf 917c      	LD   R23,X
0026c0 9713      	SBIW R26,3
0026c1 9508      	RET
                 
                 __PUTDP1:
0026c2 93ed      	ST   X+,R30
0026c3 93fd      	ST   X+,R31
0026c4 936d      	ST   X+,R22
0026c5 937c      	ST   X,R23
0026c6 9508      	RET
                 
                 __GETD1S0:
0026c7 81e8      	LD   R30,Y
0026c8 81f9      	LDD  R31,Y+1
0026c9 816a      	LDD  R22,Y+2
0026ca 817b      	LDD  R23,Y+3
0026cb 9508      	RET
                 
                 __GETD2S0:
0026cc 81a8      	LD   R26,Y
0026cd 81b9      	LDD  R27,Y+1
0026ce 818a      	LDD  R24,Y+2
0026cf 819b      	LDD  R25,Y+3
0026d0 9508      	RET
                 
                 __PUTD1S0:
0026d1 83e8      	ST   Y,R30
0026d2 83f9      	STD  Y+1,R31
0026d3 836a      	STD  Y+2,R22
0026d4 837b      	STD  Y+3,R23
0026d5 9508      	RET
                 
                 __PUTDZ20:
0026d6 83a0      	ST   Z,R26
0026d7 83b1      	STD  Z+1,R27
0026d8 8382      	STD  Z+2,R24
0026d9 8393      	STD  Z+3,R25
0026da 9508      	RET
                 
                 __PUTPARD1:
0026db 937a      	ST   -Y,R23
0026dc 936a      	ST   -Y,R22
0026dd 93fa      	ST   -Y,R31
0026de 93ea      	ST   -Y,R30
0026df 9508      	RET
                 
                 __PUTPARD2:
0026e0 939a      	ST   -Y,R25
0026e1 938a      	ST   -Y,R24
0026e2 93ba      	ST   -Y,R27
0026e3 93aa      	ST   -Y,R26
0026e4 9508      	RET
                 
                 __SWAPD12:
0026e5 2e18      	MOV  R1,R24
0026e6 2f86      	MOV  R24,R22
0026e7 2d61      	MOV  R22,R1
0026e8 2e19      	MOV  R1,R25
0026e9 2f97      	MOV  R25,R23
0026ea 2d71      	MOV  R23,R1
                 
                 __SWAPW12:
0026eb 2e1b      	MOV  R1,R27
0026ec 2fbf      	MOV  R27,R31
0026ed 2df1      	MOV  R31,R1
                 
                 __SWAPB12:
0026ee 2e1a      	MOV  R1,R26
0026ef 2fae      	MOV  R26,R30
0026f0 2de1      	MOV  R30,R1
0026f1 9508      	RET
                 
                 __EEPROMRDW:
0026f2 9611      	ADIW R26,1
0026f3 d002      	RCALL __EEPROMRDB
0026f4 2ffe      	MOV  R31,R30
0026f5 9711      	SBIW R26,1
                 
                 __EEPROMRDB:
0026f6 99f9      	SBIC EECR,EEWE
0026f7 cffe      	RJMP __EEPROMRDB
0026f8 93ff      	PUSH R31
0026f9 b7ff      	IN   R31,SREG
0026fa 94f8      	CLI
0026fb bda1      	OUT  EEARL,R26
0026fc bdb2      	OUT  EEARH,R27
0026fd 9af8      	SBI  EECR,EERE
0026fe b5e0      	IN   R30,EEDR
0026ff bfff      	OUT  SREG,R31
002700 91ff      	POP  R31
002701 9508      	RET
                 
                 __CPD10:
002702 9730      	SBIW R30,0
002703 4060      	SBCI R22,0
002704 4070      	SBCI R23,0
002705 9508      	RET
                 
                 __CPW02:
002706 2400      	CLR  R0
002707 160a      	CP   R0,R26
002708 060b      	CPC  R0,R27
002709 9508      	RET
                 
                 __CPD02:
00270a 2400      	CLR  R0
00270b 160a      	CP   R0,R26
00270c 060b      	CPC  R0,R27
00270d 0608      	CPC  R0,R24
00270e 0609      	CPC  R0,R25
00270f 9508      	RET
                 
                 __SAVELOCR6:
002710 935a      	ST   -Y,R21
                 __SAVELOCR5:
002711 934a      	ST   -Y,R20
                 __SAVELOCR4:
002712 933a      	ST   -Y,R19
                 __SAVELOCR3:
002713 932a      	ST   -Y,R18
                 __SAVELOCR2:
002714 931a      	ST   -Y,R17
002715 930a      	ST   -Y,R16
002716 9508      	RET
                 
                 __LOADLOCR6:
002717 815d      	LDD  R21,Y+5
                 __LOADLOCR5:
002718 814c      	LDD  R20,Y+4
                 __LOADLOCR4:
002719 813b      	LDD  R19,Y+3
                 __LOADLOCR3:
00271a 812a      	LDD  R18,Y+2
                 __LOADLOCR2:
00271b 8119      	LDD  R17,Y+1
00271c 8108      	LD   R16,Y
00271d 9508      	RET
                 
                 ;END OF CODE MARKER
                 __END_OF_CODE:


RESOURCE USE INFORMATION
------------------------

Notice:
The register and instruction counts are symbol table hit counts,
and hence implicitly used resources are not counted, eg, the
'lpm' instruction without operands implicitly uses r0 and z,
none of which are counted.

x,y,z are separate entities in the symbol table and are
counted separately from r26..r31 here.

.dseg memory usage only counts static data declared with .byte

ATmega2560 register use summary:
r0 :  96 r1 :  43 r2 :   0 r3 :  10 r4 :   0 r5 :   1 r6 :   1 r7 :   0 
r8 :   0 r9 :  11 r10:  11 r11:  15 r12:  15 r13:  26 r14:  26 r15:   4 
r16:  56 r17:  72 r18:  55 r19:  36 r20:  54 r21:  92 r22: 250 r23: 218 
r24: 185 r25: 161 r26: 944 r27: 485 r28:  42 r29:   1 r30:1523 r31: 792 
x  :  54 y  : 492 z  : 164 
Registers used: 31 out of 35 (88.6%)

ATmega2560 instruction use summary:
.lds  :   0 .lds.l:   0 .sts  :   0 .sts.l:   0 adc   :  41 add   :  41 
adiw  :  42 and   :   5 andi  :  13 asr   :   0 bclr  :   0 bld   :   4 
brbc  :   0 brbs  :   0 brcc  :  13 brcs  :   3 break :   0 breq  :  75 
brge  :  52 brhc  :   0 brhs  :   0 brid  :   0 brie  :   0 brlo  :  31 
brlt  :  42 brmi  :  12 brne  : 222 brpl  :  11 brsh  :   7 brtc  :   7 
brts  :   1 brvc  :   4 brvs  :   4 bset  :   0 bst   :   4 call  :1340 
cbi   :  15 cbr   :   2 clc   :   3 clh   :   0 cli   :   2 cln   :   0 
clr   :  91 cls   :   0 clt   :   7 clv   :   0 clz   :   2 com   :  12 
cp    :  27 cpc   : 166 cpi   : 232 cpse  :   0 dec   :  14 des   :   0 
eicall:   0 eijmp :   0 elpm  :   0 eor   :   8 fmul  :   0 fmuls :   0 
fmulsu:   0 icall :   3 ijmp  :   0 in    :   8 inc   :   4 jmp   :  93 
ld    :  80 ldd   : 230 ldi   :1399 lds   : 464 lpm   :  12 lsl   :  31 
lsr   :   3 mov   : 156 movw  : 111 mul   :  16 muls  :   0 mulsu :   0 
neg   :  11 nop   :   0 or    :   1 ori   :  14 out   :  34 pop   :  97 
push  :  97 rcall : 109 ret   : 278 reti  :   7 rjmp  : 385 rol   :  45 
ror   :  15 sbc   :  16 sbci  :  24 sbi   :  16 sbic  :   1 sbis  :   0 
sbiw  :  73 sbr   :   5 sbrc  :   4 sbrs  :  22 sec   :   5 seh   :   0 
sei   :   1 sen   :   0 ser   :   8 ses   :   0 set   :   6 sev   :   0 
sez   :   1 sleep :   0 spm   :   0 st    : 140 std   : 249 sts   : 454 
sub   :  13 subi  :  58 swap  :   0 tst   :  29 wdr   :   2 
Instructions used: 81 out of 119 (68.1%)

ATmega2560 memory use summary [bytes]:
Segment   Begin    End      Code   Data   Used    Size   Use%
---------------------------------------------------------------
[.cseg] 0x000000 0x004e3c  19470    558  20028  262144   7.6%
[.dseg] 0x000200 0x000c0e      0    526    526    8703   6.0%
[.eseg] 0x000000 0x000028      0     40     40    4096   1.0%

Assembly complete, 0 errors, 15 warnings
